
Lab03.elf:     file format elf32-littlearm

Sections:
Idx Name          Size      VMA       LMA       File off  Algn
  0 .text         0000309c  00400000  00400000  00010000  2**4
                  CONTENTS, ALLOC, LOAD, READONLY, CODE
  1 .relocate     00000574  20000000  0040309c  00020000  2**3
                  CONTENTS, ALLOC, LOAD, DATA
  2 .bss          000002a8  20000574  00403610  00020574  2**2
                  ALLOC
  3 .stack        00003004  2000081c  004038b8  00020574  2**0
                  ALLOC
  4 .ARM.attributes 0000002e  00000000  00000000  00020574  2**0
                  CONTENTS, READONLY
  5 .comment      00000059  00000000  00000000  000205a2  2**0
                  CONTENTS, READONLY
  6 .debug_info   00015f2d  00000000  00000000  000205fb  2**0
                  CONTENTS, READONLY, DEBUGGING
  7 .debug_abbrev 00002ffd  00000000  00000000  00036528  2**0
                  CONTENTS, READONLY, DEBUGGING
  8 .debug_loc    00006bfd  00000000  00000000  00039525  2**0
                  CONTENTS, READONLY, DEBUGGING
  9 .debug_aranges 000008a0  00000000  00000000  00040122  2**0
                  CONTENTS, READONLY, DEBUGGING
 10 .debug_ranges 00000998  00000000  00000000  000409c2  2**0
                  CONTENTS, READONLY, DEBUGGING
 11 .debug_macro  0001867e  00000000  00000000  0004135a  2**0
                  CONTENTS, READONLY, DEBUGGING
 12 .debug_line   0000b154  00000000  00000000  000599d8  2**0
                  CONTENTS, READONLY, DEBUGGING
 13 .debug_str    00069860  00000000  00000000  00064b2c  2**0
                  CONTENTS, READONLY, DEBUGGING
 14 .debug_frame  00001778  00000000  00000000  000ce38c  2**2
                  CONTENTS, READONLY, DEBUGGING

Disassembly of section .text:

00400000 <exception_table>:
  400000:	20 38 00 20 c1 26 40 00 bd 26 40 00 bd 26 40 00      8. .&@..&@..&@.
  400010:	bd 26 40 00 bd 26 40 00 bd 26 40 00 00 00 00 00     .&@..&@..&@.....
	...
  40002c:	a1 02 40 00 bd 26 40 00 00 00 00 00 41 03 40 00     ..@..&@.....A.@.
  40003c:	a5 03 40 00 bd 26 40 00 bd 26 40 00 bd 26 40 00     ..@..&@..&@..&@.
  40004c:	bd 26 40 00 bd 26 40 00 bd 26 40 00 bd 26 40 00     .&@..&@..&@..&@.
  40005c:	bd 26 40 00 bd 26 40 00 bd 26 40 00 bd 26 40 00     .&@..&@..&@..&@.
  40006c:	bd 26 40 00 bd 26 40 00 bd 26 40 00 bd 26 40 00     .&@..&@..&@..&@.
  40007c:	bd 26 40 00 bd 26 40 00 bd 26 40 00 bd 26 40 00     .&@..&@..&@..&@.
  40008c:	bd 26 40 00 bd 26 40 00 bd 26 40 00 bd 26 40 00     .&@..&@..&@..&@.
  40009c:	bd 26 40 00 bd 26 40 00 bd 26 40 00 bd 26 40 00     .&@..&@..&@..&@.
  4000ac:	bd 26 40 00 bd 26 40 00 bd 26 40 00 bd 26 40 00     .&@..&@..&@..&@.
  4000bc:	bd 26 40 00 bd 26 40 00 bd 26 40 00 bd 26 40 00     .&@..&@..&@..&@.
  4000cc:	bd 26 40 00 bd 26 40 00 bd 26 40 00 bd 26 40 00     .&@..&@..&@..&@.
  4000dc:	bd 26 40 00 bd 26 40 00 bd 26 40 00 bd 26 40 00     .&@..&@..&@..&@.
  4000ec:	bd 26 40 00 bd 26 40 00 bd 26 40 00                 .&@..&@..&@.

004000f8 <__do_global_dtors_aux>:
  4000f8:	b510      	push	{r4, lr}
  4000fa:	4c05      	ldr	r4, [pc, #20]	; (400110 <__do_global_dtors_aux+0x18>)
  4000fc:	7823      	ldrb	r3, [r4, #0]
  4000fe:	b933      	cbnz	r3, 40010e <__do_global_dtors_aux+0x16>
  400100:	4b04      	ldr	r3, [pc, #16]	; (400114 <__do_global_dtors_aux+0x1c>)
  400102:	b113      	cbz	r3, 40010a <__do_global_dtors_aux+0x12>
  400104:	4804      	ldr	r0, [pc, #16]	; (400118 <__do_global_dtors_aux+0x20>)
  400106:	f3af 8000 	nop.w
  40010a:	2301      	movs	r3, #1
  40010c:	7023      	strb	r3, [r4, #0]
  40010e:	bd10      	pop	{r4, pc}
  400110:	20000574 	.word	0x20000574
  400114:	00000000 	.word	0x00000000
  400118:	0040309c 	.word	0x0040309c

0040011c <frame_dummy>:
  40011c:	4b0c      	ldr	r3, [pc, #48]	; (400150 <frame_dummy+0x34>)
  40011e:	b143      	cbz	r3, 400132 <frame_dummy+0x16>
  400120:	480c      	ldr	r0, [pc, #48]	; (400154 <frame_dummy+0x38>)
  400122:	490d      	ldr	r1, [pc, #52]	; (400158 <frame_dummy+0x3c>)
  400124:	b510      	push	{r4, lr}
  400126:	f3af 8000 	nop.w
  40012a:	480c      	ldr	r0, [pc, #48]	; (40015c <frame_dummy+0x40>)
  40012c:	6803      	ldr	r3, [r0, #0]
  40012e:	b923      	cbnz	r3, 40013a <frame_dummy+0x1e>
  400130:	bd10      	pop	{r4, pc}
  400132:	480a      	ldr	r0, [pc, #40]	; (40015c <frame_dummy+0x40>)
  400134:	6803      	ldr	r3, [r0, #0]
  400136:	b933      	cbnz	r3, 400146 <frame_dummy+0x2a>
  400138:	4770      	bx	lr
  40013a:	4b09      	ldr	r3, [pc, #36]	; (400160 <frame_dummy+0x44>)
  40013c:	2b00      	cmp	r3, #0
  40013e:	d0f7      	beq.n	400130 <frame_dummy+0x14>
  400140:	e8bd 4010 	ldmia.w	sp!, {r4, lr}
  400144:	4718      	bx	r3
  400146:	4b06      	ldr	r3, [pc, #24]	; (400160 <frame_dummy+0x44>)
  400148:	2b00      	cmp	r3, #0
  40014a:	d0f5      	beq.n	400138 <frame_dummy+0x1c>
  40014c:	4718      	bx	r3
  40014e:	bf00      	nop
  400150:	00000000 	.word	0x00000000
  400154:	0040309c 	.word	0x0040309c
  400158:	20000578 	.word	0x20000578
  40015c:	0040309c 	.word	0x0040309c
  400160:	00000000 	.word	0x00000000

00400164 <vListInitialise>:
  400164:	f100 0308 	add.w	r3, r0, #8
  400168:	6043      	str	r3, [r0, #4]
  40016a:	f04f 32ff 	mov.w	r2, #4294967295
  40016e:	6082      	str	r2, [r0, #8]
  400170:	60c3      	str	r3, [r0, #12]
  400172:	6103      	str	r3, [r0, #16]
  400174:	2300      	movs	r3, #0
  400176:	6003      	str	r3, [r0, #0]
  400178:	4770      	bx	lr

0040017a <vListInitialiseItem>:
  40017a:	2300      	movs	r3, #0
  40017c:	6103      	str	r3, [r0, #16]
  40017e:	4770      	bx	lr

00400180 <vListInsertEnd>:
  400180:	6843      	ldr	r3, [r0, #4]
  400182:	604b      	str	r3, [r1, #4]
  400184:	689a      	ldr	r2, [r3, #8]
  400186:	608a      	str	r2, [r1, #8]
  400188:	689a      	ldr	r2, [r3, #8]
  40018a:	6051      	str	r1, [r2, #4]
  40018c:	6099      	str	r1, [r3, #8]
  40018e:	6108      	str	r0, [r1, #16]
  400190:	6803      	ldr	r3, [r0, #0]
  400192:	3301      	adds	r3, #1
  400194:	6003      	str	r3, [r0, #0]
  400196:	4770      	bx	lr

00400198 <vListInsert>:
  400198:	b430      	push	{r4, r5}
  40019a:	680d      	ldr	r5, [r1, #0]
  40019c:	f1b5 3fff 	cmp.w	r5, #4294967295
  4001a0:	d002      	beq.n	4001a8 <vListInsert+0x10>
  4001a2:	f100 0208 	add.w	r2, r0, #8
  4001a6:	e002      	b.n	4001ae <vListInsert+0x16>
  4001a8:	6902      	ldr	r2, [r0, #16]
  4001aa:	e004      	b.n	4001b6 <vListInsert+0x1e>
  4001ac:	461a      	mov	r2, r3
  4001ae:	6853      	ldr	r3, [r2, #4]
  4001b0:	681c      	ldr	r4, [r3, #0]
  4001b2:	42a5      	cmp	r5, r4
  4001b4:	d2fa      	bcs.n	4001ac <vListInsert+0x14>
  4001b6:	6853      	ldr	r3, [r2, #4]
  4001b8:	604b      	str	r3, [r1, #4]
  4001ba:	6099      	str	r1, [r3, #8]
  4001bc:	608a      	str	r2, [r1, #8]
  4001be:	6051      	str	r1, [r2, #4]
  4001c0:	6108      	str	r0, [r1, #16]
  4001c2:	6803      	ldr	r3, [r0, #0]
  4001c4:	3301      	adds	r3, #1
  4001c6:	6003      	str	r3, [r0, #0]
  4001c8:	bc30      	pop	{r4, r5}
  4001ca:	4770      	bx	lr

004001cc <uxListRemove>:
  4001cc:	6903      	ldr	r3, [r0, #16]
  4001ce:	6842      	ldr	r2, [r0, #4]
  4001d0:	6881      	ldr	r1, [r0, #8]
  4001d2:	6091      	str	r1, [r2, #8]
  4001d4:	6882      	ldr	r2, [r0, #8]
  4001d6:	6841      	ldr	r1, [r0, #4]
  4001d8:	6051      	str	r1, [r2, #4]
  4001da:	685a      	ldr	r2, [r3, #4]
  4001dc:	4290      	cmp	r0, r2
  4001de:	d006      	beq.n	4001ee <uxListRemove+0x22>
  4001e0:	2200      	movs	r2, #0
  4001e2:	6102      	str	r2, [r0, #16]
  4001e4:	681a      	ldr	r2, [r3, #0]
  4001e6:	3a01      	subs	r2, #1
  4001e8:	601a      	str	r2, [r3, #0]
  4001ea:	6818      	ldr	r0, [r3, #0]
  4001ec:	4770      	bx	lr
  4001ee:	6882      	ldr	r2, [r0, #8]
  4001f0:	605a      	str	r2, [r3, #4]
  4001f2:	e7f5      	b.n	4001e0 <uxListRemove+0x14>

004001f4 <prvPortStartFirstTask>:
  4001f4:	4808      	ldr	r0, [pc, #32]	; (400218 <prvPortStartFirstTask+0x24>)
  4001f6:	6800      	ldr	r0, [r0, #0]
  4001f8:	6800      	ldr	r0, [r0, #0]
  4001fa:	f380 8808 	msr	MSP, r0
  4001fe:	f04f 0000 	mov.w	r0, #0
  400202:	f380 8814 	msr	CONTROL, r0
  400206:	b662      	cpsie	i
  400208:	b661      	cpsie	f
  40020a:	f3bf 8f4f 	dsb	sy
  40020e:	f3bf 8f6f 	isb	sy
  400212:	df00      	svc	0
  400214:	bf00      	nop
  400216:	0000      	.short	0x0000
  400218:	e000ed08 	.word	0xe000ed08

0040021c <vPortEnableVFP>:
  40021c:	f8df 000c 	ldr.w	r0, [pc, #12]	; 40022c <vPortEnableVFP+0x10>
  400220:	6801      	ldr	r1, [r0, #0]
  400222:	f441 0170 	orr.w	r1, r1, #15728640	; 0xf00000
  400226:	6001      	str	r1, [r0, #0]
  400228:	4770      	bx	lr
  40022a:	0000      	.short	0x0000
  40022c:	e000ed88 	.word	0xe000ed88

00400230 <prvTaskExitError>:
  400230:	b500      	push	{lr}
  400232:	b083      	sub	sp, #12
  400234:	2300      	movs	r3, #0
  400236:	9301      	str	r3, [sp, #4]
  400238:	4b0b      	ldr	r3, [pc, #44]	; (400268 <prvTaskExitError+0x38>)
  40023a:	681b      	ldr	r3, [r3, #0]
  40023c:	f1b3 3fff 	cmp.w	r3, #4294967295
  400240:	d003      	beq.n	40024a <prvTaskExitError+0x1a>
  400242:	21e3      	movs	r1, #227	; 0xe3
  400244:	4809      	ldr	r0, [pc, #36]	; (40026c <prvTaskExitError+0x3c>)
  400246:	4b0a      	ldr	r3, [pc, #40]	; (400270 <prvTaskExitError+0x40>)
  400248:	4798      	blx	r3
  40024a:	f04f 0350 	mov.w	r3, #80	; 0x50
  40024e:	f383 8811 	msr	BASEPRI, r3
  400252:	f3bf 8f6f 	isb	sy
  400256:	f3bf 8f4f 	dsb	sy
  40025a:	9b01      	ldr	r3, [sp, #4]
  40025c:	2b00      	cmp	r3, #0
  40025e:	d0fc      	beq.n	40025a <prvTaskExitError+0x2a>
  400260:	b003      	add	sp, #12
  400262:	f85d fb04 	ldr.w	pc, [sp], #4
  400266:	bf00      	nop
  400268:	20000000 	.word	0x20000000
  40026c:	00402efc 	.word	0x00402efc
  400270:	00402b69 	.word	0x00402b69

00400274 <pxPortInitialiseStack>:
  400274:	f04f 7380 	mov.w	r3, #16777216	; 0x1000000
  400278:	f840 3c04 	str.w	r3, [r0, #-4]
  40027c:	f021 0101 	bic.w	r1, r1, #1
  400280:	f840 1c08 	str.w	r1, [r0, #-8]
  400284:	4b05      	ldr	r3, [pc, #20]	; (40029c <pxPortInitialiseStack+0x28>)
  400286:	f840 3c0c 	str.w	r3, [r0, #-12]
  40028a:	f840 2c20 	str.w	r2, [r0, #-32]
  40028e:	f06f 0302 	mvn.w	r3, #2
  400292:	f840 3c24 	str.w	r3, [r0, #-36]
  400296:	3844      	subs	r0, #68	; 0x44
  400298:	4770      	bx	lr
  40029a:	bf00      	nop
  40029c:	00400231 	.word	0x00400231

004002a0 <SVC_Handler>:
  4002a0:	4b07      	ldr	r3, [pc, #28]	; (4002c0 <pxCurrentTCBConst2>)
  4002a2:	6819      	ldr	r1, [r3, #0]
  4002a4:	6808      	ldr	r0, [r1, #0]
  4002a6:	e8b0 4ff0 	ldmia.w	r0!, {r4, r5, r6, r7, r8, r9, sl, fp, lr}
  4002aa:	f380 8809 	msr	PSP, r0
  4002ae:	f3bf 8f6f 	isb	sy
  4002b2:	f04f 0000 	mov.w	r0, #0
  4002b6:	f380 8811 	msr	BASEPRI, r0
  4002ba:	4770      	bx	lr
  4002bc:	f3af 8000 	nop.w

004002c0 <pxCurrentTCBConst2>:
  4002c0:	200005b0 	.word	0x200005b0

004002c4 <vPortEnterCritical>:
  4002c4:	b508      	push	{r3, lr}
  4002c6:	f04f 0350 	mov.w	r3, #80	; 0x50
  4002ca:	f383 8811 	msr	BASEPRI, r3
  4002ce:	f3bf 8f6f 	isb	sy
  4002d2:	f3bf 8f4f 	dsb	sy
  4002d6:	4a09      	ldr	r2, [pc, #36]	; (4002fc <vPortEnterCritical+0x38>)
  4002d8:	6813      	ldr	r3, [r2, #0]
  4002da:	3301      	adds	r3, #1
  4002dc:	6013      	str	r3, [r2, #0]
  4002de:	2b01      	cmp	r3, #1
  4002e0:	d000      	beq.n	4002e4 <vPortEnterCritical+0x20>
  4002e2:	bd08      	pop	{r3, pc}
  4002e4:	4b06      	ldr	r3, [pc, #24]	; (400300 <vPortEnterCritical+0x3c>)
  4002e6:	681b      	ldr	r3, [r3, #0]
  4002e8:	f013 0fff 	tst.w	r3, #255	; 0xff
  4002ec:	d0f9      	beq.n	4002e2 <vPortEnterCritical+0x1e>
  4002ee:	f240 119f 	movw	r1, #415	; 0x19f
  4002f2:	4804      	ldr	r0, [pc, #16]	; (400304 <vPortEnterCritical+0x40>)
  4002f4:	4b04      	ldr	r3, [pc, #16]	; (400308 <vPortEnterCritical+0x44>)
  4002f6:	4798      	blx	r3
  4002f8:	e7f3      	b.n	4002e2 <vPortEnterCritical+0x1e>
  4002fa:	bf00      	nop
  4002fc:	20000000 	.word	0x20000000
  400300:	e000ed04 	.word	0xe000ed04
  400304:	00402efc 	.word	0x00402efc
  400308:	00402b69 	.word	0x00402b69

0040030c <vPortExitCritical>:
  40030c:	b508      	push	{r3, lr}
  40030e:	4b08      	ldr	r3, [pc, #32]	; (400330 <vPortExitCritical+0x24>)
  400310:	681b      	ldr	r3, [r3, #0]
  400312:	b13b      	cbz	r3, 400324 <vPortExitCritical+0x18>
  400314:	4a06      	ldr	r2, [pc, #24]	; (400330 <vPortExitCritical+0x24>)
  400316:	6813      	ldr	r3, [r2, #0]
  400318:	3b01      	subs	r3, #1
  40031a:	6013      	str	r3, [r2, #0]
  40031c:	b90b      	cbnz	r3, 400322 <vPortExitCritical+0x16>
  40031e:	f383 8811 	msr	BASEPRI, r3
  400322:	bd08      	pop	{r3, pc}
  400324:	f44f 71d3 	mov.w	r1, #422	; 0x1a6
  400328:	4802      	ldr	r0, [pc, #8]	; (400334 <vPortExitCritical+0x28>)
  40032a:	4b03      	ldr	r3, [pc, #12]	; (400338 <vPortExitCritical+0x2c>)
  40032c:	4798      	blx	r3
  40032e:	e7f1      	b.n	400314 <vPortExitCritical+0x8>
  400330:	20000000 	.word	0x20000000
  400334:	00402efc 	.word	0x00402efc
  400338:	00402b69 	.word	0x00402b69
  40033c:	00000000 	.word	0x00000000

00400340 <PendSV_Handler>:
  400340:	f3ef 8009 	mrs	r0, PSP
  400344:	f3bf 8f6f 	isb	sy
  400348:	4b15      	ldr	r3, [pc, #84]	; (4003a0 <pxCurrentTCBConst>)
  40034a:	681a      	ldr	r2, [r3, #0]
  40034c:	f01e 0f10 	tst.w	lr, #16
  400350:	bf08      	it	eq
  400352:	ed20 8a10 	vstmdbeq	r0!, {s16-s31}
  400356:	e920 4ff0 	stmdb	r0!, {r4, r5, r6, r7, r8, r9, sl, fp, lr}
  40035a:	6010      	str	r0, [r2, #0]
  40035c:	e92d 0009 	stmdb	sp!, {r0, r3}
  400360:	f04f 0050 	mov.w	r0, #80	; 0x50
  400364:	f380 8811 	msr	BASEPRI, r0
  400368:	f3bf 8f4f 	dsb	sy
  40036c:	f3bf 8f6f 	isb	sy
  400370:	f001 fa04 	bl	40177c <vTaskSwitchContext>
  400374:	f04f 0000 	mov.w	r0, #0
  400378:	f380 8811 	msr	BASEPRI, r0
  40037c:	bc09      	pop	{r0, r3}
  40037e:	6819      	ldr	r1, [r3, #0]
  400380:	6808      	ldr	r0, [r1, #0]
  400382:	e8b0 4ff0 	ldmia.w	r0!, {r4, r5, r6, r7, r8, r9, sl, fp, lr}
  400386:	f01e 0f10 	tst.w	lr, #16
  40038a:	bf08      	it	eq
  40038c:	ecb0 8a10 	vldmiaeq	r0!, {s16-s31}
  400390:	f380 8809 	msr	PSP, r0
  400394:	f3bf 8f6f 	isb	sy
  400398:	4770      	bx	lr
  40039a:	bf00      	nop
  40039c:	f3af 8000 	nop.w

004003a0 <pxCurrentTCBConst>:
  4003a0:	200005b0 	.word	0x200005b0

004003a4 <SysTick_Handler>:
  4003a4:	b508      	push	{r3, lr}
  4003a6:	f04f 0350 	mov.w	r3, #80	; 0x50
  4003aa:	f383 8811 	msr	BASEPRI, r3
  4003ae:	f3bf 8f6f 	isb	sy
  4003b2:	f3bf 8f4f 	dsb	sy
  4003b6:	4b05      	ldr	r3, [pc, #20]	; (4003cc <SysTick_Handler+0x28>)
  4003b8:	4798      	blx	r3
  4003ba:	b118      	cbz	r0, 4003c4 <SysTick_Handler+0x20>
  4003bc:	f04f 5280 	mov.w	r2, #268435456	; 0x10000000
  4003c0:	4b03      	ldr	r3, [pc, #12]	; (4003d0 <SysTick_Handler+0x2c>)
  4003c2:	601a      	str	r2, [r3, #0]
  4003c4:	2300      	movs	r3, #0
  4003c6:	f383 8811 	msr	BASEPRI, r3
  4003ca:	bd08      	pop	{r3, pc}
  4003cc:	004014e5 	.word	0x004014e5
  4003d0:	e000ed04 	.word	0xe000ed04

004003d4 <vPortSetupTimerInterrupt>:
  4003d4:	4a08      	ldr	r2, [pc, #32]	; (4003f8 <vPortSetupTimerInterrupt+0x24>)
  4003d6:	2300      	movs	r3, #0
  4003d8:	6013      	str	r3, [r2, #0]
  4003da:	4908      	ldr	r1, [pc, #32]	; (4003fc <vPortSetupTimerInterrupt+0x28>)
  4003dc:	600b      	str	r3, [r1, #0]
  4003de:	4b08      	ldr	r3, [pc, #32]	; (400400 <vPortSetupTimerInterrupt+0x2c>)
  4003e0:	681b      	ldr	r3, [r3, #0]
  4003e2:	4908      	ldr	r1, [pc, #32]	; (400404 <vPortSetupTimerInterrupt+0x30>)
  4003e4:	fba1 1303 	umull	r1, r3, r1, r3
  4003e8:	099b      	lsrs	r3, r3, #6
  4003ea:	3b01      	subs	r3, #1
  4003ec:	4906      	ldr	r1, [pc, #24]	; (400408 <vPortSetupTimerInterrupt+0x34>)
  4003ee:	600b      	str	r3, [r1, #0]
  4003f0:	2307      	movs	r3, #7
  4003f2:	6013      	str	r3, [r2, #0]
  4003f4:	4770      	bx	lr
  4003f6:	bf00      	nop
  4003f8:	e000e010 	.word	0xe000e010
  4003fc:	e000e018 	.word	0xe000e018
  400400:	20000008 	.word	0x20000008
  400404:	10624dd3 	.word	0x10624dd3
  400408:	e000e014 	.word	0xe000e014

0040040c <xPortStartScheduler>:
  40040c:	b510      	push	{r4, lr}
  40040e:	b082      	sub	sp, #8
  400410:	4b34      	ldr	r3, [pc, #208]	; (4004e4 <xPortStartScheduler+0xd8>)
  400412:	681a      	ldr	r2, [r3, #0]
  400414:	4b34      	ldr	r3, [pc, #208]	; (4004e8 <xPortStartScheduler+0xdc>)
  400416:	429a      	cmp	r2, r3
  400418:	d018      	beq.n	40044c <xPortStartScheduler+0x40>
  40041a:	4b32      	ldr	r3, [pc, #200]	; (4004e4 <xPortStartScheduler+0xd8>)
  40041c:	681a      	ldr	r2, [r3, #0]
  40041e:	4b33      	ldr	r3, [pc, #204]	; (4004ec <xPortStartScheduler+0xe0>)
  400420:	429a      	cmp	r2, r3
  400422:	d019      	beq.n	400458 <xPortStartScheduler+0x4c>
  400424:	4b32      	ldr	r3, [pc, #200]	; (4004f0 <xPortStartScheduler+0xe4>)
  400426:	781a      	ldrb	r2, [r3, #0]
  400428:	b2d2      	uxtb	r2, r2
  40042a:	9201      	str	r2, [sp, #4]
  40042c:	22ff      	movs	r2, #255	; 0xff
  40042e:	701a      	strb	r2, [r3, #0]
  400430:	781b      	ldrb	r3, [r3, #0]
  400432:	b2db      	uxtb	r3, r3
  400434:	f88d 3003 	strb.w	r3, [sp, #3]
  400438:	f89d 3003 	ldrb.w	r3, [sp, #3]
  40043c:	f003 0350 	and.w	r3, r3, #80	; 0x50
  400440:	4a2c      	ldr	r2, [pc, #176]	; (4004f4 <xPortStartScheduler+0xe8>)
  400442:	7013      	strb	r3, [r2, #0]
  400444:	2207      	movs	r2, #7
  400446:	4b2c      	ldr	r3, [pc, #176]	; (4004f8 <xPortStartScheduler+0xec>)
  400448:	601a      	str	r2, [r3, #0]
  40044a:	e015      	b.n	400478 <xPortStartScheduler+0x6c>
  40044c:	f44f 7194 	mov.w	r1, #296	; 0x128
  400450:	482a      	ldr	r0, [pc, #168]	; (4004fc <xPortStartScheduler+0xf0>)
  400452:	4b2b      	ldr	r3, [pc, #172]	; (400500 <xPortStartScheduler+0xf4>)
  400454:	4798      	blx	r3
  400456:	e7e0      	b.n	40041a <xPortStartScheduler+0xe>
  400458:	f240 1129 	movw	r1, #297	; 0x129
  40045c:	4827      	ldr	r0, [pc, #156]	; (4004fc <xPortStartScheduler+0xf0>)
  40045e:	4b28      	ldr	r3, [pc, #160]	; (400500 <xPortStartScheduler+0xf4>)
  400460:	4798      	blx	r3
  400462:	e7df      	b.n	400424 <xPortStartScheduler+0x18>
  400464:	4a24      	ldr	r2, [pc, #144]	; (4004f8 <xPortStartScheduler+0xec>)
  400466:	6813      	ldr	r3, [r2, #0]
  400468:	3b01      	subs	r3, #1
  40046a:	6013      	str	r3, [r2, #0]
  40046c:	f89d 3003 	ldrb.w	r3, [sp, #3]
  400470:	005b      	lsls	r3, r3, #1
  400472:	b2db      	uxtb	r3, r3
  400474:	f88d 3003 	strb.w	r3, [sp, #3]
  400478:	f89d 3003 	ldrb.w	r3, [sp, #3]
  40047c:	f013 0f80 	tst.w	r3, #128	; 0x80
  400480:	d1f0      	bne.n	400464 <xPortStartScheduler+0x58>
  400482:	4b1d      	ldr	r3, [pc, #116]	; (4004f8 <xPortStartScheduler+0xec>)
  400484:	681b      	ldr	r3, [r3, #0]
  400486:	2b03      	cmp	r3, #3
  400488:	d004      	beq.n	400494 <xPortStartScheduler+0x88>
  40048a:	f44f 71ad 	mov.w	r1, #346	; 0x15a
  40048e:	481b      	ldr	r0, [pc, #108]	; (4004fc <xPortStartScheduler+0xf0>)
  400490:	4b1b      	ldr	r3, [pc, #108]	; (400500 <xPortStartScheduler+0xf4>)
  400492:	4798      	blx	r3
  400494:	4a18      	ldr	r2, [pc, #96]	; (4004f8 <xPortStartScheduler+0xec>)
  400496:	6813      	ldr	r3, [r2, #0]
  400498:	021b      	lsls	r3, r3, #8
  40049a:	f403 63e0 	and.w	r3, r3, #1792	; 0x700
  40049e:	6013      	str	r3, [r2, #0]
  4004a0:	9b01      	ldr	r3, [sp, #4]
  4004a2:	b2db      	uxtb	r3, r3
  4004a4:	4a12      	ldr	r2, [pc, #72]	; (4004f0 <xPortStartScheduler+0xe4>)
  4004a6:	7013      	strb	r3, [r2, #0]
  4004a8:	4b16      	ldr	r3, [pc, #88]	; (400504 <xPortStartScheduler+0xf8>)
  4004aa:	681a      	ldr	r2, [r3, #0]
  4004ac:	f442 0270 	orr.w	r2, r2, #15728640	; 0xf00000
  4004b0:	601a      	str	r2, [r3, #0]
  4004b2:	681a      	ldr	r2, [r3, #0]
  4004b4:	f042 4270 	orr.w	r2, r2, #4026531840	; 0xf0000000
  4004b8:	601a      	str	r2, [r3, #0]
  4004ba:	4b13      	ldr	r3, [pc, #76]	; (400508 <xPortStartScheduler+0xfc>)
  4004bc:	4798      	blx	r3
  4004be:	2400      	movs	r4, #0
  4004c0:	4b12      	ldr	r3, [pc, #72]	; (40050c <xPortStartScheduler+0x100>)
  4004c2:	601c      	str	r4, [r3, #0]
  4004c4:	4b12      	ldr	r3, [pc, #72]	; (400510 <xPortStartScheduler+0x104>)
  4004c6:	4798      	blx	r3
  4004c8:	4a12      	ldr	r2, [pc, #72]	; (400514 <xPortStartScheduler+0x108>)
  4004ca:	6813      	ldr	r3, [r2, #0]
  4004cc:	f043 4340 	orr.w	r3, r3, #3221225472	; 0xc0000000
  4004d0:	6013      	str	r3, [r2, #0]
  4004d2:	4b11      	ldr	r3, [pc, #68]	; (400518 <xPortStartScheduler+0x10c>)
  4004d4:	4798      	blx	r3
  4004d6:	4b11      	ldr	r3, [pc, #68]	; (40051c <xPortStartScheduler+0x110>)
  4004d8:	4798      	blx	r3
  4004da:	4b11      	ldr	r3, [pc, #68]	; (400520 <xPortStartScheduler+0x114>)
  4004dc:	4798      	blx	r3
  4004de:	4620      	mov	r0, r4
  4004e0:	b002      	add	sp, #8
  4004e2:	bd10      	pop	{r4, pc}
  4004e4:	e000ed00 	.word	0xe000ed00
  4004e8:	410fc271 	.word	0x410fc271
  4004ec:	410fc270 	.word	0x410fc270
  4004f0:	e000e400 	.word	0xe000e400
  4004f4:	20000590 	.word	0x20000590
  4004f8:	20000594 	.word	0x20000594
  4004fc:	00402efc 	.word	0x00402efc
  400500:	00402b69 	.word	0x00402b69
  400504:	e000ed20 	.word	0xe000ed20
  400508:	004003d5 	.word	0x004003d5
  40050c:	20000000 	.word	0x20000000
  400510:	0040021d 	.word	0x0040021d
  400514:	e000ef34 	.word	0xe000ef34
  400518:	004001f5 	.word	0x004001f5
  40051c:	0040177d 	.word	0x0040177d
  400520:	00400231 	.word	0x00400231

00400524 <vPortValidateInterruptPriority>:
  400524:	b508      	push	{r3, lr}
  400526:	f3ef 8305 	mrs	r3, IPSR
  40052a:	2b0f      	cmp	r3, #15
  40052c:	d906      	bls.n	40053c <vPortValidateInterruptPriority+0x18>
  40052e:	4a0e      	ldr	r2, [pc, #56]	; (400568 <vPortValidateInterruptPriority+0x44>)
  400530:	5c9b      	ldrb	r3, [r3, r2]
  400532:	b2db      	uxtb	r3, r3
  400534:	4a0d      	ldr	r2, [pc, #52]	; (40056c <vPortValidateInterruptPriority+0x48>)
  400536:	7812      	ldrb	r2, [r2, #0]
  400538:	4293      	cmp	r3, r2
  40053a:	d308      	bcc.n	40054e <vPortValidateInterruptPriority+0x2a>
  40053c:	4b0c      	ldr	r3, [pc, #48]	; (400570 <vPortValidateInterruptPriority+0x4c>)
  40053e:	681b      	ldr	r3, [r3, #0]
  400540:	f403 63e0 	and.w	r3, r3, #1792	; 0x700
  400544:	4a0b      	ldr	r2, [pc, #44]	; (400574 <vPortValidateInterruptPriority+0x50>)
  400546:	6812      	ldr	r2, [r2, #0]
  400548:	4293      	cmp	r3, r2
  40054a:	d806      	bhi.n	40055a <vPortValidateInterruptPriority+0x36>
  40054c:	bd08      	pop	{r3, pc}
  40054e:	f240 21f2 	movw	r1, #754	; 0x2f2
  400552:	4809      	ldr	r0, [pc, #36]	; (400578 <vPortValidateInterruptPriority+0x54>)
  400554:	4b09      	ldr	r3, [pc, #36]	; (40057c <vPortValidateInterruptPriority+0x58>)
  400556:	4798      	blx	r3
  400558:	e7f0      	b.n	40053c <vPortValidateInterruptPriority+0x18>
  40055a:	f240 3102 	movw	r1, #770	; 0x302
  40055e:	4806      	ldr	r0, [pc, #24]	; (400578 <vPortValidateInterruptPriority+0x54>)
  400560:	4b06      	ldr	r3, [pc, #24]	; (40057c <vPortValidateInterruptPriority+0x58>)
  400562:	4798      	blx	r3
  400564:	e7f2      	b.n	40054c <vPortValidateInterruptPriority+0x28>
  400566:	bf00      	nop
  400568:	e000e3f0 	.word	0xe000e3f0
  40056c:	20000590 	.word	0x20000590
  400570:	e000ed0c 	.word	0xe000ed0c
  400574:	20000594 	.word	0x20000594
  400578:	00402efc 	.word	0x00402efc
  40057c:	00402b69 	.word	0x00402b69

00400580 <prvInsertBlockIntoFreeList>:
  400580:	b410      	push	{r4}
  400582:	4a13      	ldr	r2, [pc, #76]	; (4005d0 <prvInsertBlockIntoFreeList+0x50>)
  400584:	e000      	b.n	400588 <prvInsertBlockIntoFreeList+0x8>
  400586:	461a      	mov	r2, r3
  400588:	6813      	ldr	r3, [r2, #0]
  40058a:	4283      	cmp	r3, r0
  40058c:	d3fb      	bcc.n	400586 <prvInsertBlockIntoFreeList+0x6>
  40058e:	6851      	ldr	r1, [r2, #4]
  400590:	1854      	adds	r4, r2, r1
  400592:	42a0      	cmp	r0, r4
  400594:	d00a      	beq.n	4005ac <prvInsertBlockIntoFreeList+0x2c>
  400596:	6841      	ldr	r1, [r0, #4]
  400598:	1844      	adds	r4, r0, r1
  40059a:	42a3      	cmp	r3, r4
  40059c:	d00b      	beq.n	4005b6 <prvInsertBlockIntoFreeList+0x36>
  40059e:	6003      	str	r3, [r0, #0]
  4005a0:	4290      	cmp	r0, r2
  4005a2:	d000      	beq.n	4005a6 <prvInsertBlockIntoFreeList+0x26>
  4005a4:	6010      	str	r0, [r2, #0]
  4005a6:	f85d 4b04 	ldr.w	r4, [sp], #4
  4005aa:	4770      	bx	lr
  4005ac:	6840      	ldr	r0, [r0, #4]
  4005ae:	4401      	add	r1, r0
  4005b0:	6051      	str	r1, [r2, #4]
  4005b2:	4610      	mov	r0, r2
  4005b4:	e7ef      	b.n	400596 <prvInsertBlockIntoFreeList+0x16>
  4005b6:	4c07      	ldr	r4, [pc, #28]	; (4005d4 <prvInsertBlockIntoFreeList+0x54>)
  4005b8:	6824      	ldr	r4, [r4, #0]
  4005ba:	42a3      	cmp	r3, r4
  4005bc:	d006      	beq.n	4005cc <prvInsertBlockIntoFreeList+0x4c>
  4005be:	685b      	ldr	r3, [r3, #4]
  4005c0:	4419      	add	r1, r3
  4005c2:	6041      	str	r1, [r0, #4]
  4005c4:	6813      	ldr	r3, [r2, #0]
  4005c6:	681b      	ldr	r3, [r3, #0]
  4005c8:	6003      	str	r3, [r0, #0]
  4005ca:	e7e9      	b.n	4005a0 <prvInsertBlockIntoFreeList+0x20>
  4005cc:	6004      	str	r4, [r0, #0]
  4005ce:	e7e7      	b.n	4005a0 <prvInsertBlockIntoFreeList+0x20>
  4005d0:	200005a8 	.word	0x200005a8
  4005d4:	20000598 	.word	0x20000598

004005d8 <pvPortMalloc>:
  4005d8:	b570      	push	{r4, r5, r6, lr}
  4005da:	4605      	mov	r5, r0
  4005dc:	4b2c      	ldr	r3, [pc, #176]	; (400690 <pvPortMalloc+0xb8>)
  4005de:	681b      	ldr	r3, [r3, #0]
  4005e0:	b1b3      	cbz	r3, 400610 <pvPortMalloc+0x38>
  4005e2:	4b2c      	ldr	r3, [pc, #176]	; (400694 <pvPortMalloc+0xbc>)
  4005e4:	4798      	blx	r3
  4005e6:	4b2c      	ldr	r3, [pc, #176]	; (400698 <pvPortMalloc+0xc0>)
  4005e8:	681b      	ldr	r3, [r3, #0]
  4005ea:	421d      	tst	r5, r3
  4005ec:	d145      	bne.n	40067a <pvPortMalloc+0xa2>
  4005ee:	b135      	cbz	r5, 4005fe <pvPortMalloc+0x26>
  4005f0:	3508      	adds	r5, #8
  4005f2:	f015 0f07 	tst.w	r5, #7
  4005f6:	d002      	beq.n	4005fe <pvPortMalloc+0x26>
  4005f8:	f025 0507 	bic.w	r5, r5, #7
  4005fc:	3508      	adds	r5, #8
  4005fe:	2d00      	cmp	r5, #0
  400600:	d03d      	beq.n	40067e <pvPortMalloc+0xa6>
  400602:	4b26      	ldr	r3, [pc, #152]	; (40069c <pvPortMalloc+0xc4>)
  400604:	681b      	ldr	r3, [r3, #0]
  400606:	429d      	cmp	r5, r3
  400608:	d83b      	bhi.n	400682 <pvPortMalloc+0xaa>
  40060a:	4a25      	ldr	r2, [pc, #148]	; (4006a0 <pvPortMalloc+0xc8>)
  40060c:	6814      	ldr	r4, [r2, #0]
  40060e:	e006      	b.n	40061e <pvPortMalloc+0x46>
  400610:	218b      	movs	r1, #139	; 0x8b
  400612:	4824      	ldr	r0, [pc, #144]	; (4006a4 <pvPortMalloc+0xcc>)
  400614:	4b24      	ldr	r3, [pc, #144]	; (4006a8 <pvPortMalloc+0xd0>)
  400616:	4798      	blx	r3
  400618:	e7e3      	b.n	4005e2 <pvPortMalloc+0xa>
  40061a:	4622      	mov	r2, r4
  40061c:	461c      	mov	r4, r3
  40061e:	6863      	ldr	r3, [r4, #4]
  400620:	429d      	cmp	r5, r3
  400622:	d902      	bls.n	40062a <pvPortMalloc+0x52>
  400624:	6823      	ldr	r3, [r4, #0]
  400626:	2b00      	cmp	r3, #0
  400628:	d1f7      	bne.n	40061a <pvPortMalloc+0x42>
  40062a:	4b19      	ldr	r3, [pc, #100]	; (400690 <pvPortMalloc+0xb8>)
  40062c:	681b      	ldr	r3, [r3, #0]
  40062e:	429c      	cmp	r4, r3
  400630:	d029      	beq.n	400686 <pvPortMalloc+0xae>
  400632:	6816      	ldr	r6, [r2, #0]
  400634:	3608      	adds	r6, #8
  400636:	6823      	ldr	r3, [r4, #0]
  400638:	6013      	str	r3, [r2, #0]
  40063a:	6863      	ldr	r3, [r4, #4]
  40063c:	1b5b      	subs	r3, r3, r5
  40063e:	2b10      	cmp	r3, #16
  400640:	d815      	bhi.n	40066e <pvPortMalloc+0x96>
  400642:	6862      	ldr	r2, [r4, #4]
  400644:	4915      	ldr	r1, [pc, #84]	; (40069c <pvPortMalloc+0xc4>)
  400646:	680b      	ldr	r3, [r1, #0]
  400648:	1a9b      	subs	r3, r3, r2
  40064a:	600b      	str	r3, [r1, #0]
  40064c:	4917      	ldr	r1, [pc, #92]	; (4006ac <pvPortMalloc+0xd4>)
  40064e:	6809      	ldr	r1, [r1, #0]
  400650:	428b      	cmp	r3, r1
  400652:	d201      	bcs.n	400658 <pvPortMalloc+0x80>
  400654:	4915      	ldr	r1, [pc, #84]	; (4006ac <pvPortMalloc+0xd4>)
  400656:	600b      	str	r3, [r1, #0]
  400658:	4b0f      	ldr	r3, [pc, #60]	; (400698 <pvPortMalloc+0xc0>)
  40065a:	681b      	ldr	r3, [r3, #0]
  40065c:	4313      	orrs	r3, r2
  40065e:	6063      	str	r3, [r4, #4]
  400660:	2300      	movs	r3, #0
  400662:	6023      	str	r3, [r4, #0]
  400664:	4b12      	ldr	r3, [pc, #72]	; (4006b0 <pvPortMalloc+0xd8>)
  400666:	4798      	blx	r3
  400668:	b17e      	cbz	r6, 40068a <pvPortMalloc+0xb2>
  40066a:	4630      	mov	r0, r6
  40066c:	bd70      	pop	{r4, r5, r6, pc}
  40066e:	1960      	adds	r0, r4, r5
  400670:	6043      	str	r3, [r0, #4]
  400672:	6065      	str	r5, [r4, #4]
  400674:	4b0f      	ldr	r3, [pc, #60]	; (4006b4 <pvPortMalloc+0xdc>)
  400676:	4798      	blx	r3
  400678:	e7e3      	b.n	400642 <pvPortMalloc+0x6a>
  40067a:	2600      	movs	r6, #0
  40067c:	e7f2      	b.n	400664 <pvPortMalloc+0x8c>
  40067e:	2600      	movs	r6, #0
  400680:	e7f0      	b.n	400664 <pvPortMalloc+0x8c>
  400682:	2600      	movs	r6, #0
  400684:	e7ee      	b.n	400664 <pvPortMalloc+0x8c>
  400686:	2600      	movs	r6, #0
  400688:	e7ec      	b.n	400664 <pvPortMalloc+0x8c>
  40068a:	4b0b      	ldr	r3, [pc, #44]	; (4006b8 <pvPortMalloc+0xe0>)
  40068c:	4798      	blx	r3
  40068e:	e7ec      	b.n	40066a <pvPortMalloc+0x92>
  400690:	20000598 	.word	0x20000598
  400694:	004014c9 	.word	0x004014c9
  400698:	2000059c 	.word	0x2000059c
  40069c:	200005a0 	.word	0x200005a0
  4006a0:	200005a8 	.word	0x200005a8
  4006a4:	00402f2c 	.word	0x00402f2c
  4006a8:	00402b69 	.word	0x00402b69
  4006ac:	200005a4 	.word	0x200005a4
  4006b0:	00401609 	.word	0x00401609
  4006b4:	00400581 	.word	0x00400581
  4006b8:	00402b95 	.word	0x00402b95

004006bc <vPortFree>:
  4006bc:	2800      	cmp	r0, #0
  4006be:	d033      	beq.n	400728 <vPortFree+0x6c>
  4006c0:	b538      	push	{r3, r4, r5, lr}
  4006c2:	4604      	mov	r4, r0
  4006c4:	f1a0 0508 	sub.w	r5, r0, #8
  4006c8:	f850 2c04 	ldr.w	r2, [r0, #-4]
  4006cc:	4b17      	ldr	r3, [pc, #92]	; (40072c <vPortFree+0x70>)
  4006ce:	681b      	ldr	r3, [r3, #0]
  4006d0:	421a      	tst	r2, r3
  4006d2:	d011      	beq.n	4006f8 <vPortFree+0x3c>
  4006d4:	f854 3c08 	ldr.w	r3, [r4, #-8]
  4006d8:	b123      	cbz	r3, 4006e4 <vPortFree+0x28>
  4006da:	f44f 7190 	mov.w	r1, #288	; 0x120
  4006de:	4814      	ldr	r0, [pc, #80]	; (400730 <vPortFree+0x74>)
  4006e0:	4b14      	ldr	r3, [pc, #80]	; (400734 <vPortFree+0x78>)
  4006e2:	4798      	blx	r3
  4006e4:	f854 3c04 	ldr.w	r3, [r4, #-4]
  4006e8:	4a10      	ldr	r2, [pc, #64]	; (40072c <vPortFree+0x70>)
  4006ea:	6812      	ldr	r2, [r2, #0]
  4006ec:	4213      	tst	r3, r2
  4006ee:	d002      	beq.n	4006f6 <vPortFree+0x3a>
  4006f0:	f854 1c08 	ldr.w	r1, [r4, #-8]
  4006f4:	b131      	cbz	r1, 400704 <vPortFree+0x48>
  4006f6:	bd38      	pop	{r3, r4, r5, pc}
  4006f8:	f240 111f 	movw	r1, #287	; 0x11f
  4006fc:	480c      	ldr	r0, [pc, #48]	; (400730 <vPortFree+0x74>)
  4006fe:	4b0d      	ldr	r3, [pc, #52]	; (400734 <vPortFree+0x78>)
  400700:	4798      	blx	r3
  400702:	e7e7      	b.n	4006d4 <vPortFree+0x18>
  400704:	ea23 0302 	bic.w	r3, r3, r2
  400708:	f844 3c04 	str.w	r3, [r4, #-4]
  40070c:	4b0a      	ldr	r3, [pc, #40]	; (400738 <vPortFree+0x7c>)
  40070e:	4798      	blx	r3
  400710:	f854 1c04 	ldr.w	r1, [r4, #-4]
  400714:	4a09      	ldr	r2, [pc, #36]	; (40073c <vPortFree+0x80>)
  400716:	6813      	ldr	r3, [r2, #0]
  400718:	440b      	add	r3, r1
  40071a:	6013      	str	r3, [r2, #0]
  40071c:	4628      	mov	r0, r5
  40071e:	4b08      	ldr	r3, [pc, #32]	; (400740 <vPortFree+0x84>)
  400720:	4798      	blx	r3
  400722:	4b08      	ldr	r3, [pc, #32]	; (400744 <vPortFree+0x88>)
  400724:	4798      	blx	r3
  400726:	e7e6      	b.n	4006f6 <vPortFree+0x3a>
  400728:	4770      	bx	lr
  40072a:	bf00      	nop
  40072c:	2000059c 	.word	0x2000059c
  400730:	00402f2c 	.word	0x00402f2c
  400734:	00402b69 	.word	0x00402b69
  400738:	004014c9 	.word	0x004014c9
  40073c:	200005a0 	.word	0x200005a0
  400740:	00400581 	.word	0x00400581
  400744:	00401609 	.word	0x00401609

00400748 <vPortDefineHeapRegions>:
  400748:	e92d 41f0 	stmdb	sp!, {r4, r5, r6, r7, r8, lr}
  40074c:	4680      	mov	r8, r0
  40074e:	4b2c      	ldr	r3, [pc, #176]	; (400800 <vPortDefineHeapRegions+0xb8>)
  400750:	681b      	ldr	r3, [r3, #0]
  400752:	b123      	cbz	r3, 40075e <vPortDefineHeapRegions+0x16>
  400754:	f240 1193 	movw	r1, #403	; 0x193
  400758:	482a      	ldr	r0, [pc, #168]	; (400804 <vPortDefineHeapRegions+0xbc>)
  40075a:	4b2b      	ldr	r3, [pc, #172]	; (400808 <vPortDefineHeapRegions+0xc0>)
  40075c:	4798      	blx	r3
  40075e:	4643      	mov	r3, r8
  400760:	2600      	movs	r6, #0
  400762:	4637      	mov	r7, r6
  400764:	e01b      	b.n	40079e <vPortDefineHeapRegions+0x56>
  400766:	4b26      	ldr	r3, [pc, #152]	; (400800 <vPortDefineHeapRegions+0xb8>)
  400768:	681b      	ldr	r3, [r3, #0]
  40076a:	b35b      	cbz	r3, 4007c4 <vPortDefineHeapRegions+0x7c>
  40076c:	4b24      	ldr	r3, [pc, #144]	; (400800 <vPortDefineHeapRegions+0xb8>)
  40076e:	681b      	ldr	r3, [r3, #0]
  400770:	429d      	cmp	r5, r3
  400772:	d92d      	bls.n	4007d0 <vPortDefineHeapRegions+0x88>
  400774:	4a22      	ldr	r2, [pc, #136]	; (400800 <vPortDefineHeapRegions+0xb8>)
  400776:	6811      	ldr	r1, [r2, #0]
  400778:	1963      	adds	r3, r4, r5
  40077a:	3b08      	subs	r3, #8
  40077c:	f023 0307 	bic.w	r3, r3, #7
  400780:	6013      	str	r3, [r2, #0]
  400782:	2200      	movs	r2, #0
  400784:	605a      	str	r2, [r3, #4]
  400786:	601a      	str	r2, [r3, #0]
  400788:	462a      	mov	r2, r5
  40078a:	1b58      	subs	r0, r3, r5
  40078c:	6068      	str	r0, [r5, #4]
  40078e:	602b      	str	r3, [r5, #0]
  400790:	b101      	cbz	r1, 400794 <vPortDefineHeapRegions+0x4c>
  400792:	600d      	str	r5, [r1, #0]
  400794:	6853      	ldr	r3, [r2, #4]
  400796:	441f      	add	r7, r3
  400798:	3601      	adds	r6, #1
  40079a:	eb08 03c6 	add.w	r3, r8, r6, lsl #3
  40079e:	685c      	ldr	r4, [r3, #4]
  4007a0:	b1e4      	cbz	r4, 4007dc <vPortDefineHeapRegions+0x94>
  4007a2:	681d      	ldr	r5, [r3, #0]
  4007a4:	f015 0f07 	tst.w	r5, #7
  4007a8:	d005      	beq.n	4007b6 <vPortDefineHeapRegions+0x6e>
  4007aa:	1deb      	adds	r3, r5, #7
  4007ac:	f023 0307 	bic.w	r3, r3, #7
  4007b0:	1aed      	subs	r5, r5, r3
  4007b2:	442c      	add	r4, r5
  4007b4:	461d      	mov	r5, r3
  4007b6:	2e00      	cmp	r6, #0
  4007b8:	d1d5      	bne.n	400766 <vPortDefineHeapRegions+0x1e>
  4007ba:	4b14      	ldr	r3, [pc, #80]	; (40080c <vPortDefineHeapRegions+0xc4>)
  4007bc:	601d      	str	r5, [r3, #0]
  4007be:	2200      	movs	r2, #0
  4007c0:	605a      	str	r2, [r3, #4]
  4007c2:	e7d7      	b.n	400774 <vPortDefineHeapRegions+0x2c>
  4007c4:	f44f 71da 	mov.w	r1, #436	; 0x1b4
  4007c8:	480e      	ldr	r0, [pc, #56]	; (400804 <vPortDefineHeapRegions+0xbc>)
  4007ca:	4b0f      	ldr	r3, [pc, #60]	; (400808 <vPortDefineHeapRegions+0xc0>)
  4007cc:	4798      	blx	r3
  4007ce:	e7cd      	b.n	40076c <vPortDefineHeapRegions+0x24>
  4007d0:	f240 11b7 	movw	r1, #439	; 0x1b7
  4007d4:	480b      	ldr	r0, [pc, #44]	; (400804 <vPortDefineHeapRegions+0xbc>)
  4007d6:	4b0c      	ldr	r3, [pc, #48]	; (400808 <vPortDefineHeapRegions+0xc0>)
  4007d8:	4798      	blx	r3
  4007da:	e7cb      	b.n	400774 <vPortDefineHeapRegions+0x2c>
  4007dc:	4b0c      	ldr	r3, [pc, #48]	; (400810 <vPortDefineHeapRegions+0xc8>)
  4007de:	601f      	str	r7, [r3, #0]
  4007e0:	4b0c      	ldr	r3, [pc, #48]	; (400814 <vPortDefineHeapRegions+0xcc>)
  4007e2:	601f      	str	r7, [r3, #0]
  4007e4:	b12f      	cbz	r7, 4007f2 <vPortDefineHeapRegions+0xaa>
  4007e6:	f04f 4200 	mov.w	r2, #2147483648	; 0x80000000
  4007ea:	4b0b      	ldr	r3, [pc, #44]	; (400818 <vPortDefineHeapRegions+0xd0>)
  4007ec:	601a      	str	r2, [r3, #0]
  4007ee:	e8bd 81f0 	ldmia.w	sp!, {r4, r5, r6, r7, r8, pc}
  4007f2:	f44f 71f0 	mov.w	r1, #480	; 0x1e0
  4007f6:	4803      	ldr	r0, [pc, #12]	; (400804 <vPortDefineHeapRegions+0xbc>)
  4007f8:	4b03      	ldr	r3, [pc, #12]	; (400808 <vPortDefineHeapRegions+0xc0>)
  4007fa:	4798      	blx	r3
  4007fc:	e7f3      	b.n	4007e6 <vPortDefineHeapRegions+0x9e>
  4007fe:	bf00      	nop
  400800:	20000598 	.word	0x20000598
  400804:	00402f2c 	.word	0x00402f2c
  400808:	00402b69 	.word	0x00402b69
  40080c:	200005a8 	.word	0x200005a8
  400810:	200005a4 	.word	0x200005a4
  400814:	200005a0 	.word	0x200005a0
  400818:	2000059c 	.word	0x2000059c

0040081c <prvIsQueueFull>:
  40081c:	b510      	push	{r4, lr}
  40081e:	4604      	mov	r4, r0
  400820:	4b06      	ldr	r3, [pc, #24]	; (40083c <prvIsQueueFull+0x20>)
  400822:	4798      	blx	r3
  400824:	6ba2      	ldr	r2, [r4, #56]	; 0x38
  400826:	6be3      	ldr	r3, [r4, #60]	; 0x3c
  400828:	429a      	cmp	r2, r3
  40082a:	d004      	beq.n	400836 <prvIsQueueFull+0x1a>
  40082c:	2400      	movs	r4, #0
  40082e:	4b04      	ldr	r3, [pc, #16]	; (400840 <prvIsQueueFull+0x24>)
  400830:	4798      	blx	r3
  400832:	4620      	mov	r0, r4
  400834:	bd10      	pop	{r4, pc}
  400836:	2401      	movs	r4, #1
  400838:	e7f9      	b.n	40082e <prvIsQueueFull+0x12>
  40083a:	bf00      	nop
  40083c:	004002c5 	.word	0x004002c5
  400840:	0040030d 	.word	0x0040030d

00400844 <prvIsQueueEmpty>:
  400844:	b510      	push	{r4, lr}
  400846:	4604      	mov	r4, r0
  400848:	4b05      	ldr	r3, [pc, #20]	; (400860 <prvIsQueueEmpty+0x1c>)
  40084a:	4798      	blx	r3
  40084c:	6ba3      	ldr	r3, [r4, #56]	; 0x38
  40084e:	b123      	cbz	r3, 40085a <prvIsQueueEmpty+0x16>
  400850:	2400      	movs	r4, #0
  400852:	4b04      	ldr	r3, [pc, #16]	; (400864 <prvIsQueueEmpty+0x20>)
  400854:	4798      	blx	r3
  400856:	4620      	mov	r0, r4
  400858:	bd10      	pop	{r4, pc}
  40085a:	2401      	movs	r4, #1
  40085c:	e7f9      	b.n	400852 <prvIsQueueEmpty+0xe>
  40085e:	bf00      	nop
  400860:	004002c5 	.word	0x004002c5
  400864:	0040030d 	.word	0x0040030d

00400868 <prvCopyDataToQueue>:
  400868:	b570      	push	{r4, r5, r6, lr}
  40086a:	4604      	mov	r4, r0
  40086c:	4616      	mov	r6, r2
  40086e:	6b85      	ldr	r5, [r0, #56]	; 0x38
  400870:	6c02      	ldr	r2, [r0, #64]	; 0x40
  400872:	b95a      	cbnz	r2, 40088c <prvCopyDataToQueue+0x24>
  400874:	6803      	ldr	r3, [r0, #0]
  400876:	b11b      	cbz	r3, 400880 <prvCopyDataToQueue+0x18>
  400878:	2000      	movs	r0, #0
  40087a:	3501      	adds	r5, #1
  40087c:	63a5      	str	r5, [r4, #56]	; 0x38
  40087e:	bd70      	pop	{r4, r5, r6, pc}
  400880:	6880      	ldr	r0, [r0, #8]
  400882:	4b17      	ldr	r3, [pc, #92]	; (4008e0 <prvCopyDataToQueue+0x78>)
  400884:	4798      	blx	r3
  400886:	2300      	movs	r3, #0
  400888:	60a3      	str	r3, [r4, #8]
  40088a:	e7f6      	b.n	40087a <prvCopyDataToQueue+0x12>
  40088c:	b96e      	cbnz	r6, 4008aa <prvCopyDataToQueue+0x42>
  40088e:	6840      	ldr	r0, [r0, #4]
  400890:	4b14      	ldr	r3, [pc, #80]	; (4008e4 <prvCopyDataToQueue+0x7c>)
  400892:	4798      	blx	r3
  400894:	6c22      	ldr	r2, [r4, #64]	; 0x40
  400896:	6863      	ldr	r3, [r4, #4]
  400898:	4413      	add	r3, r2
  40089a:	6063      	str	r3, [r4, #4]
  40089c:	68a2      	ldr	r2, [r4, #8]
  40089e:	4293      	cmp	r3, r2
  4008a0:	d319      	bcc.n	4008d6 <prvCopyDataToQueue+0x6e>
  4008a2:	6823      	ldr	r3, [r4, #0]
  4008a4:	6063      	str	r3, [r4, #4]
  4008a6:	2000      	movs	r0, #0
  4008a8:	e7e7      	b.n	40087a <prvCopyDataToQueue+0x12>
  4008aa:	68c0      	ldr	r0, [r0, #12]
  4008ac:	4b0d      	ldr	r3, [pc, #52]	; (4008e4 <prvCopyDataToQueue+0x7c>)
  4008ae:	4798      	blx	r3
  4008b0:	6c22      	ldr	r2, [r4, #64]	; 0x40
  4008b2:	4252      	negs	r2, r2
  4008b4:	68e3      	ldr	r3, [r4, #12]
  4008b6:	4413      	add	r3, r2
  4008b8:	60e3      	str	r3, [r4, #12]
  4008ba:	6821      	ldr	r1, [r4, #0]
  4008bc:	428b      	cmp	r3, r1
  4008be:	d202      	bcs.n	4008c6 <prvCopyDataToQueue+0x5e>
  4008c0:	68a3      	ldr	r3, [r4, #8]
  4008c2:	441a      	add	r2, r3
  4008c4:	60e2      	str	r2, [r4, #12]
  4008c6:	2e02      	cmp	r6, #2
  4008c8:	d001      	beq.n	4008ce <prvCopyDataToQueue+0x66>
  4008ca:	2000      	movs	r0, #0
  4008cc:	e7d5      	b.n	40087a <prvCopyDataToQueue+0x12>
  4008ce:	b125      	cbz	r5, 4008da <prvCopyDataToQueue+0x72>
  4008d0:	3d01      	subs	r5, #1
  4008d2:	2000      	movs	r0, #0
  4008d4:	e7d1      	b.n	40087a <prvCopyDataToQueue+0x12>
  4008d6:	2000      	movs	r0, #0
  4008d8:	e7cf      	b.n	40087a <prvCopyDataToQueue+0x12>
  4008da:	2000      	movs	r0, #0
  4008dc:	e7cd      	b.n	40087a <prvCopyDataToQueue+0x12>
  4008de:	bf00      	nop
  4008e0:	00401b3d 	.word	0x00401b3d
  4008e4:	00402c0d 	.word	0x00402c0d

004008e8 <prvNotifyQueueSetContainer>:
  4008e8:	b570      	push	{r4, r5, r6, lr}
  4008ea:	b082      	sub	sp, #8
  4008ec:	9001      	str	r0, [sp, #4]
  4008ee:	460e      	mov	r6, r1
  4008f0:	6c84      	ldr	r4, [r0, #72]	; 0x48
  4008f2:	b15c      	cbz	r4, 40090c <prvNotifyQueueSetContainer+0x24>
  4008f4:	6ba2      	ldr	r2, [r4, #56]	; 0x38
  4008f6:	6be3      	ldr	r3, [r4, #60]	; 0x3c
  4008f8:	429a      	cmp	r2, r3
  4008fa:	d20d      	bcs.n	400918 <prvNotifyQueueSetContainer+0x30>
  4008fc:	6ba2      	ldr	r2, [r4, #56]	; 0x38
  4008fe:	6be3      	ldr	r3, [r4, #60]	; 0x3c
  400900:	429a      	cmp	r2, r3
  400902:	d30f      	bcc.n	400924 <prvNotifyQueueSetContainer+0x3c>
  400904:	2600      	movs	r6, #0
  400906:	4630      	mov	r0, r6
  400908:	b002      	add	sp, #8
  40090a:	bd70      	pop	{r4, r5, r6, pc}
  40090c:	f640 3145 	movw	r1, #2885	; 0xb45
  400910:	4812      	ldr	r0, [pc, #72]	; (40095c <prvNotifyQueueSetContainer+0x74>)
  400912:	4b13      	ldr	r3, [pc, #76]	; (400960 <prvNotifyQueueSetContainer+0x78>)
  400914:	4798      	blx	r3
  400916:	e7ed      	b.n	4008f4 <prvNotifyQueueSetContainer+0xc>
  400918:	f640 3146 	movw	r1, #2886	; 0xb46
  40091c:	480f      	ldr	r0, [pc, #60]	; (40095c <prvNotifyQueueSetContainer+0x74>)
  40091e:	4b10      	ldr	r3, [pc, #64]	; (400960 <prvNotifyQueueSetContainer+0x78>)
  400920:	4798      	blx	r3
  400922:	e7eb      	b.n	4008fc <prvNotifyQueueSetContainer+0x14>
  400924:	f894 5045 	ldrb.w	r5, [r4, #69]	; 0x45
  400928:	b26d      	sxtb	r5, r5
  40092a:	4632      	mov	r2, r6
  40092c:	a901      	add	r1, sp, #4
  40092e:	4620      	mov	r0, r4
  400930:	4b0c      	ldr	r3, [pc, #48]	; (400964 <prvNotifyQueueSetContainer+0x7c>)
  400932:	4798      	blx	r3
  400934:	4606      	mov	r6, r0
  400936:	f1b5 3fff 	cmp.w	r5, #4294967295
  40093a:	d004      	beq.n	400946 <prvNotifyQueueSetContainer+0x5e>
  40093c:	3501      	adds	r5, #1
  40093e:	b26d      	sxtb	r5, r5
  400940:	f884 5045 	strb.w	r5, [r4, #69]	; 0x45
  400944:	e7df      	b.n	400906 <prvNotifyQueueSetContainer+0x1e>
  400946:	6a63      	ldr	r3, [r4, #36]	; 0x24
  400948:	2b00      	cmp	r3, #0
  40094a:	d0dc      	beq.n	400906 <prvNotifyQueueSetContainer+0x1e>
  40094c:	f104 0024 	add.w	r0, r4, #36	; 0x24
  400950:	4b05      	ldr	r3, [pc, #20]	; (400968 <prvNotifyQueueSetContainer+0x80>)
  400952:	4798      	blx	r3
  400954:	2800      	cmp	r0, #0
  400956:	d0d6      	beq.n	400906 <prvNotifyQueueSetContainer+0x1e>
  400958:	2601      	movs	r6, #1
  40095a:	e7d4      	b.n	400906 <prvNotifyQueueSetContainer+0x1e>
  40095c:	00402f58 	.word	0x00402f58
  400960:	00402b69 	.word	0x00402b69
  400964:	00400869 	.word	0x00400869
  400968:	004019dd 	.word	0x004019dd

0040096c <prvCopyDataFromQueue>:
  40096c:	6c02      	ldr	r2, [r0, #64]	; 0x40
  40096e:	b172      	cbz	r2, 40098e <prvCopyDataFromQueue+0x22>
  400970:	b510      	push	{r4, lr}
  400972:	68c3      	ldr	r3, [r0, #12]
  400974:	4413      	add	r3, r2
  400976:	60c3      	str	r3, [r0, #12]
  400978:	6884      	ldr	r4, [r0, #8]
  40097a:	42a3      	cmp	r3, r4
  40097c:	d301      	bcc.n	400982 <prvCopyDataFromQueue+0x16>
  40097e:	6803      	ldr	r3, [r0, #0]
  400980:	60c3      	str	r3, [r0, #12]
  400982:	460c      	mov	r4, r1
  400984:	68c1      	ldr	r1, [r0, #12]
  400986:	4620      	mov	r0, r4
  400988:	4b01      	ldr	r3, [pc, #4]	; (400990 <prvCopyDataFromQueue+0x24>)
  40098a:	4798      	blx	r3
  40098c:	bd10      	pop	{r4, pc}
  40098e:	4770      	bx	lr
  400990:	00402c0d 	.word	0x00402c0d

00400994 <prvUnlockQueue>:
  400994:	b538      	push	{r3, r4, r5, lr}
  400996:	4605      	mov	r5, r0
  400998:	4b1f      	ldr	r3, [pc, #124]	; (400a18 <prvUnlockQueue+0x84>)
  40099a:	4798      	blx	r3
  40099c:	f895 4045 	ldrb.w	r4, [r5, #69]	; 0x45
  4009a0:	b264      	sxtb	r4, r4
  4009a2:	e008      	b.n	4009b6 <prvUnlockQueue+0x22>
  4009a4:	6a6b      	ldr	r3, [r5, #36]	; 0x24
  4009a6:	b1bb      	cbz	r3, 4009d8 <prvUnlockQueue+0x44>
  4009a8:	f105 0024 	add.w	r0, r5, #36	; 0x24
  4009ac:	4b1b      	ldr	r3, [pc, #108]	; (400a1c <prvUnlockQueue+0x88>)
  4009ae:	4798      	blx	r3
  4009b0:	b978      	cbnz	r0, 4009d2 <prvUnlockQueue+0x3e>
  4009b2:	3c01      	subs	r4, #1
  4009b4:	b264      	sxtb	r4, r4
  4009b6:	2c00      	cmp	r4, #0
  4009b8:	dd0e      	ble.n	4009d8 <prvUnlockQueue+0x44>
  4009ba:	6cab      	ldr	r3, [r5, #72]	; 0x48
  4009bc:	2b00      	cmp	r3, #0
  4009be:	d0f1      	beq.n	4009a4 <prvUnlockQueue+0x10>
  4009c0:	2100      	movs	r1, #0
  4009c2:	4628      	mov	r0, r5
  4009c4:	4b16      	ldr	r3, [pc, #88]	; (400a20 <prvUnlockQueue+0x8c>)
  4009c6:	4798      	blx	r3
  4009c8:	2800      	cmp	r0, #0
  4009ca:	d0f2      	beq.n	4009b2 <prvUnlockQueue+0x1e>
  4009cc:	4b15      	ldr	r3, [pc, #84]	; (400a24 <prvUnlockQueue+0x90>)
  4009ce:	4798      	blx	r3
  4009d0:	e7ef      	b.n	4009b2 <prvUnlockQueue+0x1e>
  4009d2:	4b14      	ldr	r3, [pc, #80]	; (400a24 <prvUnlockQueue+0x90>)
  4009d4:	4798      	blx	r3
  4009d6:	e7ec      	b.n	4009b2 <prvUnlockQueue+0x1e>
  4009d8:	23ff      	movs	r3, #255	; 0xff
  4009da:	f885 3045 	strb.w	r3, [r5, #69]	; 0x45
  4009de:	4b12      	ldr	r3, [pc, #72]	; (400a28 <prvUnlockQueue+0x94>)
  4009e0:	4798      	blx	r3
  4009e2:	4b0d      	ldr	r3, [pc, #52]	; (400a18 <prvUnlockQueue+0x84>)
  4009e4:	4798      	blx	r3
  4009e6:	f895 4044 	ldrb.w	r4, [r5, #68]	; 0x44
  4009ea:	b264      	sxtb	r4, r4
  4009ec:	e001      	b.n	4009f2 <prvUnlockQueue+0x5e>
  4009ee:	3c01      	subs	r4, #1
  4009f0:	b264      	sxtb	r4, r4
  4009f2:	2c00      	cmp	r4, #0
  4009f4:	dd0a      	ble.n	400a0c <prvUnlockQueue+0x78>
  4009f6:	692b      	ldr	r3, [r5, #16]
  4009f8:	b143      	cbz	r3, 400a0c <prvUnlockQueue+0x78>
  4009fa:	f105 0010 	add.w	r0, r5, #16
  4009fe:	4b07      	ldr	r3, [pc, #28]	; (400a1c <prvUnlockQueue+0x88>)
  400a00:	4798      	blx	r3
  400a02:	2800      	cmp	r0, #0
  400a04:	d0f3      	beq.n	4009ee <prvUnlockQueue+0x5a>
  400a06:	4b07      	ldr	r3, [pc, #28]	; (400a24 <prvUnlockQueue+0x90>)
  400a08:	4798      	blx	r3
  400a0a:	e7f0      	b.n	4009ee <prvUnlockQueue+0x5a>
  400a0c:	23ff      	movs	r3, #255	; 0xff
  400a0e:	f885 3044 	strb.w	r3, [r5, #68]	; 0x44
  400a12:	4b05      	ldr	r3, [pc, #20]	; (400a28 <prvUnlockQueue+0x94>)
  400a14:	4798      	blx	r3
  400a16:	bd38      	pop	{r3, r4, r5, pc}
  400a18:	004002c5 	.word	0x004002c5
  400a1c:	004019dd 	.word	0x004019dd
  400a20:	004008e9 	.word	0x004008e9
  400a24:	00401b11 	.word	0x00401b11
  400a28:	0040030d 	.word	0x0040030d

00400a2c <xQueueGenericReset>:
  400a2c:	b538      	push	{r3, r4, r5, lr}
  400a2e:	460d      	mov	r5, r1
  400a30:	4604      	mov	r4, r0
  400a32:	b1d0      	cbz	r0, 400a6a <xQueueGenericReset+0x3e>
  400a34:	4b1b      	ldr	r3, [pc, #108]	; (400aa4 <xQueueGenericReset+0x78>)
  400a36:	4798      	blx	r3
  400a38:	6821      	ldr	r1, [r4, #0]
  400a3a:	6be2      	ldr	r2, [r4, #60]	; 0x3c
  400a3c:	6c23      	ldr	r3, [r4, #64]	; 0x40
  400a3e:	fb03 1002 	mla	r0, r3, r2, r1
  400a42:	60a0      	str	r0, [r4, #8]
  400a44:	2000      	movs	r0, #0
  400a46:	63a0      	str	r0, [r4, #56]	; 0x38
  400a48:	6061      	str	r1, [r4, #4]
  400a4a:	3a01      	subs	r2, #1
  400a4c:	fb02 1303 	mla	r3, r2, r3, r1
  400a50:	60e3      	str	r3, [r4, #12]
  400a52:	23ff      	movs	r3, #255	; 0xff
  400a54:	f884 3044 	strb.w	r3, [r4, #68]	; 0x44
  400a58:	f884 3045 	strb.w	r3, [r4, #69]	; 0x45
  400a5c:	b9d5      	cbnz	r5, 400a94 <xQueueGenericReset+0x68>
  400a5e:	6923      	ldr	r3, [r4, #16]
  400a60:	b94b      	cbnz	r3, 400a76 <xQueueGenericReset+0x4a>
  400a62:	4b11      	ldr	r3, [pc, #68]	; (400aa8 <xQueueGenericReset+0x7c>)
  400a64:	4798      	blx	r3
  400a66:	2001      	movs	r0, #1
  400a68:	bd38      	pop	{r3, r4, r5, pc}
  400a6a:	f240 1103 	movw	r1, #259	; 0x103
  400a6e:	480f      	ldr	r0, [pc, #60]	; (400aac <xQueueGenericReset+0x80>)
  400a70:	4b0f      	ldr	r3, [pc, #60]	; (400ab0 <xQueueGenericReset+0x84>)
  400a72:	4798      	blx	r3
  400a74:	e7de      	b.n	400a34 <xQueueGenericReset+0x8>
  400a76:	f104 0010 	add.w	r0, r4, #16
  400a7a:	4b0e      	ldr	r3, [pc, #56]	; (400ab4 <xQueueGenericReset+0x88>)
  400a7c:	4798      	blx	r3
  400a7e:	2800      	cmp	r0, #0
  400a80:	d0ef      	beq.n	400a62 <xQueueGenericReset+0x36>
  400a82:	f04f 5280 	mov.w	r2, #268435456	; 0x10000000
  400a86:	4b0c      	ldr	r3, [pc, #48]	; (400ab8 <xQueueGenericReset+0x8c>)
  400a88:	601a      	str	r2, [r3, #0]
  400a8a:	f3bf 8f4f 	dsb	sy
  400a8e:	f3bf 8f6f 	isb	sy
  400a92:	e7e6      	b.n	400a62 <xQueueGenericReset+0x36>
  400a94:	f104 0010 	add.w	r0, r4, #16
  400a98:	4d08      	ldr	r5, [pc, #32]	; (400abc <xQueueGenericReset+0x90>)
  400a9a:	47a8      	blx	r5
  400a9c:	f104 0024 	add.w	r0, r4, #36	; 0x24
  400aa0:	47a8      	blx	r5
  400aa2:	e7de      	b.n	400a62 <xQueueGenericReset+0x36>
  400aa4:	004002c5 	.word	0x004002c5
  400aa8:	0040030d 	.word	0x0040030d
  400aac:	00402f58 	.word	0x00402f58
  400ab0:	00402b69 	.word	0x00402b69
  400ab4:	004019dd 	.word	0x004019dd
  400ab8:	e000ed04 	.word	0xe000ed04
  400abc:	00400165 	.word	0x00400165

00400ac0 <prvInitialiseNewQueue>:
  400ac0:	b510      	push	{r4, lr}
  400ac2:	9c02      	ldr	r4, [sp, #8]
  400ac4:	460b      	mov	r3, r1
  400ac6:	b149      	cbz	r1, 400adc <prvInitialiseNewQueue+0x1c>
  400ac8:	6022      	str	r2, [r4, #0]
  400aca:	63e0      	str	r0, [r4, #60]	; 0x3c
  400acc:	6423      	str	r3, [r4, #64]	; 0x40
  400ace:	2101      	movs	r1, #1
  400ad0:	4620      	mov	r0, r4
  400ad2:	4b03      	ldr	r3, [pc, #12]	; (400ae0 <prvInitialiseNewQueue+0x20>)
  400ad4:	4798      	blx	r3
  400ad6:	2300      	movs	r3, #0
  400ad8:	64a3      	str	r3, [r4, #72]	; 0x48
  400ada:	bd10      	pop	{r4, pc}
  400adc:	6024      	str	r4, [r4, #0]
  400ade:	e7f4      	b.n	400aca <prvInitialiseNewQueue+0xa>
  400ae0:	00400a2d 	.word	0x00400a2d

00400ae4 <xQueueGenericCreate>:
  400ae4:	b5f0      	push	{r4, r5, r6, r7, lr}
  400ae6:	b083      	sub	sp, #12
  400ae8:	460d      	mov	r5, r1
  400aea:	4617      	mov	r7, r2
  400aec:	4606      	mov	r6, r0
  400aee:	b190      	cbz	r0, 400b16 <xQueueGenericCreate+0x32>
  400af0:	b1bd      	cbz	r5, 400b22 <xQueueGenericCreate+0x3e>
  400af2:	fb05 f006 	mul.w	r0, r5, r6
  400af6:	304c      	adds	r0, #76	; 0x4c
  400af8:	4b0b      	ldr	r3, [pc, #44]	; (400b28 <xQueueGenericCreate+0x44>)
  400afa:	4798      	blx	r3
  400afc:	4604      	mov	r4, r0
  400afe:	b138      	cbz	r0, 400b10 <xQueueGenericCreate+0x2c>
  400b00:	9000      	str	r0, [sp, #0]
  400b02:	463b      	mov	r3, r7
  400b04:	f100 024c 	add.w	r2, r0, #76	; 0x4c
  400b08:	4629      	mov	r1, r5
  400b0a:	4630      	mov	r0, r6
  400b0c:	4d07      	ldr	r5, [pc, #28]	; (400b2c <xQueueGenericCreate+0x48>)
  400b0e:	47a8      	blx	r5
  400b10:	4620      	mov	r0, r4
  400b12:	b003      	add	sp, #12
  400b14:	bdf0      	pop	{r4, r5, r6, r7, pc}
  400b16:	f44f 71bb 	mov.w	r1, #374	; 0x176
  400b1a:	4805      	ldr	r0, [pc, #20]	; (400b30 <xQueueGenericCreate+0x4c>)
  400b1c:	4b05      	ldr	r3, [pc, #20]	; (400b34 <xQueueGenericCreate+0x50>)
  400b1e:	4798      	blx	r3
  400b20:	e7e6      	b.n	400af0 <xQueueGenericCreate+0xc>
  400b22:	2000      	movs	r0, #0
  400b24:	e7e7      	b.n	400af6 <xQueueGenericCreate+0x12>
  400b26:	bf00      	nop
  400b28:	004005d9 	.word	0x004005d9
  400b2c:	00400ac1 	.word	0x00400ac1
  400b30:	00402f58 	.word	0x00402f58
  400b34:	00402b69 	.word	0x00402b69

00400b38 <xQueueGenericSend>:
  400b38:	b5f0      	push	{r4, r5, r6, r7, lr}
  400b3a:	b085      	sub	sp, #20
  400b3c:	460f      	mov	r7, r1
  400b3e:	9201      	str	r2, [sp, #4]
  400b40:	461e      	mov	r6, r3
  400b42:	4604      	mov	r4, r0
  400b44:	b168      	cbz	r0, 400b62 <xQueueGenericSend+0x2a>
  400b46:	b197      	cbz	r7, 400b6e <xQueueGenericSend+0x36>
  400b48:	2301      	movs	r3, #1
  400b4a:	b1b3      	cbz	r3, 400b7a <xQueueGenericSend+0x42>
  400b4c:	2e02      	cmp	r6, #2
  400b4e:	d01a      	beq.n	400b86 <xQueueGenericSend+0x4e>
  400b50:	2301      	movs	r3, #1
  400b52:	b1eb      	cbz	r3, 400b90 <xQueueGenericSend+0x58>
  400b54:	4b63      	ldr	r3, [pc, #396]	; (400ce4 <xQueueGenericSend+0x1ac>)
  400b56:	4798      	blx	r3
  400b58:	bb00      	cbnz	r0, 400b9c <xQueueGenericSend+0x64>
  400b5a:	9b01      	ldr	r3, [sp, #4]
  400b5c:	bb13      	cbnz	r3, 400ba4 <xQueueGenericSend+0x6c>
  400b5e:	2301      	movs	r3, #1
  400b60:	e01d      	b.n	400b9e <xQueueGenericSend+0x66>
  400b62:	f240 21f1 	movw	r1, #753	; 0x2f1
  400b66:	4860      	ldr	r0, [pc, #384]	; (400ce8 <xQueueGenericSend+0x1b0>)
  400b68:	4b60      	ldr	r3, [pc, #384]	; (400cec <xQueueGenericSend+0x1b4>)
  400b6a:	4798      	blx	r3
  400b6c:	e7eb      	b.n	400b46 <xQueueGenericSend+0xe>
  400b6e:	6c23      	ldr	r3, [r4, #64]	; 0x40
  400b70:	b90b      	cbnz	r3, 400b76 <xQueueGenericSend+0x3e>
  400b72:	2301      	movs	r3, #1
  400b74:	e7e9      	b.n	400b4a <xQueueGenericSend+0x12>
  400b76:	2300      	movs	r3, #0
  400b78:	e7e7      	b.n	400b4a <xQueueGenericSend+0x12>
  400b7a:	f240 21f2 	movw	r1, #754	; 0x2f2
  400b7e:	485a      	ldr	r0, [pc, #360]	; (400ce8 <xQueueGenericSend+0x1b0>)
  400b80:	4b5a      	ldr	r3, [pc, #360]	; (400cec <xQueueGenericSend+0x1b4>)
  400b82:	4798      	blx	r3
  400b84:	e7e2      	b.n	400b4c <xQueueGenericSend+0x14>
  400b86:	6be3      	ldr	r3, [r4, #60]	; 0x3c
  400b88:	2b01      	cmp	r3, #1
  400b8a:	d0e2      	beq.n	400b52 <xQueueGenericSend+0x1a>
  400b8c:	2300      	movs	r3, #0
  400b8e:	e7e0      	b.n	400b52 <xQueueGenericSend+0x1a>
  400b90:	f240 21f3 	movw	r1, #755	; 0x2f3
  400b94:	4854      	ldr	r0, [pc, #336]	; (400ce8 <xQueueGenericSend+0x1b0>)
  400b96:	4b55      	ldr	r3, [pc, #340]	; (400cec <xQueueGenericSend+0x1b4>)
  400b98:	4798      	blx	r3
  400b9a:	e7db      	b.n	400b54 <xQueueGenericSend+0x1c>
  400b9c:	2301      	movs	r3, #1
  400b9e:	b11b      	cbz	r3, 400ba8 <xQueueGenericSend+0x70>
  400ba0:	2500      	movs	r5, #0
  400ba2:	e058      	b.n	400c56 <xQueueGenericSend+0x11e>
  400ba4:	2300      	movs	r3, #0
  400ba6:	e7fa      	b.n	400b9e <xQueueGenericSend+0x66>
  400ba8:	f240 21f6 	movw	r1, #758	; 0x2f6
  400bac:	484e      	ldr	r0, [pc, #312]	; (400ce8 <xQueueGenericSend+0x1b0>)
  400bae:	4b4f      	ldr	r3, [pc, #316]	; (400cec <xQueueGenericSend+0x1b4>)
  400bb0:	4798      	blx	r3
  400bb2:	e7f5      	b.n	400ba0 <xQueueGenericSend+0x68>
  400bb4:	6ba5      	ldr	r5, [r4, #56]	; 0x38
  400bb6:	4632      	mov	r2, r6
  400bb8:	4639      	mov	r1, r7
  400bba:	4620      	mov	r0, r4
  400bbc:	4b4c      	ldr	r3, [pc, #304]	; (400cf0 <xQueueGenericSend+0x1b8>)
  400bbe:	4798      	blx	r3
  400bc0:	6ca3      	ldr	r3, [r4, #72]	; 0x48
  400bc2:	b1b3      	cbz	r3, 400bf2 <xQueueGenericSend+0xba>
  400bc4:	2e02      	cmp	r6, #2
  400bc6:	d011      	beq.n	400bec <xQueueGenericSend+0xb4>
  400bc8:	4631      	mov	r1, r6
  400bca:	4620      	mov	r0, r4
  400bcc:	4b49      	ldr	r3, [pc, #292]	; (400cf4 <xQueueGenericSend+0x1bc>)
  400bce:	4798      	blx	r3
  400bd0:	b138      	cbz	r0, 400be2 <xQueueGenericSend+0xaa>
  400bd2:	f04f 5280 	mov.w	r2, #268435456	; 0x10000000
  400bd6:	4b48      	ldr	r3, [pc, #288]	; (400cf8 <xQueueGenericSend+0x1c0>)
  400bd8:	601a      	str	r2, [r3, #0]
  400bda:	f3bf 8f4f 	dsb	sy
  400bde:	f3bf 8f6f 	isb	sy
  400be2:	4b46      	ldr	r3, [pc, #280]	; (400cfc <xQueueGenericSend+0x1c4>)
  400be4:	4798      	blx	r3
  400be6:	2001      	movs	r0, #1
  400be8:	b005      	add	sp, #20
  400bea:	bdf0      	pop	{r4, r5, r6, r7, pc}
  400bec:	2d00      	cmp	r5, #0
  400bee:	d0eb      	beq.n	400bc8 <xQueueGenericSend+0x90>
  400bf0:	e7f7      	b.n	400be2 <xQueueGenericSend+0xaa>
  400bf2:	6a63      	ldr	r3, [r4, #36]	; 0x24
  400bf4:	b953      	cbnz	r3, 400c0c <xQueueGenericSend+0xd4>
  400bf6:	2800      	cmp	r0, #0
  400bf8:	d0f3      	beq.n	400be2 <xQueueGenericSend+0xaa>
  400bfa:	f04f 5280 	mov.w	r2, #268435456	; 0x10000000
  400bfe:	4b3e      	ldr	r3, [pc, #248]	; (400cf8 <xQueueGenericSend+0x1c0>)
  400c00:	601a      	str	r2, [r3, #0]
  400c02:	f3bf 8f4f 	dsb	sy
  400c06:	f3bf 8f6f 	isb	sy
  400c0a:	e7ea      	b.n	400be2 <xQueueGenericSend+0xaa>
  400c0c:	f104 0024 	add.w	r0, r4, #36	; 0x24
  400c10:	4b3b      	ldr	r3, [pc, #236]	; (400d00 <xQueueGenericSend+0x1c8>)
  400c12:	4798      	blx	r3
  400c14:	2800      	cmp	r0, #0
  400c16:	d0e4      	beq.n	400be2 <xQueueGenericSend+0xaa>
  400c18:	f04f 5280 	mov.w	r2, #268435456	; 0x10000000
  400c1c:	4b36      	ldr	r3, [pc, #216]	; (400cf8 <xQueueGenericSend+0x1c0>)
  400c1e:	601a      	str	r2, [r3, #0]
  400c20:	f3bf 8f4f 	dsb	sy
  400c24:	f3bf 8f6f 	isb	sy
  400c28:	e7db      	b.n	400be2 <xQueueGenericSend+0xaa>
  400c2a:	4b34      	ldr	r3, [pc, #208]	; (400cfc <xQueueGenericSend+0x1c4>)
  400c2c:	4798      	blx	r3
  400c2e:	2000      	movs	r0, #0
  400c30:	e7da      	b.n	400be8 <xQueueGenericSend+0xb0>
  400c32:	a802      	add	r0, sp, #8
  400c34:	4b33      	ldr	r3, [pc, #204]	; (400d04 <xQueueGenericSend+0x1cc>)
  400c36:	4798      	blx	r3
  400c38:	2501      	movs	r5, #1
  400c3a:	e019      	b.n	400c70 <xQueueGenericSend+0x138>
  400c3c:	2300      	movs	r3, #0
  400c3e:	f884 3044 	strb.w	r3, [r4, #68]	; 0x44
  400c42:	e021      	b.n	400c88 <xQueueGenericSend+0x150>
  400c44:	2300      	movs	r3, #0
  400c46:	f884 3045 	strb.w	r3, [r4, #69]	; 0x45
  400c4a:	e023      	b.n	400c94 <xQueueGenericSend+0x15c>
  400c4c:	4620      	mov	r0, r4
  400c4e:	4b2e      	ldr	r3, [pc, #184]	; (400d08 <xQueueGenericSend+0x1d0>)
  400c50:	4798      	blx	r3
  400c52:	4b2e      	ldr	r3, [pc, #184]	; (400d0c <xQueueGenericSend+0x1d4>)
  400c54:	4798      	blx	r3
  400c56:	4b2e      	ldr	r3, [pc, #184]	; (400d10 <xQueueGenericSend+0x1d8>)
  400c58:	4798      	blx	r3
  400c5a:	6ba2      	ldr	r2, [r4, #56]	; 0x38
  400c5c:	6be3      	ldr	r3, [r4, #60]	; 0x3c
  400c5e:	429a      	cmp	r2, r3
  400c60:	d3a8      	bcc.n	400bb4 <xQueueGenericSend+0x7c>
  400c62:	2e02      	cmp	r6, #2
  400c64:	d0a6      	beq.n	400bb4 <xQueueGenericSend+0x7c>
  400c66:	9b01      	ldr	r3, [sp, #4]
  400c68:	2b00      	cmp	r3, #0
  400c6a:	d0de      	beq.n	400c2a <xQueueGenericSend+0xf2>
  400c6c:	2d00      	cmp	r5, #0
  400c6e:	d0e0      	beq.n	400c32 <xQueueGenericSend+0xfa>
  400c70:	4b22      	ldr	r3, [pc, #136]	; (400cfc <xQueueGenericSend+0x1c4>)
  400c72:	4798      	blx	r3
  400c74:	4b27      	ldr	r3, [pc, #156]	; (400d14 <xQueueGenericSend+0x1dc>)
  400c76:	4798      	blx	r3
  400c78:	4b25      	ldr	r3, [pc, #148]	; (400d10 <xQueueGenericSend+0x1d8>)
  400c7a:	4798      	blx	r3
  400c7c:	f894 3044 	ldrb.w	r3, [r4, #68]	; 0x44
  400c80:	b25b      	sxtb	r3, r3
  400c82:	f1b3 3fff 	cmp.w	r3, #4294967295
  400c86:	d0d9      	beq.n	400c3c <xQueueGenericSend+0x104>
  400c88:	f894 3045 	ldrb.w	r3, [r4, #69]	; 0x45
  400c8c:	b25b      	sxtb	r3, r3
  400c8e:	f1b3 3fff 	cmp.w	r3, #4294967295
  400c92:	d0d7      	beq.n	400c44 <xQueueGenericSend+0x10c>
  400c94:	4b19      	ldr	r3, [pc, #100]	; (400cfc <xQueueGenericSend+0x1c4>)
  400c96:	4798      	blx	r3
  400c98:	a901      	add	r1, sp, #4
  400c9a:	a802      	add	r0, sp, #8
  400c9c:	4b1e      	ldr	r3, [pc, #120]	; (400d18 <xQueueGenericSend+0x1e0>)
  400c9e:	4798      	blx	r3
  400ca0:	b9c8      	cbnz	r0, 400cd6 <xQueueGenericSend+0x19e>
  400ca2:	4620      	mov	r0, r4
  400ca4:	4b1d      	ldr	r3, [pc, #116]	; (400d1c <xQueueGenericSend+0x1e4>)
  400ca6:	4798      	blx	r3
  400ca8:	2800      	cmp	r0, #0
  400caa:	d0cf      	beq.n	400c4c <xQueueGenericSend+0x114>
  400cac:	9901      	ldr	r1, [sp, #4]
  400cae:	f104 0010 	add.w	r0, r4, #16
  400cb2:	4b1b      	ldr	r3, [pc, #108]	; (400d20 <xQueueGenericSend+0x1e8>)
  400cb4:	4798      	blx	r3
  400cb6:	4620      	mov	r0, r4
  400cb8:	4b13      	ldr	r3, [pc, #76]	; (400d08 <xQueueGenericSend+0x1d0>)
  400cba:	4798      	blx	r3
  400cbc:	4b13      	ldr	r3, [pc, #76]	; (400d0c <xQueueGenericSend+0x1d4>)
  400cbe:	4798      	blx	r3
  400cc0:	2800      	cmp	r0, #0
  400cc2:	d1c8      	bne.n	400c56 <xQueueGenericSend+0x11e>
  400cc4:	f04f 5280 	mov.w	r2, #268435456	; 0x10000000
  400cc8:	4b0b      	ldr	r3, [pc, #44]	; (400cf8 <xQueueGenericSend+0x1c0>)
  400cca:	601a      	str	r2, [r3, #0]
  400ccc:	f3bf 8f4f 	dsb	sy
  400cd0:	f3bf 8f6f 	isb	sy
  400cd4:	e7bf      	b.n	400c56 <xQueueGenericSend+0x11e>
  400cd6:	4620      	mov	r0, r4
  400cd8:	4b0b      	ldr	r3, [pc, #44]	; (400d08 <xQueueGenericSend+0x1d0>)
  400cda:	4798      	blx	r3
  400cdc:	4b0b      	ldr	r3, [pc, #44]	; (400d0c <xQueueGenericSend+0x1d4>)
  400cde:	4798      	blx	r3
  400ce0:	2000      	movs	r0, #0
  400ce2:	e781      	b.n	400be8 <xQueueGenericSend+0xb0>
  400ce4:	00401b1d 	.word	0x00401b1d
  400ce8:	00402f58 	.word	0x00402f58
  400cec:	00402b69 	.word	0x00402b69
  400cf0:	00400869 	.word	0x00400869
  400cf4:	004008e9 	.word	0x004008e9
  400cf8:	e000ed04 	.word	0xe000ed04
  400cfc:	0040030d 	.word	0x0040030d
  400d00:	004019dd 	.word	0x004019dd
  400d04:	00401a71 	.word	0x00401a71
  400d08:	00400995 	.word	0x00400995
  400d0c:	00401609 	.word	0x00401609
  400d10:	004002c5 	.word	0x004002c5
  400d14:	004014c9 	.word	0x004014c9
  400d18:	00401a89 	.word	0x00401a89
  400d1c:	0040081d 	.word	0x0040081d
  400d20:	00401955 	.word	0x00401955

00400d24 <xQueueGenericSendFromISR>:
  400d24:	e92d 43f8 	stmdb	sp!, {r3, r4, r5, r6, r7, r8, r9, lr}
  400d28:	460f      	mov	r7, r1
  400d2a:	4691      	mov	r9, r2
  400d2c:	461e      	mov	r6, r3
  400d2e:	4604      	mov	r4, r0
  400d30:	b1e8      	cbz	r0, 400d6e <xQueueGenericSendFromISR+0x4a>
  400d32:	b317      	cbz	r7, 400d7a <xQueueGenericSendFromISR+0x56>
  400d34:	2301      	movs	r3, #1
  400d36:	b333      	cbz	r3, 400d86 <xQueueGenericSendFromISR+0x62>
  400d38:	2e02      	cmp	r6, #2
  400d3a:	d02a      	beq.n	400d92 <xQueueGenericSendFromISR+0x6e>
  400d3c:	2301      	movs	r3, #1
  400d3e:	b36b      	cbz	r3, 400d9c <xQueueGenericSendFromISR+0x78>
  400d40:	4b35      	ldr	r3, [pc, #212]	; (400e18 <xQueueGenericSendFromISR+0xf4>)
  400d42:	4798      	blx	r3
  400d44:	f3ef 8811 	mrs	r8, BASEPRI
  400d48:	f04f 0350 	mov.w	r3, #80	; 0x50
  400d4c:	f383 8811 	msr	BASEPRI, r3
  400d50:	f3bf 8f6f 	isb	sy
  400d54:	f3bf 8f4f 	dsb	sy
  400d58:	6ba2      	ldr	r2, [r4, #56]	; 0x38
  400d5a:	6be3      	ldr	r3, [r4, #60]	; 0x3c
  400d5c:	429a      	cmp	r2, r3
  400d5e:	d323      	bcc.n	400da8 <xQueueGenericSendFromISR+0x84>
  400d60:	2e02      	cmp	r6, #2
  400d62:	d021      	beq.n	400da8 <xQueueGenericSendFromISR+0x84>
  400d64:	2000      	movs	r0, #0
  400d66:	f388 8811 	msr	BASEPRI, r8
  400d6a:	e8bd 83f8 	ldmia.w	sp!, {r3, r4, r5, r6, r7, r8, r9, pc}
  400d6e:	f240 31c3 	movw	r1, #963	; 0x3c3
  400d72:	482a      	ldr	r0, [pc, #168]	; (400e1c <xQueueGenericSendFromISR+0xf8>)
  400d74:	4b2a      	ldr	r3, [pc, #168]	; (400e20 <xQueueGenericSendFromISR+0xfc>)
  400d76:	4798      	blx	r3
  400d78:	e7db      	b.n	400d32 <xQueueGenericSendFromISR+0xe>
  400d7a:	6c23      	ldr	r3, [r4, #64]	; 0x40
  400d7c:	b90b      	cbnz	r3, 400d82 <xQueueGenericSendFromISR+0x5e>
  400d7e:	2301      	movs	r3, #1
  400d80:	e7d9      	b.n	400d36 <xQueueGenericSendFromISR+0x12>
  400d82:	2300      	movs	r3, #0
  400d84:	e7d7      	b.n	400d36 <xQueueGenericSendFromISR+0x12>
  400d86:	f44f 7171 	mov.w	r1, #964	; 0x3c4
  400d8a:	4824      	ldr	r0, [pc, #144]	; (400e1c <xQueueGenericSendFromISR+0xf8>)
  400d8c:	4b24      	ldr	r3, [pc, #144]	; (400e20 <xQueueGenericSendFromISR+0xfc>)
  400d8e:	4798      	blx	r3
  400d90:	e7d2      	b.n	400d38 <xQueueGenericSendFromISR+0x14>
  400d92:	6be3      	ldr	r3, [r4, #60]	; 0x3c
  400d94:	2b01      	cmp	r3, #1
  400d96:	d0d2      	beq.n	400d3e <xQueueGenericSendFromISR+0x1a>
  400d98:	2300      	movs	r3, #0
  400d9a:	e7d0      	b.n	400d3e <xQueueGenericSendFromISR+0x1a>
  400d9c:	f240 31c5 	movw	r1, #965	; 0x3c5
  400da0:	481e      	ldr	r0, [pc, #120]	; (400e1c <xQueueGenericSendFromISR+0xf8>)
  400da2:	4b1f      	ldr	r3, [pc, #124]	; (400e20 <xQueueGenericSendFromISR+0xfc>)
  400da4:	4798      	blx	r3
  400da6:	e7cb      	b.n	400d40 <xQueueGenericSendFromISR+0x1c>
  400da8:	f894 5045 	ldrb.w	r5, [r4, #69]	; 0x45
  400dac:	b26d      	sxtb	r5, r5
  400dae:	4632      	mov	r2, r6
  400db0:	4639      	mov	r1, r7
  400db2:	4620      	mov	r0, r4
  400db4:	4b1b      	ldr	r3, [pc, #108]	; (400e24 <xQueueGenericSendFromISR+0x100>)
  400db6:	4798      	blx	r3
  400db8:	f1b5 3fff 	cmp.w	r5, #4294967295
  400dbc:	d005      	beq.n	400dca <xQueueGenericSendFromISR+0xa6>
  400dbe:	3501      	adds	r5, #1
  400dc0:	b26d      	sxtb	r5, r5
  400dc2:	f884 5045 	strb.w	r5, [r4, #69]	; 0x45
  400dc6:	2001      	movs	r0, #1
  400dc8:	e7cd      	b.n	400d66 <xQueueGenericSendFromISR+0x42>
  400dca:	6ca3      	ldr	r3, [r4, #72]	; 0x48
  400dcc:	b15b      	cbz	r3, 400de6 <xQueueGenericSendFromISR+0xc2>
  400dce:	4631      	mov	r1, r6
  400dd0:	4620      	mov	r0, r4
  400dd2:	4b15      	ldr	r3, [pc, #84]	; (400e28 <xQueueGenericSendFromISR+0x104>)
  400dd4:	4798      	blx	r3
  400dd6:	b1b0      	cbz	r0, 400e06 <xQueueGenericSendFromISR+0xe2>
  400dd8:	f1b9 0f00 	cmp.w	r9, #0
  400ddc:	d015      	beq.n	400e0a <xQueueGenericSendFromISR+0xe6>
  400dde:	2001      	movs	r0, #1
  400de0:	f8c9 0000 	str.w	r0, [r9]
  400de4:	e7bf      	b.n	400d66 <xQueueGenericSendFromISR+0x42>
  400de6:	6a63      	ldr	r3, [r4, #36]	; 0x24
  400de8:	b90b      	cbnz	r3, 400dee <xQueueGenericSendFromISR+0xca>
  400dea:	2001      	movs	r0, #1
  400dec:	e7bb      	b.n	400d66 <xQueueGenericSendFromISR+0x42>
  400dee:	f104 0024 	add.w	r0, r4, #36	; 0x24
  400df2:	4b0e      	ldr	r3, [pc, #56]	; (400e2c <xQueueGenericSendFromISR+0x108>)
  400df4:	4798      	blx	r3
  400df6:	b150      	cbz	r0, 400e0e <xQueueGenericSendFromISR+0xea>
  400df8:	f1b9 0f00 	cmp.w	r9, #0
  400dfc:	d009      	beq.n	400e12 <xQueueGenericSendFromISR+0xee>
  400dfe:	2001      	movs	r0, #1
  400e00:	f8c9 0000 	str.w	r0, [r9]
  400e04:	e7af      	b.n	400d66 <xQueueGenericSendFromISR+0x42>
  400e06:	2001      	movs	r0, #1
  400e08:	e7ad      	b.n	400d66 <xQueueGenericSendFromISR+0x42>
  400e0a:	2001      	movs	r0, #1
  400e0c:	e7ab      	b.n	400d66 <xQueueGenericSendFromISR+0x42>
  400e0e:	2001      	movs	r0, #1
  400e10:	e7a9      	b.n	400d66 <xQueueGenericSendFromISR+0x42>
  400e12:	2001      	movs	r0, #1
  400e14:	e7a7      	b.n	400d66 <xQueueGenericSendFromISR+0x42>
  400e16:	bf00      	nop
  400e18:	00400525 	.word	0x00400525
  400e1c:	00402f58 	.word	0x00402f58
  400e20:	00402b69 	.word	0x00402b69
  400e24:	00400869 	.word	0x00400869
  400e28:	004008e9 	.word	0x004008e9
  400e2c:	004019dd 	.word	0x004019dd

00400e30 <xQueueReceive>:
  400e30:	b5f0      	push	{r4, r5, r6, r7, lr}
  400e32:	b085      	sub	sp, #20
  400e34:	460f      	mov	r7, r1
  400e36:	9201      	str	r2, [sp, #4]
  400e38:	4604      	mov	r4, r0
  400e3a:	b148      	cbz	r0, 400e50 <xQueueReceive+0x20>
  400e3c:	b177      	cbz	r7, 400e5c <xQueueReceive+0x2c>
  400e3e:	2301      	movs	r3, #1
  400e40:	b193      	cbz	r3, 400e68 <xQueueReceive+0x38>
  400e42:	4b51      	ldr	r3, [pc, #324]	; (400f88 <xQueueReceive+0x158>)
  400e44:	4798      	blx	r3
  400e46:	b9a8      	cbnz	r0, 400e74 <xQueueReceive+0x44>
  400e48:	9b01      	ldr	r3, [sp, #4]
  400e4a:	b9bb      	cbnz	r3, 400e7c <xQueueReceive+0x4c>
  400e4c:	2301      	movs	r3, #1
  400e4e:	e012      	b.n	400e76 <xQueueReceive+0x46>
  400e50:	f44f 61a0 	mov.w	r1, #1280	; 0x500
  400e54:	484d      	ldr	r0, [pc, #308]	; (400f8c <xQueueReceive+0x15c>)
  400e56:	4b4e      	ldr	r3, [pc, #312]	; (400f90 <xQueueReceive+0x160>)
  400e58:	4798      	blx	r3
  400e5a:	e7ef      	b.n	400e3c <xQueueReceive+0xc>
  400e5c:	6c23      	ldr	r3, [r4, #64]	; 0x40
  400e5e:	b90b      	cbnz	r3, 400e64 <xQueueReceive+0x34>
  400e60:	2301      	movs	r3, #1
  400e62:	e7ed      	b.n	400e40 <xQueueReceive+0x10>
  400e64:	2300      	movs	r3, #0
  400e66:	e7eb      	b.n	400e40 <xQueueReceive+0x10>
  400e68:	f240 5104 	movw	r1, #1284	; 0x504
  400e6c:	4847      	ldr	r0, [pc, #284]	; (400f8c <xQueueReceive+0x15c>)
  400e6e:	4b48      	ldr	r3, [pc, #288]	; (400f90 <xQueueReceive+0x160>)
  400e70:	4798      	blx	r3
  400e72:	e7e6      	b.n	400e42 <xQueueReceive+0x12>
  400e74:	2301      	movs	r3, #1
  400e76:	b11b      	cbz	r3, 400e80 <xQueueReceive+0x50>
  400e78:	2600      	movs	r6, #0
  400e7a:	e044      	b.n	400f06 <xQueueReceive+0xd6>
  400e7c:	2300      	movs	r3, #0
  400e7e:	e7fa      	b.n	400e76 <xQueueReceive+0x46>
  400e80:	f240 5109 	movw	r1, #1289	; 0x509
  400e84:	4841      	ldr	r0, [pc, #260]	; (400f8c <xQueueReceive+0x15c>)
  400e86:	4b42      	ldr	r3, [pc, #264]	; (400f90 <xQueueReceive+0x160>)
  400e88:	4798      	blx	r3
  400e8a:	e7f5      	b.n	400e78 <xQueueReceive+0x48>
  400e8c:	4639      	mov	r1, r7
  400e8e:	4620      	mov	r0, r4
  400e90:	4b40      	ldr	r3, [pc, #256]	; (400f94 <xQueueReceive+0x164>)
  400e92:	4798      	blx	r3
  400e94:	3d01      	subs	r5, #1
  400e96:	63a5      	str	r5, [r4, #56]	; 0x38
  400e98:	6923      	ldr	r3, [r4, #16]
  400e9a:	b923      	cbnz	r3, 400ea6 <xQueueReceive+0x76>
  400e9c:	4b3e      	ldr	r3, [pc, #248]	; (400f98 <xQueueReceive+0x168>)
  400e9e:	4798      	blx	r3
  400ea0:	2001      	movs	r0, #1
  400ea2:	b005      	add	sp, #20
  400ea4:	bdf0      	pop	{r4, r5, r6, r7, pc}
  400ea6:	f104 0010 	add.w	r0, r4, #16
  400eaa:	4b3c      	ldr	r3, [pc, #240]	; (400f9c <xQueueReceive+0x16c>)
  400eac:	4798      	blx	r3
  400eae:	2800      	cmp	r0, #0
  400eb0:	d0f4      	beq.n	400e9c <xQueueReceive+0x6c>
  400eb2:	f04f 5280 	mov.w	r2, #268435456	; 0x10000000
  400eb6:	4b3a      	ldr	r3, [pc, #232]	; (400fa0 <xQueueReceive+0x170>)
  400eb8:	601a      	str	r2, [r3, #0]
  400eba:	f3bf 8f4f 	dsb	sy
  400ebe:	f3bf 8f6f 	isb	sy
  400ec2:	e7eb      	b.n	400e9c <xQueueReceive+0x6c>
  400ec4:	4b34      	ldr	r3, [pc, #208]	; (400f98 <xQueueReceive+0x168>)
  400ec6:	4798      	blx	r3
  400ec8:	2000      	movs	r0, #0
  400eca:	e7ea      	b.n	400ea2 <xQueueReceive+0x72>
  400ecc:	a802      	add	r0, sp, #8
  400ece:	4b35      	ldr	r3, [pc, #212]	; (400fa4 <xQueueReceive+0x174>)
  400ed0:	4798      	blx	r3
  400ed2:	2601      	movs	r6, #1
  400ed4:	e021      	b.n	400f1a <xQueueReceive+0xea>
  400ed6:	2300      	movs	r3, #0
  400ed8:	f884 3044 	strb.w	r3, [r4, #68]	; 0x44
  400edc:	e029      	b.n	400f32 <xQueueReceive+0x102>
  400ede:	2300      	movs	r3, #0
  400ee0:	f884 3045 	strb.w	r3, [r4, #69]	; 0x45
  400ee4:	e02b      	b.n	400f3e <xQueueReceive+0x10e>
  400ee6:	4620      	mov	r0, r4
  400ee8:	4b2f      	ldr	r3, [pc, #188]	; (400fa8 <xQueueReceive+0x178>)
  400eea:	4798      	blx	r3
  400eec:	4b2f      	ldr	r3, [pc, #188]	; (400fac <xQueueReceive+0x17c>)
  400eee:	4798      	blx	r3
  400ef0:	e009      	b.n	400f06 <xQueueReceive+0xd6>
  400ef2:	4620      	mov	r0, r4
  400ef4:	4b2c      	ldr	r3, [pc, #176]	; (400fa8 <xQueueReceive+0x178>)
  400ef6:	4798      	blx	r3
  400ef8:	4b2c      	ldr	r3, [pc, #176]	; (400fac <xQueueReceive+0x17c>)
  400efa:	4798      	blx	r3
  400efc:	4620      	mov	r0, r4
  400efe:	4b2c      	ldr	r3, [pc, #176]	; (400fb0 <xQueueReceive+0x180>)
  400f00:	4798      	blx	r3
  400f02:	2800      	cmp	r0, #0
  400f04:	d13d      	bne.n	400f82 <xQueueReceive+0x152>
  400f06:	4b2b      	ldr	r3, [pc, #172]	; (400fb4 <xQueueReceive+0x184>)
  400f08:	4798      	blx	r3
  400f0a:	6ba5      	ldr	r5, [r4, #56]	; 0x38
  400f0c:	2d00      	cmp	r5, #0
  400f0e:	d1bd      	bne.n	400e8c <xQueueReceive+0x5c>
  400f10:	9b01      	ldr	r3, [sp, #4]
  400f12:	2b00      	cmp	r3, #0
  400f14:	d0d6      	beq.n	400ec4 <xQueueReceive+0x94>
  400f16:	2e00      	cmp	r6, #0
  400f18:	d0d8      	beq.n	400ecc <xQueueReceive+0x9c>
  400f1a:	4b1f      	ldr	r3, [pc, #124]	; (400f98 <xQueueReceive+0x168>)
  400f1c:	4798      	blx	r3
  400f1e:	4b26      	ldr	r3, [pc, #152]	; (400fb8 <xQueueReceive+0x188>)
  400f20:	4798      	blx	r3
  400f22:	4b24      	ldr	r3, [pc, #144]	; (400fb4 <xQueueReceive+0x184>)
  400f24:	4798      	blx	r3
  400f26:	f894 3044 	ldrb.w	r3, [r4, #68]	; 0x44
  400f2a:	b25b      	sxtb	r3, r3
  400f2c:	f1b3 3fff 	cmp.w	r3, #4294967295
  400f30:	d0d1      	beq.n	400ed6 <xQueueReceive+0xa6>
  400f32:	f894 3045 	ldrb.w	r3, [r4, #69]	; 0x45
  400f36:	b25b      	sxtb	r3, r3
  400f38:	f1b3 3fff 	cmp.w	r3, #4294967295
  400f3c:	d0cf      	beq.n	400ede <xQueueReceive+0xae>
  400f3e:	4b16      	ldr	r3, [pc, #88]	; (400f98 <xQueueReceive+0x168>)
  400f40:	4798      	blx	r3
  400f42:	a901      	add	r1, sp, #4
  400f44:	a802      	add	r0, sp, #8
  400f46:	4b1d      	ldr	r3, [pc, #116]	; (400fbc <xQueueReceive+0x18c>)
  400f48:	4798      	blx	r3
  400f4a:	2800      	cmp	r0, #0
  400f4c:	d1d1      	bne.n	400ef2 <xQueueReceive+0xc2>
  400f4e:	4620      	mov	r0, r4
  400f50:	4b17      	ldr	r3, [pc, #92]	; (400fb0 <xQueueReceive+0x180>)
  400f52:	4798      	blx	r3
  400f54:	2800      	cmp	r0, #0
  400f56:	d0c6      	beq.n	400ee6 <xQueueReceive+0xb6>
  400f58:	9901      	ldr	r1, [sp, #4]
  400f5a:	f104 0024 	add.w	r0, r4, #36	; 0x24
  400f5e:	4b18      	ldr	r3, [pc, #96]	; (400fc0 <xQueueReceive+0x190>)
  400f60:	4798      	blx	r3
  400f62:	4620      	mov	r0, r4
  400f64:	4b10      	ldr	r3, [pc, #64]	; (400fa8 <xQueueReceive+0x178>)
  400f66:	4798      	blx	r3
  400f68:	4b10      	ldr	r3, [pc, #64]	; (400fac <xQueueReceive+0x17c>)
  400f6a:	4798      	blx	r3
  400f6c:	2800      	cmp	r0, #0
  400f6e:	d1ca      	bne.n	400f06 <xQueueReceive+0xd6>
  400f70:	f04f 5280 	mov.w	r2, #268435456	; 0x10000000
  400f74:	4b0a      	ldr	r3, [pc, #40]	; (400fa0 <xQueueReceive+0x170>)
  400f76:	601a      	str	r2, [r3, #0]
  400f78:	f3bf 8f4f 	dsb	sy
  400f7c:	f3bf 8f6f 	isb	sy
  400f80:	e7c1      	b.n	400f06 <xQueueReceive+0xd6>
  400f82:	2000      	movs	r0, #0
  400f84:	e78d      	b.n	400ea2 <xQueueReceive+0x72>
  400f86:	bf00      	nop
  400f88:	00401b1d 	.word	0x00401b1d
  400f8c:	00402f58 	.word	0x00402f58
  400f90:	00402b69 	.word	0x00402b69
  400f94:	0040096d 	.word	0x0040096d
  400f98:	0040030d 	.word	0x0040030d
  400f9c:	004019dd 	.word	0x004019dd
  400fa0:	e000ed04 	.word	0xe000ed04
  400fa4:	00401a71 	.word	0x00401a71
  400fa8:	00400995 	.word	0x00400995
  400fac:	00401609 	.word	0x00401609
  400fb0:	00400845 	.word	0x00400845
  400fb4:	004002c5 	.word	0x004002c5
  400fb8:	004014c9 	.word	0x004014c9
  400fbc:	00401a89 	.word	0x00401a89
  400fc0:	00401955 	.word	0x00401955

00400fc4 <uxQueueMessagesWaiting>:
  400fc4:	b510      	push	{r4, lr}
  400fc6:	4604      	mov	r4, r0
  400fc8:	b130      	cbz	r0, 400fd8 <uxQueueMessagesWaiting+0x14>
  400fca:	4b06      	ldr	r3, [pc, #24]	; (400fe4 <uxQueueMessagesWaiting+0x20>)
  400fcc:	4798      	blx	r3
  400fce:	6ba4      	ldr	r4, [r4, #56]	; 0x38
  400fd0:	4b05      	ldr	r3, [pc, #20]	; (400fe8 <uxQueueMessagesWaiting+0x24>)
  400fd2:	4798      	blx	r3
  400fd4:	4620      	mov	r0, r4
  400fd6:	bd10      	pop	{r4, pc}
  400fd8:	f240 718a 	movw	r1, #1930	; 0x78a
  400fdc:	4803      	ldr	r0, [pc, #12]	; (400fec <uxQueueMessagesWaiting+0x28>)
  400fde:	4b04      	ldr	r3, [pc, #16]	; (400ff0 <uxQueueMessagesWaiting+0x2c>)
  400fe0:	4798      	blx	r3
  400fe2:	e7f2      	b.n	400fca <uxQueueMessagesWaiting+0x6>
  400fe4:	004002c5 	.word	0x004002c5
  400fe8:	0040030d 	.word	0x0040030d
  400fec:	00402f58 	.word	0x00402f58
  400ff0:	00402b69 	.word	0x00402b69

00400ff4 <vQueueAddToRegistry>:
  400ff4:	2300      	movs	r3, #0
  400ff6:	2b07      	cmp	r3, #7
  400ff8:	d80c      	bhi.n	401014 <vQueueAddToRegistry+0x20>
  400ffa:	4a07      	ldr	r2, [pc, #28]	; (401018 <vQueueAddToRegistry+0x24>)
  400ffc:	f852 2033 	ldr.w	r2, [r2, r3, lsl #3]
  401000:	b10a      	cbz	r2, 401006 <vQueueAddToRegistry+0x12>
  401002:	3301      	adds	r3, #1
  401004:	e7f7      	b.n	400ff6 <vQueueAddToRegistry+0x2>
  401006:	4a04      	ldr	r2, [pc, #16]	; (401018 <vQueueAddToRegistry+0x24>)
  401008:	f842 1033 	str.w	r1, [r2, r3, lsl #3]
  40100c:	eb02 03c3 	add.w	r3, r2, r3, lsl #3
  401010:	6058      	str	r0, [r3, #4]
  401012:	4770      	bx	lr
  401014:	4770      	bx	lr
  401016:	bf00      	nop
  401018:	20000758 	.word	0x20000758

0040101c <vQueueWaitForMessageRestricted>:
  40101c:	b570      	push	{r4, r5, r6, lr}
  40101e:	4604      	mov	r4, r0
  401020:	460d      	mov	r5, r1
  401022:	4616      	mov	r6, r2
  401024:	4b12      	ldr	r3, [pc, #72]	; (401070 <vQueueWaitForMessageRestricted+0x54>)
  401026:	4798      	blx	r3
  401028:	f894 3044 	ldrb.w	r3, [r4, #68]	; 0x44
  40102c:	b25b      	sxtb	r3, r3
  40102e:	f1b3 3fff 	cmp.w	r3, #4294967295
  401032:	d00d      	beq.n	401050 <vQueueWaitForMessageRestricted+0x34>
  401034:	f894 3045 	ldrb.w	r3, [r4, #69]	; 0x45
  401038:	b25b      	sxtb	r3, r3
  40103a:	f1b3 3fff 	cmp.w	r3, #4294967295
  40103e:	d00b      	beq.n	401058 <vQueueWaitForMessageRestricted+0x3c>
  401040:	4b0c      	ldr	r3, [pc, #48]	; (401074 <vQueueWaitForMessageRestricted+0x58>)
  401042:	4798      	blx	r3
  401044:	6ba3      	ldr	r3, [r4, #56]	; 0x38
  401046:	b15b      	cbz	r3, 401060 <vQueueWaitForMessageRestricted+0x44>
  401048:	4620      	mov	r0, r4
  40104a:	4b0b      	ldr	r3, [pc, #44]	; (401078 <vQueueWaitForMessageRestricted+0x5c>)
  40104c:	4798      	blx	r3
  40104e:	bd70      	pop	{r4, r5, r6, pc}
  401050:	2300      	movs	r3, #0
  401052:	f884 3044 	strb.w	r3, [r4, #68]	; 0x44
  401056:	e7ed      	b.n	401034 <vQueueWaitForMessageRestricted+0x18>
  401058:	2300      	movs	r3, #0
  40105a:	f884 3045 	strb.w	r3, [r4, #69]	; 0x45
  40105e:	e7ef      	b.n	401040 <vQueueWaitForMessageRestricted+0x24>
  401060:	4632      	mov	r2, r6
  401062:	4629      	mov	r1, r5
  401064:	f104 0024 	add.w	r0, r4, #36	; 0x24
  401068:	4b04      	ldr	r3, [pc, #16]	; (40107c <vQueueWaitForMessageRestricted+0x60>)
  40106a:	4798      	blx	r3
  40106c:	e7ec      	b.n	401048 <vQueueWaitForMessageRestricted+0x2c>
  40106e:	bf00      	nop
  401070:	004002c5 	.word	0x004002c5
  401074:	0040030d 	.word	0x0040030d
  401078:	00400995 	.word	0x00400995
  40107c:	00401995 	.word	0x00401995

00401080 <prvResetNextTaskUnblockTime>:
  401080:	4b08      	ldr	r3, [pc, #32]	; (4010a4 <prvResetNextTaskUnblockTime+0x24>)
  401082:	681b      	ldr	r3, [r3, #0]
  401084:	681b      	ldr	r3, [r3, #0]
  401086:	b13b      	cbz	r3, 401098 <prvResetNextTaskUnblockTime+0x18>
  401088:	4b06      	ldr	r3, [pc, #24]	; (4010a4 <prvResetNextTaskUnblockTime+0x24>)
  40108a:	681b      	ldr	r3, [r3, #0]
  40108c:	68db      	ldr	r3, [r3, #12]
  40108e:	68db      	ldr	r3, [r3, #12]
  401090:	685a      	ldr	r2, [r3, #4]
  401092:	4b05      	ldr	r3, [pc, #20]	; (4010a8 <prvResetNextTaskUnblockTime+0x28>)
  401094:	601a      	str	r2, [r3, #0]
  401096:	4770      	bx	lr
  401098:	f04f 32ff 	mov.w	r2, #4294967295
  40109c:	4b02      	ldr	r3, [pc, #8]	; (4010a8 <prvResetNextTaskUnblockTime+0x28>)
  40109e:	601a      	str	r2, [r3, #0]
  4010a0:	4770      	bx	lr
  4010a2:	bf00      	nop
  4010a4:	200005b4 	.word	0x200005b4
  4010a8:	200006a0 	.word	0x200006a0

004010ac <prvDeleteTCB>:
  4010ac:	b538      	push	{r3, r4, r5, lr}
  4010ae:	4605      	mov	r5, r0
  4010b0:	6b00      	ldr	r0, [r0, #48]	; 0x30
  4010b2:	4c02      	ldr	r4, [pc, #8]	; (4010bc <prvDeleteTCB+0x10>)
  4010b4:	47a0      	blx	r4
  4010b6:	4628      	mov	r0, r5
  4010b8:	47a0      	blx	r4
  4010ba:	bd38      	pop	{r3, r4, r5, pc}
  4010bc:	004006bd 	.word	0x004006bd

004010c0 <prvInitialiseNewTask>:
  4010c0:	e92d 4ff8 	stmdb	sp!, {r3, r4, r5, r6, r7, r8, r9, sl, fp, lr}
  4010c4:	4681      	mov	r9, r0
  4010c6:	460d      	mov	r5, r1
  4010c8:	4617      	mov	r7, r2
  4010ca:	469a      	mov	sl, r3
  4010cc:	9e0a      	ldr	r6, [sp, #40]	; 0x28
  4010ce:	f8dd 802c 	ldr.w	r8, [sp, #44]	; 0x2c
  4010d2:	9c0c      	ldr	r4, [sp, #48]	; 0x30
  4010d4:	0092      	lsls	r2, r2, #2
  4010d6:	21a5      	movs	r1, #165	; 0xa5
  4010d8:	6b20      	ldr	r0, [r4, #48]	; 0x30
  4010da:	4b25      	ldr	r3, [pc, #148]	; (401170 <prvInitialiseNewTask+0xb0>)
  4010dc:	4798      	blx	r3
  4010de:	6b23      	ldr	r3, [r4, #48]	; 0x30
  4010e0:	f107 4280 	add.w	r2, r7, #1073741824	; 0x40000000
  4010e4:	3a01      	subs	r2, #1
  4010e6:	eb03 0782 	add.w	r7, r3, r2, lsl #2
  4010ea:	f027 0707 	bic.w	r7, r7, #7
  4010ee:	b315      	cbz	r5, 401136 <prvInitialiseNewTask+0x76>
  4010f0:	2300      	movs	r3, #0
  4010f2:	2b13      	cmp	r3, #19
  4010f4:	d807      	bhi.n	401106 <prvInitialiseNewTask+0x46>
  4010f6:	5ce9      	ldrb	r1, [r5, r3]
  4010f8:	18e2      	adds	r2, r4, r3
  4010fa:	f882 1034 	strb.w	r1, [r2, #52]	; 0x34
  4010fe:	5cea      	ldrb	r2, [r5, r3]
  401100:	b10a      	cbz	r2, 401106 <prvInitialiseNewTask+0x46>
  401102:	3301      	adds	r3, #1
  401104:	e7f5      	b.n	4010f2 <prvInitialiseNewTask+0x32>
  401106:	2300      	movs	r3, #0
  401108:	f884 3047 	strb.w	r3, [r4, #71]	; 0x47
  40110c:	2e07      	cmp	r6, #7
  40110e:	d900      	bls.n	401112 <prvInitialiseNewTask+0x52>
  401110:	2607      	movs	r6, #7
  401112:	62e6      	str	r6, [r4, #44]	; 0x2c
  401114:	64a6      	str	r6, [r4, #72]	; 0x48
  401116:	2500      	movs	r5, #0
  401118:	64e5      	str	r5, [r4, #76]	; 0x4c
  40111a:	1d20      	adds	r0, r4, #4
  40111c:	f8df b058 	ldr.w	fp, [pc, #88]	; 401178 <prvInitialiseNewTask+0xb8>
  401120:	47d8      	blx	fp
  401122:	f104 0018 	add.w	r0, r4, #24
  401126:	47d8      	blx	fp
  401128:	6124      	str	r4, [r4, #16]
  40112a:	f1c6 0608 	rsb	r6, r6, #8
  40112e:	61a6      	str	r6, [r4, #24]
  401130:	6264      	str	r4, [r4, #36]	; 0x24
  401132:	462b      	mov	r3, r5
  401134:	e009      	b.n	40114a <prvInitialiseNewTask+0x8a>
  401136:	2300      	movs	r3, #0
  401138:	f884 3034 	strb.w	r3, [r4, #52]	; 0x34
  40113c:	e7e6      	b.n	40110c <prvInitialiseNewTask+0x4c>
  40113e:	f103 0214 	add.w	r2, r3, #20
  401142:	2100      	movs	r1, #0
  401144:	f844 1022 	str.w	r1, [r4, r2, lsl #2]
  401148:	3301      	adds	r3, #1
  40114a:	2b02      	cmp	r3, #2
  40114c:	d9f7      	bls.n	40113e <prvInitialiseNewTask+0x7e>
  40114e:	2300      	movs	r3, #0
  401150:	65e3      	str	r3, [r4, #92]	; 0x5c
  401152:	f884 3060 	strb.w	r3, [r4, #96]	; 0x60
  401156:	4652      	mov	r2, sl
  401158:	4649      	mov	r1, r9
  40115a:	4638      	mov	r0, r7
  40115c:	4b05      	ldr	r3, [pc, #20]	; (401174 <prvInitialiseNewTask+0xb4>)
  40115e:	4798      	blx	r3
  401160:	6020      	str	r0, [r4, #0]
  401162:	f1b8 0f00 	cmp.w	r8, #0
  401166:	d001      	beq.n	40116c <prvInitialiseNewTask+0xac>
  401168:	f8c8 4000 	str.w	r4, [r8]
  40116c:	e8bd 8ff8 	ldmia.w	sp!, {r3, r4, r5, r6, r7, r8, r9, sl, fp, pc}
  401170:	00402d41 	.word	0x00402d41
  401174:	00400275 	.word	0x00400275
  401178:	0040017b 	.word	0x0040017b

0040117c <prvInitialiseTaskLists>:
  40117c:	b570      	push	{r4, r5, r6, lr}
  40117e:	2400      	movs	r4, #0
  401180:	e007      	b.n	401192 <prvInitialiseTaskLists+0x16>
  401182:	eb04 0284 	add.w	r2, r4, r4, lsl #2
  401186:	0093      	lsls	r3, r2, #2
  401188:	480c      	ldr	r0, [pc, #48]	; (4011bc <prvInitialiseTaskLists+0x40>)
  40118a:	4418      	add	r0, r3
  40118c:	4b0c      	ldr	r3, [pc, #48]	; (4011c0 <prvInitialiseTaskLists+0x44>)
  40118e:	4798      	blx	r3
  401190:	3401      	adds	r4, #1
  401192:	2c07      	cmp	r4, #7
  401194:	d9f5      	bls.n	401182 <prvInitialiseTaskLists+0x6>
  401196:	4e0b      	ldr	r6, [pc, #44]	; (4011c4 <prvInitialiseTaskLists+0x48>)
  401198:	4630      	mov	r0, r6
  40119a:	4c09      	ldr	r4, [pc, #36]	; (4011c0 <prvInitialiseTaskLists+0x44>)
  40119c:	47a0      	blx	r4
  40119e:	4d0a      	ldr	r5, [pc, #40]	; (4011c8 <prvInitialiseTaskLists+0x4c>)
  4011a0:	4628      	mov	r0, r5
  4011a2:	47a0      	blx	r4
  4011a4:	4809      	ldr	r0, [pc, #36]	; (4011cc <prvInitialiseTaskLists+0x50>)
  4011a6:	47a0      	blx	r4
  4011a8:	4809      	ldr	r0, [pc, #36]	; (4011d0 <prvInitialiseTaskLists+0x54>)
  4011aa:	47a0      	blx	r4
  4011ac:	4809      	ldr	r0, [pc, #36]	; (4011d4 <prvInitialiseTaskLists+0x58>)
  4011ae:	47a0      	blx	r4
  4011b0:	4b09      	ldr	r3, [pc, #36]	; (4011d8 <prvInitialiseTaskLists+0x5c>)
  4011b2:	601e      	str	r6, [r3, #0]
  4011b4:	4b09      	ldr	r3, [pc, #36]	; (4011dc <prvInitialiseTaskLists+0x60>)
  4011b6:	601d      	str	r5, [r3, #0]
  4011b8:	bd70      	pop	{r4, r5, r6, pc}
  4011ba:	bf00      	nop
  4011bc:	200005bc 	.word	0x200005bc
  4011c0:	00400165 	.word	0x00400165
  4011c4:	20000674 	.word	0x20000674
  4011c8:	20000688 	.word	0x20000688
  4011cc:	200006a8 	.word	0x200006a8
  4011d0:	200006d4 	.word	0x200006d4
  4011d4:	200006c0 	.word	0x200006c0
  4011d8:	200005b4 	.word	0x200005b4
  4011dc:	200005b8 	.word	0x200005b8

004011e0 <prvAddNewTaskToReadyList>:
  4011e0:	b510      	push	{r4, lr}
  4011e2:	4604      	mov	r4, r0
  4011e4:	4b21      	ldr	r3, [pc, #132]	; (40126c <prvAddNewTaskToReadyList+0x8c>)
  4011e6:	4798      	blx	r3
  4011e8:	4a21      	ldr	r2, [pc, #132]	; (401270 <prvAddNewTaskToReadyList+0x90>)
  4011ea:	6813      	ldr	r3, [r2, #0]
  4011ec:	3301      	adds	r3, #1
  4011ee:	6013      	str	r3, [r2, #0]
  4011f0:	4b20      	ldr	r3, [pc, #128]	; (401274 <prvAddNewTaskToReadyList+0x94>)
  4011f2:	681b      	ldr	r3, [r3, #0]
  4011f4:	2b00      	cmp	r3, #0
  4011f6:	d031      	beq.n	40125c <prvAddNewTaskToReadyList+0x7c>
  4011f8:	4b1f      	ldr	r3, [pc, #124]	; (401278 <prvAddNewTaskToReadyList+0x98>)
  4011fa:	681b      	ldr	r3, [r3, #0]
  4011fc:	b93b      	cbnz	r3, 40120e <prvAddNewTaskToReadyList+0x2e>
  4011fe:	4b1d      	ldr	r3, [pc, #116]	; (401274 <prvAddNewTaskToReadyList+0x94>)
  401200:	681b      	ldr	r3, [r3, #0]
  401202:	6ada      	ldr	r2, [r3, #44]	; 0x2c
  401204:	6ae3      	ldr	r3, [r4, #44]	; 0x2c
  401206:	429a      	cmp	r2, r3
  401208:	d801      	bhi.n	40120e <prvAddNewTaskToReadyList+0x2e>
  40120a:	4b1a      	ldr	r3, [pc, #104]	; (401274 <prvAddNewTaskToReadyList+0x94>)
  40120c:	601c      	str	r4, [r3, #0]
  40120e:	4a1b      	ldr	r2, [pc, #108]	; (40127c <prvAddNewTaskToReadyList+0x9c>)
  401210:	6813      	ldr	r3, [r2, #0]
  401212:	3301      	adds	r3, #1
  401214:	6013      	str	r3, [r2, #0]
  401216:	6ae3      	ldr	r3, [r4, #44]	; 0x2c
  401218:	2201      	movs	r2, #1
  40121a:	409a      	lsls	r2, r3
  40121c:	4918      	ldr	r1, [pc, #96]	; (401280 <prvAddNewTaskToReadyList+0xa0>)
  40121e:	6808      	ldr	r0, [r1, #0]
  401220:	4302      	orrs	r2, r0
  401222:	600a      	str	r2, [r1, #0]
  401224:	eb03 0383 	add.w	r3, r3, r3, lsl #2
  401228:	009a      	lsls	r2, r3, #2
  40122a:	1d21      	adds	r1, r4, #4
  40122c:	4815      	ldr	r0, [pc, #84]	; (401284 <prvAddNewTaskToReadyList+0xa4>)
  40122e:	4410      	add	r0, r2
  401230:	4b15      	ldr	r3, [pc, #84]	; (401288 <prvAddNewTaskToReadyList+0xa8>)
  401232:	4798      	blx	r3
  401234:	4b15      	ldr	r3, [pc, #84]	; (40128c <prvAddNewTaskToReadyList+0xac>)
  401236:	4798      	blx	r3
  401238:	4b0f      	ldr	r3, [pc, #60]	; (401278 <prvAddNewTaskToReadyList+0x98>)
  40123a:	681b      	ldr	r3, [r3, #0]
  40123c:	b16b      	cbz	r3, 40125a <prvAddNewTaskToReadyList+0x7a>
  40123e:	4b0d      	ldr	r3, [pc, #52]	; (401274 <prvAddNewTaskToReadyList+0x94>)
  401240:	681b      	ldr	r3, [r3, #0]
  401242:	6ada      	ldr	r2, [r3, #44]	; 0x2c
  401244:	6ae3      	ldr	r3, [r4, #44]	; 0x2c
  401246:	429a      	cmp	r2, r3
  401248:	d207      	bcs.n	40125a <prvAddNewTaskToReadyList+0x7a>
  40124a:	f04f 5280 	mov.w	r2, #268435456	; 0x10000000
  40124e:	4b10      	ldr	r3, [pc, #64]	; (401290 <prvAddNewTaskToReadyList+0xb0>)
  401250:	601a      	str	r2, [r3, #0]
  401252:	f3bf 8f4f 	dsb	sy
  401256:	f3bf 8f6f 	isb	sy
  40125a:	bd10      	pop	{r4, pc}
  40125c:	4b05      	ldr	r3, [pc, #20]	; (401274 <prvAddNewTaskToReadyList+0x94>)
  40125e:	601c      	str	r4, [r3, #0]
  401260:	6813      	ldr	r3, [r2, #0]
  401262:	2b01      	cmp	r3, #1
  401264:	d1d3      	bne.n	40120e <prvAddNewTaskToReadyList+0x2e>
  401266:	4b0b      	ldr	r3, [pc, #44]	; (401294 <prvAddNewTaskToReadyList+0xb4>)
  401268:	4798      	blx	r3
  40126a:	e7d0      	b.n	40120e <prvAddNewTaskToReadyList+0x2e>
  40126c:	004002c5 	.word	0x004002c5
  401270:	2000065c 	.word	0x2000065c
  401274:	200005b0 	.word	0x200005b0
  401278:	200006bc 	.word	0x200006bc
  40127c:	2000066c 	.word	0x2000066c
  401280:	20000670 	.word	0x20000670
  401284:	200005bc 	.word	0x200005bc
  401288:	00400181 	.word	0x00400181
  40128c:	0040030d 	.word	0x0040030d
  401290:	e000ed04 	.word	0xe000ed04
  401294:	0040117d 	.word	0x0040117d

00401298 <prvCheckTasksWaitingTermination>:
  401298:	4b0f      	ldr	r3, [pc, #60]	; (4012d8 <prvCheckTasksWaitingTermination+0x40>)
  40129a:	681b      	ldr	r3, [r3, #0]
  40129c:	b1d3      	cbz	r3, 4012d4 <prvCheckTasksWaitingTermination+0x3c>
  40129e:	b510      	push	{r4, lr}
  4012a0:	4b0e      	ldr	r3, [pc, #56]	; (4012dc <prvCheckTasksWaitingTermination+0x44>)
  4012a2:	4798      	blx	r3
  4012a4:	4b0e      	ldr	r3, [pc, #56]	; (4012e0 <prvCheckTasksWaitingTermination+0x48>)
  4012a6:	68db      	ldr	r3, [r3, #12]
  4012a8:	68dc      	ldr	r4, [r3, #12]
  4012aa:	1d20      	adds	r0, r4, #4
  4012ac:	4b0d      	ldr	r3, [pc, #52]	; (4012e4 <prvCheckTasksWaitingTermination+0x4c>)
  4012ae:	4798      	blx	r3
  4012b0:	4a0d      	ldr	r2, [pc, #52]	; (4012e8 <prvCheckTasksWaitingTermination+0x50>)
  4012b2:	6813      	ldr	r3, [r2, #0]
  4012b4:	3b01      	subs	r3, #1
  4012b6:	6013      	str	r3, [r2, #0]
  4012b8:	4a07      	ldr	r2, [pc, #28]	; (4012d8 <prvCheckTasksWaitingTermination+0x40>)
  4012ba:	6813      	ldr	r3, [r2, #0]
  4012bc:	3b01      	subs	r3, #1
  4012be:	6013      	str	r3, [r2, #0]
  4012c0:	4b0a      	ldr	r3, [pc, #40]	; (4012ec <prvCheckTasksWaitingTermination+0x54>)
  4012c2:	4798      	blx	r3
  4012c4:	4620      	mov	r0, r4
  4012c6:	4b0a      	ldr	r3, [pc, #40]	; (4012f0 <prvCheckTasksWaitingTermination+0x58>)
  4012c8:	4798      	blx	r3
  4012ca:	4b03      	ldr	r3, [pc, #12]	; (4012d8 <prvCheckTasksWaitingTermination+0x40>)
  4012cc:	681b      	ldr	r3, [r3, #0]
  4012ce:	2b00      	cmp	r3, #0
  4012d0:	d1e6      	bne.n	4012a0 <prvCheckTasksWaitingTermination+0x8>
  4012d2:	bd10      	pop	{r4, pc}
  4012d4:	4770      	bx	lr
  4012d6:	bf00      	nop
  4012d8:	20000660 	.word	0x20000660
  4012dc:	004002c5 	.word	0x004002c5
  4012e0:	200006d4 	.word	0x200006d4
  4012e4:	004001cd 	.word	0x004001cd
  4012e8:	2000065c 	.word	0x2000065c
  4012ec:	0040030d 	.word	0x0040030d
  4012f0:	004010ad 	.word	0x004010ad

004012f4 <prvIdleTask>:
  4012f4:	b508      	push	{r3, lr}
  4012f6:	4b07      	ldr	r3, [pc, #28]	; (401314 <prvIdleTask+0x20>)
  4012f8:	4798      	blx	r3
  4012fa:	4b07      	ldr	r3, [pc, #28]	; (401318 <prvIdleTask+0x24>)
  4012fc:	681b      	ldr	r3, [r3, #0]
  4012fe:	2b01      	cmp	r3, #1
  401300:	d9f9      	bls.n	4012f6 <prvIdleTask+0x2>
  401302:	f04f 5280 	mov.w	r2, #268435456	; 0x10000000
  401306:	4b05      	ldr	r3, [pc, #20]	; (40131c <prvIdleTask+0x28>)
  401308:	601a      	str	r2, [r3, #0]
  40130a:	f3bf 8f4f 	dsb	sy
  40130e:	f3bf 8f6f 	isb	sy
  401312:	e7f0      	b.n	4012f6 <prvIdleTask+0x2>
  401314:	00401299 	.word	0x00401299
  401318:	200005bc 	.word	0x200005bc
  40131c:	e000ed04 	.word	0xe000ed04

00401320 <prvAddCurrentTaskToDelayedList>:
  401320:	b570      	push	{r4, r5, r6, lr}
  401322:	4604      	mov	r4, r0
  401324:	460e      	mov	r6, r1
  401326:	4b1d      	ldr	r3, [pc, #116]	; (40139c <prvAddCurrentTaskToDelayedList+0x7c>)
  401328:	681d      	ldr	r5, [r3, #0]
  40132a:	4b1d      	ldr	r3, [pc, #116]	; (4013a0 <prvAddCurrentTaskToDelayedList+0x80>)
  40132c:	6818      	ldr	r0, [r3, #0]
  40132e:	3004      	adds	r0, #4
  401330:	4b1c      	ldr	r3, [pc, #112]	; (4013a4 <prvAddCurrentTaskToDelayedList+0x84>)
  401332:	4798      	blx	r3
  401334:	b950      	cbnz	r0, 40134c <prvAddCurrentTaskToDelayedList+0x2c>
  401336:	4b1a      	ldr	r3, [pc, #104]	; (4013a0 <prvAddCurrentTaskToDelayedList+0x80>)
  401338:	681b      	ldr	r3, [r3, #0]
  40133a:	6ada      	ldr	r2, [r3, #44]	; 0x2c
  40133c:	2301      	movs	r3, #1
  40133e:	fa03 f202 	lsl.w	r2, r3, r2
  401342:	4919      	ldr	r1, [pc, #100]	; (4013a8 <prvAddCurrentTaskToDelayedList+0x88>)
  401344:	680b      	ldr	r3, [r1, #0]
  401346:	ea23 0302 	bic.w	r3, r3, r2
  40134a:	600b      	str	r3, [r1, #0]
  40134c:	f1b4 3fff 	cmp.w	r4, #4294967295
  401350:	d013      	beq.n	40137a <prvAddCurrentTaskToDelayedList+0x5a>
  401352:	442c      	add	r4, r5
  401354:	4b12      	ldr	r3, [pc, #72]	; (4013a0 <prvAddCurrentTaskToDelayedList+0x80>)
  401356:	681b      	ldr	r3, [r3, #0]
  401358:	605c      	str	r4, [r3, #4]
  40135a:	42a5      	cmp	r5, r4
  40135c:	d816      	bhi.n	40138c <prvAddCurrentTaskToDelayedList+0x6c>
  40135e:	4b13      	ldr	r3, [pc, #76]	; (4013ac <prvAddCurrentTaskToDelayedList+0x8c>)
  401360:	6818      	ldr	r0, [r3, #0]
  401362:	4b0f      	ldr	r3, [pc, #60]	; (4013a0 <prvAddCurrentTaskToDelayedList+0x80>)
  401364:	6819      	ldr	r1, [r3, #0]
  401366:	3104      	adds	r1, #4
  401368:	4b11      	ldr	r3, [pc, #68]	; (4013b0 <prvAddCurrentTaskToDelayedList+0x90>)
  40136a:	4798      	blx	r3
  40136c:	4b11      	ldr	r3, [pc, #68]	; (4013b4 <prvAddCurrentTaskToDelayedList+0x94>)
  40136e:	681b      	ldr	r3, [r3, #0]
  401370:	429c      	cmp	r4, r3
  401372:	d201      	bcs.n	401378 <prvAddCurrentTaskToDelayedList+0x58>
  401374:	4b0f      	ldr	r3, [pc, #60]	; (4013b4 <prvAddCurrentTaskToDelayedList+0x94>)
  401376:	601c      	str	r4, [r3, #0]
  401378:	bd70      	pop	{r4, r5, r6, pc}
  40137a:	2e00      	cmp	r6, #0
  40137c:	d0e9      	beq.n	401352 <prvAddCurrentTaskToDelayedList+0x32>
  40137e:	4b08      	ldr	r3, [pc, #32]	; (4013a0 <prvAddCurrentTaskToDelayedList+0x80>)
  401380:	6819      	ldr	r1, [r3, #0]
  401382:	3104      	adds	r1, #4
  401384:	480c      	ldr	r0, [pc, #48]	; (4013b8 <prvAddCurrentTaskToDelayedList+0x98>)
  401386:	4b0d      	ldr	r3, [pc, #52]	; (4013bc <prvAddCurrentTaskToDelayedList+0x9c>)
  401388:	4798      	blx	r3
  40138a:	bd70      	pop	{r4, r5, r6, pc}
  40138c:	4b0c      	ldr	r3, [pc, #48]	; (4013c0 <prvAddCurrentTaskToDelayedList+0xa0>)
  40138e:	6818      	ldr	r0, [r3, #0]
  401390:	4b03      	ldr	r3, [pc, #12]	; (4013a0 <prvAddCurrentTaskToDelayedList+0x80>)
  401392:	6819      	ldr	r1, [r3, #0]
  401394:	3104      	adds	r1, #4
  401396:	4b06      	ldr	r3, [pc, #24]	; (4013b0 <prvAddCurrentTaskToDelayedList+0x90>)
  401398:	4798      	blx	r3
  40139a:	bd70      	pop	{r4, r5, r6, pc}
  40139c:	200006e8 	.word	0x200006e8
  4013a0:	200005b0 	.word	0x200005b0
  4013a4:	004001cd 	.word	0x004001cd
  4013a8:	20000670 	.word	0x20000670
  4013ac:	200005b4 	.word	0x200005b4
  4013b0:	00400199 	.word	0x00400199
  4013b4:	200006a0 	.word	0x200006a0
  4013b8:	200006c0 	.word	0x200006c0
  4013bc:	00400181 	.word	0x00400181
  4013c0:	200005b8 	.word	0x200005b8

004013c4 <xTaskCreate>:
  4013c4:	e92d 43f0 	stmdb	sp!, {r4, r5, r6, r7, r8, r9, lr}
  4013c8:	b085      	sub	sp, #20
  4013ca:	4606      	mov	r6, r0
  4013cc:	460f      	mov	r7, r1
  4013ce:	4615      	mov	r5, r2
  4013d0:	4698      	mov	r8, r3
  4013d2:	0090      	lsls	r0, r2, #2
  4013d4:	4b14      	ldr	r3, [pc, #80]	; (401428 <xTaskCreate+0x64>)
  4013d6:	4798      	blx	r3
  4013d8:	b300      	cbz	r0, 40141c <xTaskCreate+0x58>
  4013da:	4681      	mov	r9, r0
  4013dc:	2064      	movs	r0, #100	; 0x64
  4013de:	4b12      	ldr	r3, [pc, #72]	; (401428 <xTaskCreate+0x64>)
  4013e0:	4798      	blx	r3
  4013e2:	4604      	mov	r4, r0
  4013e4:	b1b0      	cbz	r0, 401414 <xTaskCreate+0x50>
  4013e6:	f8c0 9030 	str.w	r9, [r0, #48]	; 0x30
  4013ea:	b1cc      	cbz	r4, 401420 <xTaskCreate+0x5c>
  4013ec:	2300      	movs	r3, #0
  4013ee:	9303      	str	r3, [sp, #12]
  4013f0:	9402      	str	r4, [sp, #8]
  4013f2:	9b0d      	ldr	r3, [sp, #52]	; 0x34
  4013f4:	9301      	str	r3, [sp, #4]
  4013f6:	9b0c      	ldr	r3, [sp, #48]	; 0x30
  4013f8:	9300      	str	r3, [sp, #0]
  4013fa:	4643      	mov	r3, r8
  4013fc:	462a      	mov	r2, r5
  4013fe:	4639      	mov	r1, r7
  401400:	4630      	mov	r0, r6
  401402:	4d0a      	ldr	r5, [pc, #40]	; (40142c <xTaskCreate+0x68>)
  401404:	47a8      	blx	r5
  401406:	4620      	mov	r0, r4
  401408:	4b09      	ldr	r3, [pc, #36]	; (401430 <xTaskCreate+0x6c>)
  40140a:	4798      	blx	r3
  40140c:	2001      	movs	r0, #1
  40140e:	b005      	add	sp, #20
  401410:	e8bd 83f0 	ldmia.w	sp!, {r4, r5, r6, r7, r8, r9, pc}
  401414:	4648      	mov	r0, r9
  401416:	4b07      	ldr	r3, [pc, #28]	; (401434 <xTaskCreate+0x70>)
  401418:	4798      	blx	r3
  40141a:	e7e6      	b.n	4013ea <xTaskCreate+0x26>
  40141c:	2400      	movs	r4, #0
  40141e:	e7e4      	b.n	4013ea <xTaskCreate+0x26>
  401420:	f04f 30ff 	mov.w	r0, #4294967295
  401424:	e7f3      	b.n	40140e <xTaskCreate+0x4a>
  401426:	bf00      	nop
  401428:	004005d9 	.word	0x004005d9
  40142c:	004010c1 	.word	0x004010c1
  401430:	004011e1 	.word	0x004011e1
  401434:	004006bd 	.word	0x004006bd

00401438 <vTaskStartScheduler>:
  401438:	b510      	push	{r4, lr}
  40143a:	b082      	sub	sp, #8
  40143c:	4b17      	ldr	r3, [pc, #92]	; (40149c <vTaskStartScheduler+0x64>)
  40143e:	9301      	str	r3, [sp, #4]
  401440:	2300      	movs	r3, #0
  401442:	9300      	str	r3, [sp, #0]
  401444:	2282      	movs	r2, #130	; 0x82
  401446:	4916      	ldr	r1, [pc, #88]	; (4014a0 <vTaskStartScheduler+0x68>)
  401448:	4816      	ldr	r0, [pc, #88]	; (4014a4 <vTaskStartScheduler+0x6c>)
  40144a:	4c17      	ldr	r4, [pc, #92]	; (4014a8 <vTaskStartScheduler+0x70>)
  40144c:	47a0      	blx	r4
  40144e:	2801      	cmp	r0, #1
  401450:	d006      	beq.n	401460 <vTaskStartScheduler+0x28>
  401452:	2801      	cmp	r0, #1
  401454:	d007      	beq.n	401466 <vTaskStartScheduler+0x2e>
  401456:	f1b0 3fff 	cmp.w	r0, #4294967295
  40145a:	d019      	beq.n	401490 <vTaskStartScheduler+0x58>
  40145c:	b002      	add	sp, #8
  40145e:	bd10      	pop	{r4, pc}
  401460:	4b12      	ldr	r3, [pc, #72]	; (4014ac <vTaskStartScheduler+0x74>)
  401462:	4798      	blx	r3
  401464:	e7f5      	b.n	401452 <vTaskStartScheduler+0x1a>
  401466:	f04f 0350 	mov.w	r3, #80	; 0x50
  40146a:	f383 8811 	msr	BASEPRI, r3
  40146e:	f3bf 8f6f 	isb	sy
  401472:	f3bf 8f4f 	dsb	sy
  401476:	f04f 32ff 	mov.w	r2, #4294967295
  40147a:	4b0d      	ldr	r3, [pc, #52]	; (4014b0 <vTaskStartScheduler+0x78>)
  40147c:	601a      	str	r2, [r3, #0]
  40147e:	2201      	movs	r2, #1
  401480:	4b0c      	ldr	r3, [pc, #48]	; (4014b4 <vTaskStartScheduler+0x7c>)
  401482:	601a      	str	r2, [r3, #0]
  401484:	2200      	movs	r2, #0
  401486:	4b0c      	ldr	r3, [pc, #48]	; (4014b8 <vTaskStartScheduler+0x80>)
  401488:	601a      	str	r2, [r3, #0]
  40148a:	4b0c      	ldr	r3, [pc, #48]	; (4014bc <vTaskStartScheduler+0x84>)
  40148c:	4798      	blx	r3
  40148e:	e7e5      	b.n	40145c <vTaskStartScheduler+0x24>
  401490:	f44f 6102 	mov.w	r1, #2080	; 0x820
  401494:	480a      	ldr	r0, [pc, #40]	; (4014c0 <vTaskStartScheduler+0x88>)
  401496:	4b0b      	ldr	r3, [pc, #44]	; (4014c4 <vTaskStartScheduler+0x8c>)
  401498:	4798      	blx	r3
  40149a:	e7df      	b.n	40145c <vTaskStartScheduler+0x24>
  40149c:	2000069c 	.word	0x2000069c
  4014a0:	00402f88 	.word	0x00402f88
  4014a4:	004012f5 	.word	0x004012f5
  4014a8:	004013c5 	.word	0x004013c5
  4014ac:	00401ccd 	.word	0x00401ccd
  4014b0:	200006a0 	.word	0x200006a0
  4014b4:	200006bc 	.word	0x200006bc
  4014b8:	200006e8 	.word	0x200006e8
  4014bc:	0040040d 	.word	0x0040040d
  4014c0:	00402f70 	.word	0x00402f70
  4014c4:	00402b69 	.word	0x00402b69

004014c8 <vTaskSuspendAll>:
  4014c8:	4a02      	ldr	r2, [pc, #8]	; (4014d4 <vTaskSuspendAll+0xc>)
  4014ca:	6813      	ldr	r3, [r2, #0]
  4014cc:	3301      	adds	r3, #1
  4014ce:	6013      	str	r3, [r2, #0]
  4014d0:	4770      	bx	lr
  4014d2:	bf00      	nop
  4014d4:	20000668 	.word	0x20000668

004014d8 <xTaskGetTickCount>:
  4014d8:	4b01      	ldr	r3, [pc, #4]	; (4014e0 <xTaskGetTickCount+0x8>)
  4014da:	6818      	ldr	r0, [r3, #0]
  4014dc:	4770      	bx	lr
  4014de:	bf00      	nop
  4014e0:	200006e8 	.word	0x200006e8

004014e4 <xTaskIncrementTick>:
  4014e4:	b5f8      	push	{r3, r4, r5, r6, r7, lr}
  4014e6:	4b38      	ldr	r3, [pc, #224]	; (4015c8 <xTaskIncrementTick+0xe4>)
  4014e8:	681b      	ldr	r3, [r3, #0]
  4014ea:	2b00      	cmp	r3, #0
  4014ec:	d161      	bne.n	4015b2 <xTaskIncrementTick+0xce>
  4014ee:	4b37      	ldr	r3, [pc, #220]	; (4015cc <xTaskIncrementTick+0xe8>)
  4014f0:	681e      	ldr	r6, [r3, #0]
  4014f2:	3601      	adds	r6, #1
  4014f4:	601e      	str	r6, [r3, #0]
  4014f6:	b97e      	cbnz	r6, 401518 <xTaskIncrementTick+0x34>
  4014f8:	4b35      	ldr	r3, [pc, #212]	; (4015d0 <xTaskIncrementTick+0xec>)
  4014fa:	681b      	ldr	r3, [r3, #0]
  4014fc:	681b      	ldr	r3, [r3, #0]
  4014fe:	b9e3      	cbnz	r3, 40153a <xTaskIncrementTick+0x56>
  401500:	4a33      	ldr	r2, [pc, #204]	; (4015d0 <xTaskIncrementTick+0xec>)
  401502:	6811      	ldr	r1, [r2, #0]
  401504:	4b33      	ldr	r3, [pc, #204]	; (4015d4 <xTaskIncrementTick+0xf0>)
  401506:	6818      	ldr	r0, [r3, #0]
  401508:	6010      	str	r0, [r2, #0]
  40150a:	6019      	str	r1, [r3, #0]
  40150c:	4a32      	ldr	r2, [pc, #200]	; (4015d8 <xTaskIncrementTick+0xf4>)
  40150e:	6813      	ldr	r3, [r2, #0]
  401510:	3301      	adds	r3, #1
  401512:	6013      	str	r3, [r2, #0]
  401514:	4b31      	ldr	r3, [pc, #196]	; (4015dc <xTaskIncrementTick+0xf8>)
  401516:	4798      	blx	r3
  401518:	4b31      	ldr	r3, [pc, #196]	; (4015e0 <xTaskIncrementTick+0xfc>)
  40151a:	681b      	ldr	r3, [r3, #0]
  40151c:	429e      	cmp	r6, r3
  40151e:	d23e      	bcs.n	40159e <xTaskIncrementTick+0xba>
  401520:	2700      	movs	r7, #0
  401522:	4b30      	ldr	r3, [pc, #192]	; (4015e4 <xTaskIncrementTick+0x100>)
  401524:	681b      	ldr	r3, [r3, #0]
  401526:	6adb      	ldr	r3, [r3, #44]	; 0x2c
  401528:	eb03 0383 	add.w	r3, r3, r3, lsl #2
  40152c:	009a      	lsls	r2, r3, #2
  40152e:	4b2e      	ldr	r3, [pc, #184]	; (4015e8 <xTaskIncrementTick+0x104>)
  401530:	589b      	ldr	r3, [r3, r2]
  401532:	2b01      	cmp	r3, #1
  401534:	d942      	bls.n	4015bc <xTaskIncrementTick+0xd8>
  401536:	2701      	movs	r7, #1
  401538:	e040      	b.n	4015bc <xTaskIncrementTick+0xd8>
  40153a:	f640 217f 	movw	r1, #2687	; 0xa7f
  40153e:	482b      	ldr	r0, [pc, #172]	; (4015ec <xTaskIncrementTick+0x108>)
  401540:	4b2b      	ldr	r3, [pc, #172]	; (4015f0 <xTaskIncrementTick+0x10c>)
  401542:	4798      	blx	r3
  401544:	e7dc      	b.n	401500 <xTaskIncrementTick+0x1c>
  401546:	2701      	movs	r7, #1
  401548:	4b21      	ldr	r3, [pc, #132]	; (4015d0 <xTaskIncrementTick+0xec>)
  40154a:	681b      	ldr	r3, [r3, #0]
  40154c:	681b      	ldr	r3, [r3, #0]
  40154e:	b343      	cbz	r3, 4015a2 <xTaskIncrementTick+0xbe>
  401550:	4b1f      	ldr	r3, [pc, #124]	; (4015d0 <xTaskIncrementTick+0xec>)
  401552:	681b      	ldr	r3, [r3, #0]
  401554:	68db      	ldr	r3, [r3, #12]
  401556:	68dc      	ldr	r4, [r3, #12]
  401558:	6863      	ldr	r3, [r4, #4]
  40155a:	429e      	cmp	r6, r3
  40155c:	d326      	bcc.n	4015ac <xTaskIncrementTick+0xc8>
  40155e:	1d25      	adds	r5, r4, #4
  401560:	4628      	mov	r0, r5
  401562:	4b24      	ldr	r3, [pc, #144]	; (4015f4 <xTaskIncrementTick+0x110>)
  401564:	4798      	blx	r3
  401566:	6aa3      	ldr	r3, [r4, #40]	; 0x28
  401568:	b11b      	cbz	r3, 401572 <xTaskIncrementTick+0x8e>
  40156a:	f104 0018 	add.w	r0, r4, #24
  40156e:	4b21      	ldr	r3, [pc, #132]	; (4015f4 <xTaskIncrementTick+0x110>)
  401570:	4798      	blx	r3
  401572:	6ae3      	ldr	r3, [r4, #44]	; 0x2c
  401574:	2201      	movs	r2, #1
  401576:	409a      	lsls	r2, r3
  401578:	491f      	ldr	r1, [pc, #124]	; (4015f8 <xTaskIncrementTick+0x114>)
  40157a:	6808      	ldr	r0, [r1, #0]
  40157c:	4302      	orrs	r2, r0
  40157e:	600a      	str	r2, [r1, #0]
  401580:	eb03 0383 	add.w	r3, r3, r3, lsl #2
  401584:	009a      	lsls	r2, r3, #2
  401586:	4629      	mov	r1, r5
  401588:	4817      	ldr	r0, [pc, #92]	; (4015e8 <xTaskIncrementTick+0x104>)
  40158a:	4410      	add	r0, r2
  40158c:	4b1b      	ldr	r3, [pc, #108]	; (4015fc <xTaskIncrementTick+0x118>)
  40158e:	4798      	blx	r3
  401590:	6ae2      	ldr	r2, [r4, #44]	; 0x2c
  401592:	4b14      	ldr	r3, [pc, #80]	; (4015e4 <xTaskIncrementTick+0x100>)
  401594:	681b      	ldr	r3, [r3, #0]
  401596:	6adb      	ldr	r3, [r3, #44]	; 0x2c
  401598:	429a      	cmp	r2, r3
  40159a:	d2d4      	bcs.n	401546 <xTaskIncrementTick+0x62>
  40159c:	e7d4      	b.n	401548 <xTaskIncrementTick+0x64>
  40159e:	2700      	movs	r7, #0
  4015a0:	e7d2      	b.n	401548 <xTaskIncrementTick+0x64>
  4015a2:	f04f 32ff 	mov.w	r2, #4294967295
  4015a6:	4b0e      	ldr	r3, [pc, #56]	; (4015e0 <xTaskIncrementTick+0xfc>)
  4015a8:	601a      	str	r2, [r3, #0]
  4015aa:	e7ba      	b.n	401522 <xTaskIncrementTick+0x3e>
  4015ac:	4a0c      	ldr	r2, [pc, #48]	; (4015e0 <xTaskIncrementTick+0xfc>)
  4015ae:	6013      	str	r3, [r2, #0]
  4015b0:	e7b7      	b.n	401522 <xTaskIncrementTick+0x3e>
  4015b2:	4a13      	ldr	r2, [pc, #76]	; (401600 <xTaskIncrementTick+0x11c>)
  4015b4:	6813      	ldr	r3, [r2, #0]
  4015b6:	3301      	adds	r3, #1
  4015b8:	6013      	str	r3, [r2, #0]
  4015ba:	2700      	movs	r7, #0
  4015bc:	4b11      	ldr	r3, [pc, #68]	; (401604 <xTaskIncrementTick+0x120>)
  4015be:	681b      	ldr	r3, [r3, #0]
  4015c0:	b103      	cbz	r3, 4015c4 <xTaskIncrementTick+0xe0>
  4015c2:	2701      	movs	r7, #1
  4015c4:	4638      	mov	r0, r7
  4015c6:	bdf8      	pop	{r3, r4, r5, r6, r7, pc}
  4015c8:	20000668 	.word	0x20000668
  4015cc:	200006e8 	.word	0x200006e8
  4015d0:	200005b4 	.word	0x200005b4
  4015d4:	200005b8 	.word	0x200005b8
  4015d8:	200006a4 	.word	0x200006a4
  4015dc:	00401081 	.word	0x00401081
  4015e0:	200006a0 	.word	0x200006a0
  4015e4:	200005b0 	.word	0x200005b0
  4015e8:	200005bc 	.word	0x200005bc
  4015ec:	00402f70 	.word	0x00402f70
  4015f0:	00402b69 	.word	0x00402b69
  4015f4:	004001cd 	.word	0x004001cd
  4015f8:	20000670 	.word	0x20000670
  4015fc:	00400181 	.word	0x00400181
  401600:	20000664 	.word	0x20000664
  401604:	200006ec 	.word	0x200006ec

00401608 <xTaskResumeAll>:
  401608:	b570      	push	{r4, r5, r6, lr}
  40160a:	4b34      	ldr	r3, [pc, #208]	; (4016dc <xTaskResumeAll+0xd4>)
  40160c:	681b      	ldr	r3, [r3, #0]
  40160e:	2b00      	cmp	r3, #0
  401610:	d034      	beq.n	40167c <xTaskResumeAll+0x74>
  401612:	4b33      	ldr	r3, [pc, #204]	; (4016e0 <xTaskResumeAll+0xd8>)
  401614:	4798      	blx	r3
  401616:	4b31      	ldr	r3, [pc, #196]	; (4016dc <xTaskResumeAll+0xd4>)
  401618:	681a      	ldr	r2, [r3, #0]
  40161a:	3a01      	subs	r2, #1
  40161c:	601a      	str	r2, [r3, #0]
  40161e:	681b      	ldr	r3, [r3, #0]
  401620:	2b00      	cmp	r3, #0
  401622:	d154      	bne.n	4016ce <xTaskResumeAll+0xc6>
  401624:	4b2f      	ldr	r3, [pc, #188]	; (4016e4 <xTaskResumeAll+0xdc>)
  401626:	681b      	ldr	r3, [r3, #0]
  401628:	2b00      	cmp	r3, #0
  40162a:	d02d      	beq.n	401688 <xTaskResumeAll+0x80>
  40162c:	2400      	movs	r4, #0
  40162e:	4b2e      	ldr	r3, [pc, #184]	; (4016e8 <xTaskResumeAll+0xe0>)
  401630:	681b      	ldr	r3, [r3, #0]
  401632:	2b00      	cmp	r3, #0
  401634:	d02a      	beq.n	40168c <xTaskResumeAll+0x84>
  401636:	4b2c      	ldr	r3, [pc, #176]	; (4016e8 <xTaskResumeAll+0xe0>)
  401638:	68db      	ldr	r3, [r3, #12]
  40163a:	68dc      	ldr	r4, [r3, #12]
  40163c:	f104 0018 	add.w	r0, r4, #24
  401640:	4e2a      	ldr	r6, [pc, #168]	; (4016ec <xTaskResumeAll+0xe4>)
  401642:	47b0      	blx	r6
  401644:	1d25      	adds	r5, r4, #4
  401646:	4628      	mov	r0, r5
  401648:	47b0      	blx	r6
  40164a:	6ae3      	ldr	r3, [r4, #44]	; 0x2c
  40164c:	2201      	movs	r2, #1
  40164e:	409a      	lsls	r2, r3
  401650:	4927      	ldr	r1, [pc, #156]	; (4016f0 <xTaskResumeAll+0xe8>)
  401652:	6808      	ldr	r0, [r1, #0]
  401654:	4302      	orrs	r2, r0
  401656:	600a      	str	r2, [r1, #0]
  401658:	eb03 0383 	add.w	r3, r3, r3, lsl #2
  40165c:	009a      	lsls	r2, r3, #2
  40165e:	4629      	mov	r1, r5
  401660:	4824      	ldr	r0, [pc, #144]	; (4016f4 <xTaskResumeAll+0xec>)
  401662:	4410      	add	r0, r2
  401664:	4b24      	ldr	r3, [pc, #144]	; (4016f8 <xTaskResumeAll+0xf0>)
  401666:	4798      	blx	r3
  401668:	6ae2      	ldr	r2, [r4, #44]	; 0x2c
  40166a:	4b24      	ldr	r3, [pc, #144]	; (4016fc <xTaskResumeAll+0xf4>)
  40166c:	681b      	ldr	r3, [r3, #0]
  40166e:	6adb      	ldr	r3, [r3, #44]	; 0x2c
  401670:	429a      	cmp	r2, r3
  401672:	d3dc      	bcc.n	40162e <xTaskResumeAll+0x26>
  401674:	2201      	movs	r2, #1
  401676:	4b22      	ldr	r3, [pc, #136]	; (401700 <xTaskResumeAll+0xf8>)
  401678:	601a      	str	r2, [r3, #0]
  40167a:	e7d8      	b.n	40162e <xTaskResumeAll+0x26>
  40167c:	f640 0185 	movw	r1, #2181	; 0x885
  401680:	4820      	ldr	r0, [pc, #128]	; (401704 <xTaskResumeAll+0xfc>)
  401682:	4b21      	ldr	r3, [pc, #132]	; (401708 <xTaskResumeAll+0x100>)
  401684:	4798      	blx	r3
  401686:	e7c4      	b.n	401612 <xTaskResumeAll+0xa>
  401688:	2400      	movs	r4, #0
  40168a:	e021      	b.n	4016d0 <xTaskResumeAll+0xc8>
  40168c:	b10c      	cbz	r4, 401692 <xTaskResumeAll+0x8a>
  40168e:	4b1f      	ldr	r3, [pc, #124]	; (40170c <xTaskResumeAll+0x104>)
  401690:	4798      	blx	r3
  401692:	4b1f      	ldr	r3, [pc, #124]	; (401710 <xTaskResumeAll+0x108>)
  401694:	681c      	ldr	r4, [r3, #0]
  401696:	b974      	cbnz	r4, 4016b6 <xTaskResumeAll+0xae>
  401698:	4b19      	ldr	r3, [pc, #100]	; (401700 <xTaskResumeAll+0xf8>)
  40169a:	681b      	ldr	r3, [r3, #0]
  40169c:	b1e3      	cbz	r3, 4016d8 <xTaskResumeAll+0xd0>
  40169e:	f04f 5280 	mov.w	r2, #268435456	; 0x10000000
  4016a2:	4b1c      	ldr	r3, [pc, #112]	; (401714 <xTaskResumeAll+0x10c>)
  4016a4:	601a      	str	r2, [r3, #0]
  4016a6:	f3bf 8f4f 	dsb	sy
  4016aa:	f3bf 8f6f 	isb	sy
  4016ae:	2401      	movs	r4, #1
  4016b0:	e00e      	b.n	4016d0 <xTaskResumeAll+0xc8>
  4016b2:	3c01      	subs	r4, #1
  4016b4:	d007      	beq.n	4016c6 <xTaskResumeAll+0xbe>
  4016b6:	4b18      	ldr	r3, [pc, #96]	; (401718 <xTaskResumeAll+0x110>)
  4016b8:	4798      	blx	r3
  4016ba:	2800      	cmp	r0, #0
  4016bc:	d0f9      	beq.n	4016b2 <xTaskResumeAll+0xaa>
  4016be:	2201      	movs	r2, #1
  4016c0:	4b0f      	ldr	r3, [pc, #60]	; (401700 <xTaskResumeAll+0xf8>)
  4016c2:	601a      	str	r2, [r3, #0]
  4016c4:	e7f5      	b.n	4016b2 <xTaskResumeAll+0xaa>
  4016c6:	2200      	movs	r2, #0
  4016c8:	4b11      	ldr	r3, [pc, #68]	; (401710 <xTaskResumeAll+0x108>)
  4016ca:	601a      	str	r2, [r3, #0]
  4016cc:	e7e4      	b.n	401698 <xTaskResumeAll+0x90>
  4016ce:	2400      	movs	r4, #0
  4016d0:	4b12      	ldr	r3, [pc, #72]	; (40171c <xTaskResumeAll+0x114>)
  4016d2:	4798      	blx	r3
  4016d4:	4620      	mov	r0, r4
  4016d6:	bd70      	pop	{r4, r5, r6, pc}
  4016d8:	2400      	movs	r4, #0
  4016da:	e7f9      	b.n	4016d0 <xTaskResumeAll+0xc8>
  4016dc:	20000668 	.word	0x20000668
  4016e0:	004002c5 	.word	0x004002c5
  4016e4:	2000065c 	.word	0x2000065c
  4016e8:	200006a8 	.word	0x200006a8
  4016ec:	004001cd 	.word	0x004001cd
  4016f0:	20000670 	.word	0x20000670
  4016f4:	200005bc 	.word	0x200005bc
  4016f8:	00400181 	.word	0x00400181
  4016fc:	200005b0 	.word	0x200005b0
  401700:	200006ec 	.word	0x200006ec
  401704:	00402f70 	.word	0x00402f70
  401708:	00402b69 	.word	0x00402b69
  40170c:	00401081 	.word	0x00401081
  401710:	20000664 	.word	0x20000664
  401714:	e000ed04 	.word	0xe000ed04
  401718:	004014e5 	.word	0x004014e5
  40171c:	0040030d 	.word	0x0040030d

00401720 <vTaskDelay>:
  401720:	b510      	push	{r4, lr}
  401722:	b1d8      	cbz	r0, 40175c <vTaskDelay+0x3c>
  401724:	4604      	mov	r4, r0
  401726:	4b0e      	ldr	r3, [pc, #56]	; (401760 <vTaskDelay+0x40>)
  401728:	681b      	ldr	r3, [r3, #0]
  40172a:	b98b      	cbnz	r3, 401750 <vTaskDelay+0x30>
  40172c:	4b0d      	ldr	r3, [pc, #52]	; (401764 <vTaskDelay+0x44>)
  40172e:	4798      	blx	r3
  401730:	2100      	movs	r1, #0
  401732:	4620      	mov	r0, r4
  401734:	4b0c      	ldr	r3, [pc, #48]	; (401768 <vTaskDelay+0x48>)
  401736:	4798      	blx	r3
  401738:	4b0c      	ldr	r3, [pc, #48]	; (40176c <vTaskDelay+0x4c>)
  40173a:	4798      	blx	r3
  40173c:	b938      	cbnz	r0, 40174e <vTaskDelay+0x2e>
  40173e:	f04f 5280 	mov.w	r2, #268435456	; 0x10000000
  401742:	4b0b      	ldr	r3, [pc, #44]	; (401770 <vTaskDelay+0x50>)
  401744:	601a      	str	r2, [r3, #0]
  401746:	f3bf 8f4f 	dsb	sy
  40174a:	f3bf 8f6f 	isb	sy
  40174e:	bd10      	pop	{r4, pc}
  401750:	f240 513c 	movw	r1, #1340	; 0x53c
  401754:	4807      	ldr	r0, [pc, #28]	; (401774 <vTaskDelay+0x54>)
  401756:	4b08      	ldr	r3, [pc, #32]	; (401778 <vTaskDelay+0x58>)
  401758:	4798      	blx	r3
  40175a:	e7e7      	b.n	40172c <vTaskDelay+0xc>
  40175c:	2000      	movs	r0, #0
  40175e:	e7ed      	b.n	40173c <vTaskDelay+0x1c>
  401760:	20000668 	.word	0x20000668
  401764:	004014c9 	.word	0x004014c9
  401768:	00401321 	.word	0x00401321
  40176c:	00401609 	.word	0x00401609
  401770:	e000ed04 	.word	0xe000ed04
  401774:	00402f70 	.word	0x00402f70
  401778:	00402b69 	.word	0x00402b69

0040177c <vTaskSwitchContext>:
  40177c:	4b2c      	ldr	r3, [pc, #176]	; (401830 <vTaskSwitchContext+0xb4>)
  40177e:	681b      	ldr	r3, [r3, #0]
  401780:	2b00      	cmp	r3, #0
  401782:	d135      	bne.n	4017f0 <vTaskSwitchContext+0x74>
  401784:	b510      	push	{r4, lr}
  401786:	2200      	movs	r2, #0
  401788:	4b2a      	ldr	r3, [pc, #168]	; (401834 <vTaskSwitchContext+0xb8>)
  40178a:	601a      	str	r2, [r3, #0]
  40178c:	4b2a      	ldr	r3, [pc, #168]	; (401838 <vTaskSwitchContext+0xbc>)
  40178e:	681b      	ldr	r3, [r3, #0]
  401790:	6b1b      	ldr	r3, [r3, #48]	; 0x30
  401792:	681a      	ldr	r2, [r3, #0]
  401794:	f1b2 3fa5 	cmp.w	r2, #2779096485	; 0xa5a5a5a5
  401798:	d02e      	beq.n	4017f8 <vTaskSwitchContext+0x7c>
  40179a:	4b27      	ldr	r3, [pc, #156]	; (401838 <vTaskSwitchContext+0xbc>)
  40179c:	6818      	ldr	r0, [r3, #0]
  40179e:	6819      	ldr	r1, [r3, #0]
  4017a0:	3134      	adds	r1, #52	; 0x34
  4017a2:	4b26      	ldr	r3, [pc, #152]	; (40183c <vTaskSwitchContext+0xc0>)
  4017a4:	4798      	blx	r3
  4017a6:	4b26      	ldr	r3, [pc, #152]	; (401840 <vTaskSwitchContext+0xc4>)
  4017a8:	681c      	ldr	r4, [r3, #0]
  4017aa:	fab4 f484 	clz	r4, r4
  4017ae:	b2e4      	uxtb	r4, r4
  4017b0:	f1c4 041f 	rsb	r4, r4, #31
  4017b4:	eb04 0284 	add.w	r2, r4, r4, lsl #2
  4017b8:	0093      	lsls	r3, r2, #2
  4017ba:	4a22      	ldr	r2, [pc, #136]	; (401844 <vTaskSwitchContext+0xc8>)
  4017bc:	58d3      	ldr	r3, [r2, r3]
  4017be:	b343      	cbz	r3, 401812 <vTaskSwitchContext+0x96>
  4017c0:	4920      	ldr	r1, [pc, #128]	; (401844 <vTaskSwitchContext+0xc8>)
  4017c2:	00a3      	lsls	r3, r4, #2
  4017c4:	1918      	adds	r0, r3, r4
  4017c6:	0082      	lsls	r2, r0, #2
  4017c8:	440a      	add	r2, r1
  4017ca:	6850      	ldr	r0, [r2, #4]
  4017cc:	6840      	ldr	r0, [r0, #4]
  4017ce:	6050      	str	r0, [r2, #4]
  4017d0:	4423      	add	r3, r4
  4017d2:	009a      	lsls	r2, r3, #2
  4017d4:	3208      	adds	r2, #8
  4017d6:	4411      	add	r1, r2
  4017d8:	4288      	cmp	r0, r1
  4017da:	d020      	beq.n	40181e <vTaskSwitchContext+0xa2>
  4017dc:	eb04 0484 	add.w	r4, r4, r4, lsl #2
  4017e0:	00a2      	lsls	r2, r4, #2
  4017e2:	4b18      	ldr	r3, [pc, #96]	; (401844 <vTaskSwitchContext+0xc8>)
  4017e4:	4413      	add	r3, r2
  4017e6:	685b      	ldr	r3, [r3, #4]
  4017e8:	68da      	ldr	r2, [r3, #12]
  4017ea:	4b13      	ldr	r3, [pc, #76]	; (401838 <vTaskSwitchContext+0xbc>)
  4017ec:	601a      	str	r2, [r3, #0]
  4017ee:	bd10      	pop	{r4, pc}
  4017f0:	2201      	movs	r2, #1
  4017f2:	4b10      	ldr	r3, [pc, #64]	; (401834 <vTaskSwitchContext+0xb8>)
  4017f4:	601a      	str	r2, [r3, #0]
  4017f6:	4770      	bx	lr
  4017f8:	685a      	ldr	r2, [r3, #4]
  4017fa:	f1b2 3fa5 	cmp.w	r2, #2779096485	; 0xa5a5a5a5
  4017fe:	d1cc      	bne.n	40179a <vTaskSwitchContext+0x1e>
  401800:	689a      	ldr	r2, [r3, #8]
  401802:	f1b2 3fa5 	cmp.w	r2, #2779096485	; 0xa5a5a5a5
  401806:	d1c8      	bne.n	40179a <vTaskSwitchContext+0x1e>
  401808:	68db      	ldr	r3, [r3, #12]
  40180a:	f1b3 3fa5 	cmp.w	r3, #2779096485	; 0xa5a5a5a5
  40180e:	d1c4      	bne.n	40179a <vTaskSwitchContext+0x1e>
  401810:	e7c9      	b.n	4017a6 <vTaskSwitchContext+0x2a>
  401812:	f640 31b7 	movw	r1, #2999	; 0xbb7
  401816:	480c      	ldr	r0, [pc, #48]	; (401848 <vTaskSwitchContext+0xcc>)
  401818:	4b0c      	ldr	r3, [pc, #48]	; (40184c <vTaskSwitchContext+0xd0>)
  40181a:	4798      	blx	r3
  40181c:	e7d0      	b.n	4017c0 <vTaskSwitchContext+0x44>
  40181e:	6841      	ldr	r1, [r0, #4]
  401820:	eb04 0384 	add.w	r3, r4, r4, lsl #2
  401824:	009a      	lsls	r2, r3, #2
  401826:	4b07      	ldr	r3, [pc, #28]	; (401844 <vTaskSwitchContext+0xc8>)
  401828:	4413      	add	r3, r2
  40182a:	6059      	str	r1, [r3, #4]
  40182c:	e7d6      	b.n	4017dc <vTaskSwitchContext+0x60>
  40182e:	bf00      	nop
  401830:	20000668 	.word	0x20000668
  401834:	200006ec 	.word	0x200006ec
  401838:	200005b0 	.word	0x200005b0
  40183c:	00402ba9 	.word	0x00402ba9
  401840:	20000670 	.word	0x20000670
  401844:	200005bc 	.word	0x200005bc
  401848:	00402f70 	.word	0x00402f70
  40184c:	00402b69 	.word	0x00402b69

00401850 <vTaskSuspend>:
  401850:	b538      	push	{r3, r4, r5, lr}
  401852:	4604      	mov	r4, r0
  401854:	4b2f      	ldr	r3, [pc, #188]	; (401914 <vTaskSuspend+0xc4>)
  401856:	4798      	blx	r3
  401858:	2c00      	cmp	r4, #0
  40185a:	d02b      	beq.n	4018b4 <vTaskSuspend+0x64>
  40185c:	1d25      	adds	r5, r4, #4
  40185e:	4628      	mov	r0, r5
  401860:	4b2d      	ldr	r3, [pc, #180]	; (401918 <vTaskSuspend+0xc8>)
  401862:	4798      	blx	r3
  401864:	b968      	cbnz	r0, 401882 <vTaskSuspend+0x32>
  401866:	6ae3      	ldr	r3, [r4, #44]	; 0x2c
  401868:	eb03 0183 	add.w	r1, r3, r3, lsl #2
  40186c:	008a      	lsls	r2, r1, #2
  40186e:	492b      	ldr	r1, [pc, #172]	; (40191c <vTaskSuspend+0xcc>)
  401870:	588a      	ldr	r2, [r1, r2]
  401872:	b932      	cbnz	r2, 401882 <vTaskSuspend+0x32>
  401874:	2201      	movs	r2, #1
  401876:	409a      	lsls	r2, r3
  401878:	4929      	ldr	r1, [pc, #164]	; (401920 <vTaskSuspend+0xd0>)
  40187a:	680b      	ldr	r3, [r1, #0]
  40187c:	ea23 0302 	bic.w	r3, r3, r2
  401880:	600b      	str	r3, [r1, #0]
  401882:	6aa3      	ldr	r3, [r4, #40]	; 0x28
  401884:	b11b      	cbz	r3, 40188e <vTaskSuspend+0x3e>
  401886:	f104 0018 	add.w	r0, r4, #24
  40188a:	4b23      	ldr	r3, [pc, #140]	; (401918 <vTaskSuspend+0xc8>)
  40188c:	4798      	blx	r3
  40188e:	4629      	mov	r1, r5
  401890:	4824      	ldr	r0, [pc, #144]	; (401924 <vTaskSuspend+0xd4>)
  401892:	4b25      	ldr	r3, [pc, #148]	; (401928 <vTaskSuspend+0xd8>)
  401894:	4798      	blx	r3
  401896:	f894 3060 	ldrb.w	r3, [r4, #96]	; 0x60
  40189a:	b2db      	uxtb	r3, r3
  40189c:	2b01      	cmp	r3, #1
  40189e:	d00c      	beq.n	4018ba <vTaskSuspend+0x6a>
  4018a0:	4b22      	ldr	r3, [pc, #136]	; (40192c <vTaskSuspend+0xdc>)
  4018a2:	4798      	blx	r3
  4018a4:	4b22      	ldr	r3, [pc, #136]	; (401930 <vTaskSuspend+0xe0>)
  4018a6:	681b      	ldr	r3, [r3, #0]
  4018a8:	b95b      	cbnz	r3, 4018c2 <vTaskSuspend+0x72>
  4018aa:	4b22      	ldr	r3, [pc, #136]	; (401934 <vTaskSuspend+0xe4>)
  4018ac:	681b      	ldr	r3, [r3, #0]
  4018ae:	429c      	cmp	r4, r3
  4018b0:	d00e      	beq.n	4018d0 <vTaskSuspend+0x80>
  4018b2:	bd38      	pop	{r3, r4, r5, pc}
  4018b4:	4b1f      	ldr	r3, [pc, #124]	; (401934 <vTaskSuspend+0xe4>)
  4018b6:	681c      	ldr	r4, [r3, #0]
  4018b8:	e7d0      	b.n	40185c <vTaskSuspend+0xc>
  4018ba:	2300      	movs	r3, #0
  4018bc:	f884 3060 	strb.w	r3, [r4, #96]	; 0x60
  4018c0:	e7ee      	b.n	4018a0 <vTaskSuspend+0x50>
  4018c2:	4b14      	ldr	r3, [pc, #80]	; (401914 <vTaskSuspend+0xc4>)
  4018c4:	4798      	blx	r3
  4018c6:	4b1c      	ldr	r3, [pc, #112]	; (401938 <vTaskSuspend+0xe8>)
  4018c8:	4798      	blx	r3
  4018ca:	4b18      	ldr	r3, [pc, #96]	; (40192c <vTaskSuspend+0xdc>)
  4018cc:	4798      	blx	r3
  4018ce:	e7ec      	b.n	4018aa <vTaskSuspend+0x5a>
  4018d0:	4b17      	ldr	r3, [pc, #92]	; (401930 <vTaskSuspend+0xe0>)
  4018d2:	681b      	ldr	r3, [r3, #0]
  4018d4:	b18b      	cbz	r3, 4018fa <vTaskSuspend+0xaa>
  4018d6:	4b19      	ldr	r3, [pc, #100]	; (40193c <vTaskSuspend+0xec>)
  4018d8:	681b      	ldr	r3, [r3, #0]
  4018da:	b943      	cbnz	r3, 4018ee <vTaskSuspend+0x9e>
  4018dc:	f04f 5280 	mov.w	r2, #268435456	; 0x10000000
  4018e0:	4b17      	ldr	r3, [pc, #92]	; (401940 <vTaskSuspend+0xf0>)
  4018e2:	601a      	str	r2, [r3, #0]
  4018e4:	f3bf 8f4f 	dsb	sy
  4018e8:	f3bf 8f6f 	isb	sy
  4018ec:	bd38      	pop	{r3, r4, r5, pc}
  4018ee:	f240 61e4 	movw	r1, #1764	; 0x6e4
  4018f2:	4814      	ldr	r0, [pc, #80]	; (401944 <vTaskSuspend+0xf4>)
  4018f4:	4b14      	ldr	r3, [pc, #80]	; (401948 <vTaskSuspend+0xf8>)
  4018f6:	4798      	blx	r3
  4018f8:	e7f0      	b.n	4018dc <vTaskSuspend+0x8c>
  4018fa:	4b0a      	ldr	r3, [pc, #40]	; (401924 <vTaskSuspend+0xd4>)
  4018fc:	681a      	ldr	r2, [r3, #0]
  4018fe:	4b13      	ldr	r3, [pc, #76]	; (40194c <vTaskSuspend+0xfc>)
  401900:	681b      	ldr	r3, [r3, #0]
  401902:	429a      	cmp	r2, r3
  401904:	d002      	beq.n	40190c <vTaskSuspend+0xbc>
  401906:	4b12      	ldr	r3, [pc, #72]	; (401950 <vTaskSuspend+0x100>)
  401908:	4798      	blx	r3
  40190a:	e7d2      	b.n	4018b2 <vTaskSuspend+0x62>
  40190c:	2200      	movs	r2, #0
  40190e:	4b09      	ldr	r3, [pc, #36]	; (401934 <vTaskSuspend+0xe4>)
  401910:	601a      	str	r2, [r3, #0]
  401912:	bd38      	pop	{r3, r4, r5, pc}
  401914:	004002c5 	.word	0x004002c5
  401918:	004001cd 	.word	0x004001cd
  40191c:	200005bc 	.word	0x200005bc
  401920:	20000670 	.word	0x20000670
  401924:	200006c0 	.word	0x200006c0
  401928:	00400181 	.word	0x00400181
  40192c:	0040030d 	.word	0x0040030d
  401930:	200006bc 	.word	0x200006bc
  401934:	200005b0 	.word	0x200005b0
  401938:	00401081 	.word	0x00401081
  40193c:	20000668 	.word	0x20000668
  401940:	e000ed04 	.word	0xe000ed04
  401944:	00402f70 	.word	0x00402f70
  401948:	00402b69 	.word	0x00402b69
  40194c:	2000065c 	.word	0x2000065c
  401950:	0040177d 	.word	0x0040177d

00401954 <vTaskPlaceOnEventList>:
  401954:	b538      	push	{r3, r4, r5, lr}
  401956:	460c      	mov	r4, r1
  401958:	4605      	mov	r5, r0
  40195a:	b150      	cbz	r0, 401972 <vTaskPlaceOnEventList+0x1e>
  40195c:	4b08      	ldr	r3, [pc, #32]	; (401980 <vTaskPlaceOnEventList+0x2c>)
  40195e:	6819      	ldr	r1, [r3, #0]
  401960:	3118      	adds	r1, #24
  401962:	4628      	mov	r0, r5
  401964:	4b07      	ldr	r3, [pc, #28]	; (401984 <vTaskPlaceOnEventList+0x30>)
  401966:	4798      	blx	r3
  401968:	2101      	movs	r1, #1
  40196a:	4620      	mov	r0, r4
  40196c:	4b06      	ldr	r3, [pc, #24]	; (401988 <vTaskPlaceOnEventList+0x34>)
  40196e:	4798      	blx	r3
  401970:	bd38      	pop	{r3, r4, r5, pc}
  401972:	f640 31ce 	movw	r1, #3022	; 0xbce
  401976:	4805      	ldr	r0, [pc, #20]	; (40198c <vTaskPlaceOnEventList+0x38>)
  401978:	4b05      	ldr	r3, [pc, #20]	; (401990 <vTaskPlaceOnEventList+0x3c>)
  40197a:	4798      	blx	r3
  40197c:	e7ee      	b.n	40195c <vTaskPlaceOnEventList+0x8>
  40197e:	bf00      	nop
  401980:	200005b0 	.word	0x200005b0
  401984:	00400199 	.word	0x00400199
  401988:	00401321 	.word	0x00401321
  40198c:	00402f70 	.word	0x00402f70
  401990:	00402b69 	.word	0x00402b69

00401994 <vTaskPlaceOnEventListRestricted>:
  401994:	b570      	push	{r4, r5, r6, lr}
  401996:	460d      	mov	r5, r1
  401998:	4614      	mov	r4, r2
  40199a:	4606      	mov	r6, r0
  40199c:	b168      	cbz	r0, 4019ba <vTaskPlaceOnEventListRestricted+0x26>
  40199e:	4b0a      	ldr	r3, [pc, #40]	; (4019c8 <vTaskPlaceOnEventListRestricted+0x34>)
  4019a0:	6819      	ldr	r1, [r3, #0]
  4019a2:	3118      	adds	r1, #24
  4019a4:	4630      	mov	r0, r6
  4019a6:	4b09      	ldr	r3, [pc, #36]	; (4019cc <vTaskPlaceOnEventListRestricted+0x38>)
  4019a8:	4798      	blx	r3
  4019aa:	b10c      	cbz	r4, 4019b0 <vTaskPlaceOnEventListRestricted+0x1c>
  4019ac:	f04f 35ff 	mov.w	r5, #4294967295
  4019b0:	4621      	mov	r1, r4
  4019b2:	4628      	mov	r0, r5
  4019b4:	4b06      	ldr	r3, [pc, #24]	; (4019d0 <vTaskPlaceOnEventListRestricted+0x3c>)
  4019b6:	4798      	blx	r3
  4019b8:	bd70      	pop	{r4, r5, r6, pc}
  4019ba:	f640 31f9 	movw	r1, #3065	; 0xbf9
  4019be:	4805      	ldr	r0, [pc, #20]	; (4019d4 <vTaskPlaceOnEventListRestricted+0x40>)
  4019c0:	4b05      	ldr	r3, [pc, #20]	; (4019d8 <vTaskPlaceOnEventListRestricted+0x44>)
  4019c2:	4798      	blx	r3
  4019c4:	e7eb      	b.n	40199e <vTaskPlaceOnEventListRestricted+0xa>
  4019c6:	bf00      	nop
  4019c8:	200005b0 	.word	0x200005b0
  4019cc:	00400181 	.word	0x00400181
  4019d0:	00401321 	.word	0x00401321
  4019d4:	00402f70 	.word	0x00402f70
  4019d8:	00402b69 	.word	0x00402b69

004019dc <xTaskRemoveFromEventList>:
  4019dc:	b538      	push	{r3, r4, r5, lr}
  4019de:	68c3      	ldr	r3, [r0, #12]
  4019e0:	68dc      	ldr	r4, [r3, #12]
  4019e2:	b324      	cbz	r4, 401a2e <xTaskRemoveFromEventList+0x52>
  4019e4:	f104 0518 	add.w	r5, r4, #24
  4019e8:	4628      	mov	r0, r5
  4019ea:	4b17      	ldr	r3, [pc, #92]	; (401a48 <xTaskRemoveFromEventList+0x6c>)
  4019ec:	4798      	blx	r3
  4019ee:	4b17      	ldr	r3, [pc, #92]	; (401a4c <xTaskRemoveFromEventList+0x70>)
  4019f0:	681b      	ldr	r3, [r3, #0]
  4019f2:	bb13      	cbnz	r3, 401a3a <xTaskRemoveFromEventList+0x5e>
  4019f4:	1d25      	adds	r5, r4, #4
  4019f6:	4628      	mov	r0, r5
  4019f8:	4b13      	ldr	r3, [pc, #76]	; (401a48 <xTaskRemoveFromEventList+0x6c>)
  4019fa:	4798      	blx	r3
  4019fc:	6ae3      	ldr	r3, [r4, #44]	; 0x2c
  4019fe:	2201      	movs	r2, #1
  401a00:	409a      	lsls	r2, r3
  401a02:	4913      	ldr	r1, [pc, #76]	; (401a50 <xTaskRemoveFromEventList+0x74>)
  401a04:	6808      	ldr	r0, [r1, #0]
  401a06:	4302      	orrs	r2, r0
  401a08:	600a      	str	r2, [r1, #0]
  401a0a:	eb03 0383 	add.w	r3, r3, r3, lsl #2
  401a0e:	009a      	lsls	r2, r3, #2
  401a10:	4629      	mov	r1, r5
  401a12:	4810      	ldr	r0, [pc, #64]	; (401a54 <xTaskRemoveFromEventList+0x78>)
  401a14:	4410      	add	r0, r2
  401a16:	4b10      	ldr	r3, [pc, #64]	; (401a58 <xTaskRemoveFromEventList+0x7c>)
  401a18:	4798      	blx	r3
  401a1a:	6ae2      	ldr	r2, [r4, #44]	; 0x2c
  401a1c:	4b0f      	ldr	r3, [pc, #60]	; (401a5c <xTaskRemoveFromEventList+0x80>)
  401a1e:	681b      	ldr	r3, [r3, #0]
  401a20:	6adb      	ldr	r3, [r3, #44]	; 0x2c
  401a22:	429a      	cmp	r2, r3
  401a24:	d90e      	bls.n	401a44 <xTaskRemoveFromEventList+0x68>
  401a26:	2001      	movs	r0, #1
  401a28:	4b0d      	ldr	r3, [pc, #52]	; (401a60 <xTaskRemoveFromEventList+0x84>)
  401a2a:	6018      	str	r0, [r3, #0]
  401a2c:	bd38      	pop	{r3, r4, r5, pc}
  401a2e:	f640 4129 	movw	r1, #3113	; 0xc29
  401a32:	480c      	ldr	r0, [pc, #48]	; (401a64 <xTaskRemoveFromEventList+0x88>)
  401a34:	4b0c      	ldr	r3, [pc, #48]	; (401a68 <xTaskRemoveFromEventList+0x8c>)
  401a36:	4798      	blx	r3
  401a38:	e7d4      	b.n	4019e4 <xTaskRemoveFromEventList+0x8>
  401a3a:	4629      	mov	r1, r5
  401a3c:	480b      	ldr	r0, [pc, #44]	; (401a6c <xTaskRemoveFromEventList+0x90>)
  401a3e:	4b06      	ldr	r3, [pc, #24]	; (401a58 <xTaskRemoveFromEventList+0x7c>)
  401a40:	4798      	blx	r3
  401a42:	e7ea      	b.n	401a1a <xTaskRemoveFromEventList+0x3e>
  401a44:	2000      	movs	r0, #0
  401a46:	bd38      	pop	{r3, r4, r5, pc}
  401a48:	004001cd 	.word	0x004001cd
  401a4c:	20000668 	.word	0x20000668
  401a50:	20000670 	.word	0x20000670
  401a54:	200005bc 	.word	0x200005bc
  401a58:	00400181 	.word	0x00400181
  401a5c:	200005b0 	.word	0x200005b0
  401a60:	200006ec 	.word	0x200006ec
  401a64:	00402f70 	.word	0x00402f70
  401a68:	00402b69 	.word	0x00402b69
  401a6c:	200006a8 	.word	0x200006a8

00401a70 <vTaskInternalSetTimeOutState>:
  401a70:	4b03      	ldr	r3, [pc, #12]	; (401a80 <vTaskInternalSetTimeOutState+0x10>)
  401a72:	681b      	ldr	r3, [r3, #0]
  401a74:	6003      	str	r3, [r0, #0]
  401a76:	4b03      	ldr	r3, [pc, #12]	; (401a84 <vTaskInternalSetTimeOutState+0x14>)
  401a78:	681b      	ldr	r3, [r3, #0]
  401a7a:	6043      	str	r3, [r0, #4]
  401a7c:	4770      	bx	lr
  401a7e:	bf00      	nop
  401a80:	200006a4 	.word	0x200006a4
  401a84:	200006e8 	.word	0x200006e8

00401a88 <xTaskCheckForTimeOut>:
  401a88:	b5f8      	push	{r3, r4, r5, r6, r7, lr}
  401a8a:	460c      	mov	r4, r1
  401a8c:	4605      	mov	r5, r0
  401a8e:	b1d0      	cbz	r0, 401ac6 <xTaskCheckForTimeOut+0x3e>
  401a90:	b1fc      	cbz	r4, 401ad2 <xTaskCheckForTimeOut+0x4a>
  401a92:	4b18      	ldr	r3, [pc, #96]	; (401af4 <xTaskCheckForTimeOut+0x6c>)
  401a94:	4798      	blx	r3
  401a96:	4b18      	ldr	r3, [pc, #96]	; (401af8 <xTaskCheckForTimeOut+0x70>)
  401a98:	6819      	ldr	r1, [r3, #0]
  401a9a:	686a      	ldr	r2, [r5, #4]
  401a9c:	1a88      	subs	r0, r1, r2
  401a9e:	6823      	ldr	r3, [r4, #0]
  401aa0:	f1b3 3fff 	cmp.w	r3, #4294967295
  401aa4:	d022      	beq.n	401aec <xTaskCheckForTimeOut+0x64>
  401aa6:	682f      	ldr	r7, [r5, #0]
  401aa8:	4e14      	ldr	r6, [pc, #80]	; (401afc <xTaskCheckForTimeOut+0x74>)
  401aaa:	6836      	ldr	r6, [r6, #0]
  401aac:	42b7      	cmp	r7, r6
  401aae:	d001      	beq.n	401ab4 <xTaskCheckForTimeOut+0x2c>
  401ab0:	4291      	cmp	r1, r2
  401ab2:	d21d      	bcs.n	401af0 <xTaskCheckForTimeOut+0x68>
  401ab4:	4298      	cmp	r0, r3
  401ab6:	d312      	bcc.n	401ade <xTaskCheckForTimeOut+0x56>
  401ab8:	2300      	movs	r3, #0
  401aba:	6023      	str	r3, [r4, #0]
  401abc:	2401      	movs	r4, #1
  401abe:	4b10      	ldr	r3, [pc, #64]	; (401b00 <xTaskCheckForTimeOut+0x78>)
  401ac0:	4798      	blx	r3
  401ac2:	4620      	mov	r0, r4
  401ac4:	bdf8      	pop	{r3, r4, r5, r6, r7, pc}
  401ac6:	f640 4194 	movw	r1, #3220	; 0xc94
  401aca:	480e      	ldr	r0, [pc, #56]	; (401b04 <xTaskCheckForTimeOut+0x7c>)
  401acc:	4b0e      	ldr	r3, [pc, #56]	; (401b08 <xTaskCheckForTimeOut+0x80>)
  401ace:	4798      	blx	r3
  401ad0:	e7de      	b.n	401a90 <xTaskCheckForTimeOut+0x8>
  401ad2:	f640 4195 	movw	r1, #3221	; 0xc95
  401ad6:	480b      	ldr	r0, [pc, #44]	; (401b04 <xTaskCheckForTimeOut+0x7c>)
  401ad8:	4b0b      	ldr	r3, [pc, #44]	; (401b08 <xTaskCheckForTimeOut+0x80>)
  401ada:	4798      	blx	r3
  401adc:	e7d9      	b.n	401a92 <xTaskCheckForTimeOut+0xa>
  401ade:	1a1b      	subs	r3, r3, r0
  401ae0:	6023      	str	r3, [r4, #0]
  401ae2:	4628      	mov	r0, r5
  401ae4:	4b09      	ldr	r3, [pc, #36]	; (401b0c <xTaskCheckForTimeOut+0x84>)
  401ae6:	4798      	blx	r3
  401ae8:	2400      	movs	r4, #0
  401aea:	e7e8      	b.n	401abe <xTaskCheckForTimeOut+0x36>
  401aec:	2400      	movs	r4, #0
  401aee:	e7e6      	b.n	401abe <xTaskCheckForTimeOut+0x36>
  401af0:	2401      	movs	r4, #1
  401af2:	e7e4      	b.n	401abe <xTaskCheckForTimeOut+0x36>
  401af4:	004002c5 	.word	0x004002c5
  401af8:	200006e8 	.word	0x200006e8
  401afc:	200006a4 	.word	0x200006a4
  401b00:	0040030d 	.word	0x0040030d
  401b04:	00402f70 	.word	0x00402f70
  401b08:	00402b69 	.word	0x00402b69
  401b0c:	00401a71 	.word	0x00401a71

00401b10 <vTaskMissedYield>:
  401b10:	2201      	movs	r2, #1
  401b12:	4b01      	ldr	r3, [pc, #4]	; (401b18 <vTaskMissedYield+0x8>)
  401b14:	601a      	str	r2, [r3, #0]
  401b16:	4770      	bx	lr
  401b18:	200006ec 	.word	0x200006ec

00401b1c <xTaskGetSchedulerState>:
  401b1c:	4b05      	ldr	r3, [pc, #20]	; (401b34 <xTaskGetSchedulerState+0x18>)
  401b1e:	681b      	ldr	r3, [r3, #0]
  401b20:	b123      	cbz	r3, 401b2c <xTaskGetSchedulerState+0x10>
  401b22:	4b05      	ldr	r3, [pc, #20]	; (401b38 <xTaskGetSchedulerState+0x1c>)
  401b24:	681b      	ldr	r3, [r3, #0]
  401b26:	b91b      	cbnz	r3, 401b30 <xTaskGetSchedulerState+0x14>
  401b28:	2002      	movs	r0, #2
  401b2a:	4770      	bx	lr
  401b2c:	2001      	movs	r0, #1
  401b2e:	4770      	bx	lr
  401b30:	2000      	movs	r0, #0
  401b32:	4770      	bx	lr
  401b34:	200006bc 	.word	0x200006bc
  401b38:	20000668 	.word	0x20000668

00401b3c <xTaskPriorityDisinherit>:
  401b3c:	2800      	cmp	r0, #0
  401b3e:	d045      	beq.n	401bcc <xTaskPriorityDisinherit+0x90>
  401b40:	b538      	push	{r3, r4, r5, lr}
  401b42:	4604      	mov	r4, r0
  401b44:	4b23      	ldr	r3, [pc, #140]	; (401bd4 <xTaskPriorityDisinherit+0x98>)
  401b46:	681b      	ldr	r3, [r3, #0]
  401b48:	4298      	cmp	r0, r3
  401b4a:	d004      	beq.n	401b56 <xTaskPriorityDisinherit+0x1a>
  401b4c:	f640 71d1 	movw	r1, #4049	; 0xfd1
  401b50:	4821      	ldr	r0, [pc, #132]	; (401bd8 <xTaskPriorityDisinherit+0x9c>)
  401b52:	4b22      	ldr	r3, [pc, #136]	; (401bdc <xTaskPriorityDisinherit+0xa0>)
  401b54:	4798      	blx	r3
  401b56:	6ce3      	ldr	r3, [r4, #76]	; 0x4c
  401b58:	b14b      	cbz	r3, 401b6e <xTaskPriorityDisinherit+0x32>
  401b5a:	6ce3      	ldr	r3, [r4, #76]	; 0x4c
  401b5c:	3b01      	subs	r3, #1
  401b5e:	64e3      	str	r3, [r4, #76]	; 0x4c
  401b60:	6ae1      	ldr	r1, [r4, #44]	; 0x2c
  401b62:	6ca2      	ldr	r2, [r4, #72]	; 0x48
  401b64:	4291      	cmp	r1, r2
  401b66:	d033      	beq.n	401bd0 <xTaskPriorityDisinherit+0x94>
  401b68:	b13b      	cbz	r3, 401b7a <xTaskPriorityDisinherit+0x3e>
  401b6a:	2000      	movs	r0, #0
  401b6c:	bd38      	pop	{r3, r4, r5, pc}
  401b6e:	f640 71d2 	movw	r1, #4050	; 0xfd2
  401b72:	4819      	ldr	r0, [pc, #100]	; (401bd8 <xTaskPriorityDisinherit+0x9c>)
  401b74:	4b19      	ldr	r3, [pc, #100]	; (401bdc <xTaskPriorityDisinherit+0xa0>)
  401b76:	4798      	blx	r3
  401b78:	e7ef      	b.n	401b5a <xTaskPriorityDisinherit+0x1e>
  401b7a:	1d25      	adds	r5, r4, #4
  401b7c:	4628      	mov	r0, r5
  401b7e:	4b18      	ldr	r3, [pc, #96]	; (401be0 <xTaskPriorityDisinherit+0xa4>)
  401b80:	4798      	blx	r3
  401b82:	b968      	cbnz	r0, 401ba0 <xTaskPriorityDisinherit+0x64>
  401b84:	6ae3      	ldr	r3, [r4, #44]	; 0x2c
  401b86:	eb03 0183 	add.w	r1, r3, r3, lsl #2
  401b8a:	008a      	lsls	r2, r1, #2
  401b8c:	4915      	ldr	r1, [pc, #84]	; (401be4 <xTaskPriorityDisinherit+0xa8>)
  401b8e:	588a      	ldr	r2, [r1, r2]
  401b90:	b932      	cbnz	r2, 401ba0 <xTaskPriorityDisinherit+0x64>
  401b92:	2201      	movs	r2, #1
  401b94:	409a      	lsls	r2, r3
  401b96:	4914      	ldr	r1, [pc, #80]	; (401be8 <xTaskPriorityDisinherit+0xac>)
  401b98:	680b      	ldr	r3, [r1, #0]
  401b9a:	ea23 0302 	bic.w	r3, r3, r2
  401b9e:	600b      	str	r3, [r1, #0]
  401ba0:	6ca3      	ldr	r3, [r4, #72]	; 0x48
  401ba2:	62e3      	str	r3, [r4, #44]	; 0x2c
  401ba4:	f1c3 0208 	rsb	r2, r3, #8
  401ba8:	61a2      	str	r2, [r4, #24]
  401baa:	2401      	movs	r4, #1
  401bac:	fa04 f203 	lsl.w	r2, r4, r3
  401bb0:	490d      	ldr	r1, [pc, #52]	; (401be8 <xTaskPriorityDisinherit+0xac>)
  401bb2:	6808      	ldr	r0, [r1, #0]
  401bb4:	4302      	orrs	r2, r0
  401bb6:	600a      	str	r2, [r1, #0]
  401bb8:	eb03 0383 	add.w	r3, r3, r3, lsl #2
  401bbc:	009a      	lsls	r2, r3, #2
  401bbe:	4629      	mov	r1, r5
  401bc0:	4808      	ldr	r0, [pc, #32]	; (401be4 <xTaskPriorityDisinherit+0xa8>)
  401bc2:	4410      	add	r0, r2
  401bc4:	4b09      	ldr	r3, [pc, #36]	; (401bec <xTaskPriorityDisinherit+0xb0>)
  401bc6:	4798      	blx	r3
  401bc8:	4620      	mov	r0, r4
  401bca:	bd38      	pop	{r3, r4, r5, pc}
  401bcc:	2000      	movs	r0, #0
  401bce:	4770      	bx	lr
  401bd0:	2000      	movs	r0, #0
  401bd2:	bd38      	pop	{r3, r4, r5, pc}
  401bd4:	200005b0 	.word	0x200005b0
  401bd8:	00402f70 	.word	0x00402f70
  401bdc:	00402b69 	.word	0x00402b69
  401be0:	004001cd 	.word	0x004001cd
  401be4:	200005bc 	.word	0x200005bc
  401be8:	20000670 	.word	0x20000670
  401bec:	00400181 	.word	0x00400181

00401bf0 <prvGetNextExpireTime>:
  401bf0:	4b06      	ldr	r3, [pc, #24]	; (401c0c <prvGetNextExpireTime+0x1c>)
  401bf2:	681a      	ldr	r2, [r3, #0]
  401bf4:	6813      	ldr	r3, [r2, #0]
  401bf6:	b92b      	cbnz	r3, 401c04 <prvGetNextExpireTime+0x14>
  401bf8:	2301      	movs	r3, #1
  401bfa:	6003      	str	r3, [r0, #0]
  401bfc:	b923      	cbnz	r3, 401c08 <prvGetNextExpireTime+0x18>
  401bfe:	68d3      	ldr	r3, [r2, #12]
  401c00:	6818      	ldr	r0, [r3, #0]
  401c02:	4770      	bx	lr
  401c04:	2300      	movs	r3, #0
  401c06:	e7f8      	b.n	401bfa <prvGetNextExpireTime+0xa>
  401c08:	2000      	movs	r0, #0
  401c0a:	4770      	bx	lr
  401c0c:	200006f0 	.word	0x200006f0

00401c10 <prvInsertTimerInActiveList>:
  401c10:	b508      	push	{r3, lr}
  401c12:	6041      	str	r1, [r0, #4]
  401c14:	6100      	str	r0, [r0, #16]
  401c16:	4291      	cmp	r1, r2
  401c18:	d80c      	bhi.n	401c34 <prvInsertTimerInActiveList+0x24>
  401c1a:	1ad2      	subs	r2, r2, r3
  401c1c:	6983      	ldr	r3, [r0, #24]
  401c1e:	429a      	cmp	r2, r3
  401c20:	d301      	bcc.n	401c26 <prvInsertTimerInActiveList+0x16>
  401c22:	2001      	movs	r0, #1
  401c24:	bd08      	pop	{r3, pc}
  401c26:	1d01      	adds	r1, r0, #4
  401c28:	4b09      	ldr	r3, [pc, #36]	; (401c50 <prvInsertTimerInActiveList+0x40>)
  401c2a:	6818      	ldr	r0, [r3, #0]
  401c2c:	4b09      	ldr	r3, [pc, #36]	; (401c54 <prvInsertTimerInActiveList+0x44>)
  401c2e:	4798      	blx	r3
  401c30:	2000      	movs	r0, #0
  401c32:	bd08      	pop	{r3, pc}
  401c34:	429a      	cmp	r2, r3
  401c36:	d201      	bcs.n	401c3c <prvInsertTimerInActiveList+0x2c>
  401c38:	4299      	cmp	r1, r3
  401c3a:	d206      	bcs.n	401c4a <prvInsertTimerInActiveList+0x3a>
  401c3c:	1d01      	adds	r1, r0, #4
  401c3e:	4b06      	ldr	r3, [pc, #24]	; (401c58 <prvInsertTimerInActiveList+0x48>)
  401c40:	6818      	ldr	r0, [r3, #0]
  401c42:	4b04      	ldr	r3, [pc, #16]	; (401c54 <prvInsertTimerInActiveList+0x44>)
  401c44:	4798      	blx	r3
  401c46:	2000      	movs	r0, #0
  401c48:	bd08      	pop	{r3, pc}
  401c4a:	2001      	movs	r0, #1
  401c4c:	bd08      	pop	{r3, pc}
  401c4e:	bf00      	nop
  401c50:	200006f4 	.word	0x200006f4
  401c54:	00400199 	.word	0x00400199
  401c58:	200006f0 	.word	0x200006f0

00401c5c <prvCheckForValidListAndQueue>:
  401c5c:	b570      	push	{r4, r5, r6, lr}
  401c5e:	4b10      	ldr	r3, [pc, #64]	; (401ca0 <prvCheckForValidListAndQueue+0x44>)
  401c60:	4798      	blx	r3
  401c62:	4b10      	ldr	r3, [pc, #64]	; (401ca4 <prvCheckForValidListAndQueue+0x48>)
  401c64:	681b      	ldr	r3, [r3, #0]
  401c66:	b113      	cbz	r3, 401c6e <prvCheckForValidListAndQueue+0x12>
  401c68:	4b0f      	ldr	r3, [pc, #60]	; (401ca8 <prvCheckForValidListAndQueue+0x4c>)
  401c6a:	4798      	blx	r3
  401c6c:	bd70      	pop	{r4, r5, r6, pc}
  401c6e:	4d0f      	ldr	r5, [pc, #60]	; (401cac <prvCheckForValidListAndQueue+0x50>)
  401c70:	4628      	mov	r0, r5
  401c72:	4e0f      	ldr	r6, [pc, #60]	; (401cb0 <prvCheckForValidListAndQueue+0x54>)
  401c74:	47b0      	blx	r6
  401c76:	4c0f      	ldr	r4, [pc, #60]	; (401cb4 <prvCheckForValidListAndQueue+0x58>)
  401c78:	4620      	mov	r0, r4
  401c7a:	47b0      	blx	r6
  401c7c:	4b0e      	ldr	r3, [pc, #56]	; (401cb8 <prvCheckForValidListAndQueue+0x5c>)
  401c7e:	601d      	str	r5, [r3, #0]
  401c80:	4b0e      	ldr	r3, [pc, #56]	; (401cbc <prvCheckForValidListAndQueue+0x60>)
  401c82:	601c      	str	r4, [r3, #0]
  401c84:	2200      	movs	r2, #0
  401c86:	2110      	movs	r1, #16
  401c88:	2005      	movs	r0, #5
  401c8a:	4b0d      	ldr	r3, [pc, #52]	; (401cc0 <prvCheckForValidListAndQueue+0x64>)
  401c8c:	4798      	blx	r3
  401c8e:	4b05      	ldr	r3, [pc, #20]	; (401ca4 <prvCheckForValidListAndQueue+0x48>)
  401c90:	6018      	str	r0, [r3, #0]
  401c92:	2800      	cmp	r0, #0
  401c94:	d0e8      	beq.n	401c68 <prvCheckForValidListAndQueue+0xc>
  401c96:	490b      	ldr	r1, [pc, #44]	; (401cc4 <prvCheckForValidListAndQueue+0x68>)
  401c98:	4b0b      	ldr	r3, [pc, #44]	; (401cc8 <prvCheckForValidListAndQueue+0x6c>)
  401c9a:	4798      	blx	r3
  401c9c:	e7e4      	b.n	401c68 <prvCheckForValidListAndQueue+0xc>
  401c9e:	bf00      	nop
  401ca0:	004002c5 	.word	0x004002c5
  401ca4:	20000724 	.word	0x20000724
  401ca8:	0040030d 	.word	0x0040030d
  401cac:	200006f8 	.word	0x200006f8
  401cb0:	00400165 	.word	0x00400165
  401cb4:	2000070c 	.word	0x2000070c
  401cb8:	200006f0 	.word	0x200006f0
  401cbc:	200006f4 	.word	0x200006f4
  401cc0:	00400ae5 	.word	0x00400ae5
  401cc4:	00402f90 	.word	0x00402f90
  401cc8:	00400ff5 	.word	0x00400ff5

00401ccc <xTimerCreateTimerTask>:
  401ccc:	b510      	push	{r4, lr}
  401cce:	b082      	sub	sp, #8
  401cd0:	4b0e      	ldr	r3, [pc, #56]	; (401d0c <xTimerCreateTimerTask+0x40>)
  401cd2:	4798      	blx	r3
  401cd4:	4b0e      	ldr	r3, [pc, #56]	; (401d10 <xTimerCreateTimerTask+0x44>)
  401cd6:	681b      	ldr	r3, [r3, #0]
  401cd8:	b17b      	cbz	r3, 401cfa <xTimerCreateTimerTask+0x2e>
  401cda:	4b0e      	ldr	r3, [pc, #56]	; (401d14 <xTimerCreateTimerTask+0x48>)
  401cdc:	9301      	str	r3, [sp, #4]
  401cde:	2307      	movs	r3, #7
  401ce0:	9300      	str	r3, [sp, #0]
  401ce2:	2300      	movs	r3, #0
  401ce4:	f44f 7282 	mov.w	r2, #260	; 0x104
  401ce8:	490b      	ldr	r1, [pc, #44]	; (401d18 <xTimerCreateTimerTask+0x4c>)
  401cea:	480c      	ldr	r0, [pc, #48]	; (401d1c <xTimerCreateTimerTask+0x50>)
  401cec:	4c0c      	ldr	r4, [pc, #48]	; (401d20 <xTimerCreateTimerTask+0x54>)
  401cee:	47a0      	blx	r4
  401cf0:	4604      	mov	r4, r0
  401cf2:	b124      	cbz	r4, 401cfe <xTimerCreateTimerTask+0x32>
  401cf4:	4620      	mov	r0, r4
  401cf6:	b002      	add	sp, #8
  401cf8:	bd10      	pop	{r4, pc}
  401cfa:	2400      	movs	r4, #0
  401cfc:	e7f9      	b.n	401cf2 <xTimerCreateTimerTask+0x26>
  401cfe:	f240 1113 	movw	r1, #275	; 0x113
  401d02:	4808      	ldr	r0, [pc, #32]	; (401d24 <xTimerCreateTimerTask+0x58>)
  401d04:	4b08      	ldr	r3, [pc, #32]	; (401d28 <xTimerCreateTimerTask+0x5c>)
  401d06:	4798      	blx	r3
  401d08:	e7f4      	b.n	401cf4 <xTimerCreateTimerTask+0x28>
  401d0a:	bf00      	nop
  401d0c:	00401c5d 	.word	0x00401c5d
  401d10:	20000724 	.word	0x20000724
  401d14:	20000728 	.word	0x20000728
  401d18:	00402fb4 	.word	0x00402fb4
  401d1c:	00402095 	.word	0x00402095
  401d20:	004013c5 	.word	0x004013c5
  401d24:	00402f98 	.word	0x00402f98
  401d28:	00402b69 	.word	0x00402b69

00401d2c <xTimerGenericCommand>:
  401d2c:	b5f0      	push	{r4, r5, r6, r7, lr}
  401d2e:	b085      	sub	sp, #20
  401d30:	460c      	mov	r4, r1
  401d32:	4616      	mov	r6, r2
  401d34:	461f      	mov	r7, r3
  401d36:	4605      	mov	r5, r0
  401d38:	b198      	cbz	r0, 401d62 <xTimerGenericCommand+0x36>
  401d3a:	4b15      	ldr	r3, [pc, #84]	; (401d90 <xTimerGenericCommand+0x64>)
  401d3c:	6818      	ldr	r0, [r3, #0]
  401d3e:	b328      	cbz	r0, 401d8c <xTimerGenericCommand+0x60>
  401d40:	9400      	str	r4, [sp, #0]
  401d42:	9601      	str	r6, [sp, #4]
  401d44:	9502      	str	r5, [sp, #8]
  401d46:	2c05      	cmp	r4, #5
  401d48:	dc19      	bgt.n	401d7e <xTimerGenericCommand+0x52>
  401d4a:	4b12      	ldr	r3, [pc, #72]	; (401d94 <xTimerGenericCommand+0x68>)
  401d4c:	4798      	blx	r3
  401d4e:	2802      	cmp	r0, #2
  401d50:	d00d      	beq.n	401d6e <xTimerGenericCommand+0x42>
  401d52:	2300      	movs	r3, #0
  401d54:	461a      	mov	r2, r3
  401d56:	4669      	mov	r1, sp
  401d58:	480d      	ldr	r0, [pc, #52]	; (401d90 <xTimerGenericCommand+0x64>)
  401d5a:	6800      	ldr	r0, [r0, #0]
  401d5c:	4c0e      	ldr	r4, [pc, #56]	; (401d98 <xTimerGenericCommand+0x6c>)
  401d5e:	47a0      	blx	r4
  401d60:	e012      	b.n	401d88 <xTimerGenericCommand+0x5c>
  401d62:	f44f 71c1 	mov.w	r1, #386	; 0x182
  401d66:	480d      	ldr	r0, [pc, #52]	; (401d9c <xTimerGenericCommand+0x70>)
  401d68:	4b0d      	ldr	r3, [pc, #52]	; (401da0 <xTimerGenericCommand+0x74>)
  401d6a:	4798      	blx	r3
  401d6c:	e7e5      	b.n	401d3a <xTimerGenericCommand+0xe>
  401d6e:	2300      	movs	r3, #0
  401d70:	9a0a      	ldr	r2, [sp, #40]	; 0x28
  401d72:	4669      	mov	r1, sp
  401d74:	4806      	ldr	r0, [pc, #24]	; (401d90 <xTimerGenericCommand+0x64>)
  401d76:	6800      	ldr	r0, [r0, #0]
  401d78:	4c07      	ldr	r4, [pc, #28]	; (401d98 <xTimerGenericCommand+0x6c>)
  401d7a:	47a0      	blx	r4
  401d7c:	e004      	b.n	401d88 <xTimerGenericCommand+0x5c>
  401d7e:	2300      	movs	r3, #0
  401d80:	463a      	mov	r2, r7
  401d82:	4669      	mov	r1, sp
  401d84:	4c07      	ldr	r4, [pc, #28]	; (401da4 <xTimerGenericCommand+0x78>)
  401d86:	47a0      	blx	r4
  401d88:	b005      	add	sp, #20
  401d8a:	bdf0      	pop	{r4, r5, r6, r7, pc}
  401d8c:	2000      	movs	r0, #0
  401d8e:	e7fb      	b.n	401d88 <xTimerGenericCommand+0x5c>
  401d90:	20000724 	.word	0x20000724
  401d94:	00401b1d 	.word	0x00401b1d
  401d98:	00400b39 	.word	0x00400b39
  401d9c:	00402f98 	.word	0x00402f98
  401da0:	00402b69 	.word	0x00402b69
  401da4:	00400d25 	.word	0x00400d25

00401da8 <prvSwitchTimerLists>:
  401da8:	b570      	push	{r4, r5, r6, lr}
  401daa:	b082      	sub	sp, #8
  401dac:	4b1a      	ldr	r3, [pc, #104]	; (401e18 <prvSwitchTimerLists+0x70>)
  401dae:	681b      	ldr	r3, [r3, #0]
  401db0:	681a      	ldr	r2, [r3, #0]
  401db2:	b34a      	cbz	r2, 401e08 <prvSwitchTimerLists+0x60>
  401db4:	68db      	ldr	r3, [r3, #12]
  401db6:	681e      	ldr	r6, [r3, #0]
  401db8:	68dc      	ldr	r4, [r3, #12]
  401dba:	1d25      	adds	r5, r4, #4
  401dbc:	4628      	mov	r0, r5
  401dbe:	4b17      	ldr	r3, [pc, #92]	; (401e1c <prvSwitchTimerLists+0x74>)
  401dc0:	4798      	blx	r3
  401dc2:	6a23      	ldr	r3, [r4, #32]
  401dc4:	4620      	mov	r0, r4
  401dc6:	4798      	blx	r3
  401dc8:	f894 3024 	ldrb.w	r3, [r4, #36]	; 0x24
  401dcc:	f013 0f04 	tst.w	r3, #4
  401dd0:	d0ec      	beq.n	401dac <prvSwitchTimerLists+0x4>
  401dd2:	69a3      	ldr	r3, [r4, #24]
  401dd4:	4433      	add	r3, r6
  401dd6:	429e      	cmp	r6, r3
  401dd8:	d207      	bcs.n	401dea <prvSwitchTimerLists+0x42>
  401dda:	6063      	str	r3, [r4, #4]
  401ddc:	6124      	str	r4, [r4, #16]
  401dde:	4629      	mov	r1, r5
  401de0:	4b0d      	ldr	r3, [pc, #52]	; (401e18 <prvSwitchTimerLists+0x70>)
  401de2:	6818      	ldr	r0, [r3, #0]
  401de4:	4b0e      	ldr	r3, [pc, #56]	; (401e20 <prvSwitchTimerLists+0x78>)
  401de6:	4798      	blx	r3
  401de8:	e7e0      	b.n	401dac <prvSwitchTimerLists+0x4>
  401dea:	2100      	movs	r1, #0
  401dec:	9100      	str	r1, [sp, #0]
  401dee:	460b      	mov	r3, r1
  401df0:	4632      	mov	r2, r6
  401df2:	4620      	mov	r0, r4
  401df4:	4c0b      	ldr	r4, [pc, #44]	; (401e24 <prvSwitchTimerLists+0x7c>)
  401df6:	47a0      	blx	r4
  401df8:	2800      	cmp	r0, #0
  401dfa:	d1d7      	bne.n	401dac <prvSwitchTimerLists+0x4>
  401dfc:	f44f 7161 	mov.w	r1, #900	; 0x384
  401e00:	4809      	ldr	r0, [pc, #36]	; (401e28 <prvSwitchTimerLists+0x80>)
  401e02:	4b0a      	ldr	r3, [pc, #40]	; (401e2c <prvSwitchTimerLists+0x84>)
  401e04:	4798      	blx	r3
  401e06:	e7d1      	b.n	401dac <prvSwitchTimerLists+0x4>
  401e08:	4a09      	ldr	r2, [pc, #36]	; (401e30 <prvSwitchTimerLists+0x88>)
  401e0a:	6810      	ldr	r0, [r2, #0]
  401e0c:	4902      	ldr	r1, [pc, #8]	; (401e18 <prvSwitchTimerLists+0x70>)
  401e0e:	6008      	str	r0, [r1, #0]
  401e10:	6013      	str	r3, [r2, #0]
  401e12:	b002      	add	sp, #8
  401e14:	bd70      	pop	{r4, r5, r6, pc}
  401e16:	bf00      	nop
  401e18:	200006f0 	.word	0x200006f0
  401e1c:	004001cd 	.word	0x004001cd
  401e20:	00400199 	.word	0x00400199
  401e24:	00401d2d 	.word	0x00401d2d
  401e28:	00402f98 	.word	0x00402f98
  401e2c:	00402b69 	.word	0x00402b69
  401e30:	200006f4 	.word	0x200006f4

00401e34 <prvSampleTimeNow>:
  401e34:	b538      	push	{r3, r4, r5, lr}
  401e36:	4605      	mov	r5, r0
  401e38:	4b08      	ldr	r3, [pc, #32]	; (401e5c <prvSampleTimeNow+0x28>)
  401e3a:	4798      	blx	r3
  401e3c:	4604      	mov	r4, r0
  401e3e:	4b08      	ldr	r3, [pc, #32]	; (401e60 <prvSampleTimeNow+0x2c>)
  401e40:	681b      	ldr	r3, [r3, #0]
  401e42:	4298      	cmp	r0, r3
  401e44:	d305      	bcc.n	401e52 <prvSampleTimeNow+0x1e>
  401e46:	2300      	movs	r3, #0
  401e48:	602b      	str	r3, [r5, #0]
  401e4a:	4b05      	ldr	r3, [pc, #20]	; (401e60 <prvSampleTimeNow+0x2c>)
  401e4c:	601c      	str	r4, [r3, #0]
  401e4e:	4620      	mov	r0, r4
  401e50:	bd38      	pop	{r3, r4, r5, pc}
  401e52:	4b04      	ldr	r3, [pc, #16]	; (401e64 <prvSampleTimeNow+0x30>)
  401e54:	4798      	blx	r3
  401e56:	2301      	movs	r3, #1
  401e58:	602b      	str	r3, [r5, #0]
  401e5a:	e7f6      	b.n	401e4a <prvSampleTimeNow+0x16>
  401e5c:	004014d9 	.word	0x004014d9
  401e60:	20000720 	.word	0x20000720
  401e64:	00401da9 	.word	0x00401da9

00401e68 <prvProcessExpiredTimer>:
  401e68:	b570      	push	{r4, r5, r6, lr}
  401e6a:	b082      	sub	sp, #8
  401e6c:	4605      	mov	r5, r0
  401e6e:	460e      	mov	r6, r1
  401e70:	4b16      	ldr	r3, [pc, #88]	; (401ecc <prvProcessExpiredTimer+0x64>)
  401e72:	681b      	ldr	r3, [r3, #0]
  401e74:	68db      	ldr	r3, [r3, #12]
  401e76:	68dc      	ldr	r4, [r3, #12]
  401e78:	1d20      	adds	r0, r4, #4
  401e7a:	4b15      	ldr	r3, [pc, #84]	; (401ed0 <prvProcessExpiredTimer+0x68>)
  401e7c:	4798      	blx	r3
  401e7e:	f894 3024 	ldrb.w	r3, [r4, #36]	; 0x24
  401e82:	f013 0f04 	tst.w	r3, #4
  401e86:	d108      	bne.n	401e9a <prvProcessExpiredTimer+0x32>
  401e88:	f023 0301 	bic.w	r3, r3, #1
  401e8c:	f884 3024 	strb.w	r3, [r4, #36]	; 0x24
  401e90:	6a23      	ldr	r3, [r4, #32]
  401e92:	4620      	mov	r0, r4
  401e94:	4798      	blx	r3
  401e96:	b002      	add	sp, #8
  401e98:	bd70      	pop	{r4, r5, r6, pc}
  401e9a:	69a1      	ldr	r1, [r4, #24]
  401e9c:	462b      	mov	r3, r5
  401e9e:	4632      	mov	r2, r6
  401ea0:	4429      	add	r1, r5
  401ea2:	4620      	mov	r0, r4
  401ea4:	4e0b      	ldr	r6, [pc, #44]	; (401ed4 <prvProcessExpiredTimer+0x6c>)
  401ea6:	47b0      	blx	r6
  401ea8:	2800      	cmp	r0, #0
  401eaa:	d0f1      	beq.n	401e90 <prvProcessExpiredTimer+0x28>
  401eac:	2100      	movs	r1, #0
  401eae:	9100      	str	r1, [sp, #0]
  401eb0:	460b      	mov	r3, r1
  401eb2:	462a      	mov	r2, r5
  401eb4:	4620      	mov	r0, r4
  401eb6:	4d08      	ldr	r5, [pc, #32]	; (401ed8 <prvProcessExpiredTimer+0x70>)
  401eb8:	47a8      	blx	r5
  401eba:	2800      	cmp	r0, #0
  401ebc:	d1e8      	bne.n	401e90 <prvProcessExpiredTimer+0x28>
  401ebe:	f44f 71fc 	mov.w	r1, #504	; 0x1f8
  401ec2:	4806      	ldr	r0, [pc, #24]	; (401edc <prvProcessExpiredTimer+0x74>)
  401ec4:	4b06      	ldr	r3, [pc, #24]	; (401ee0 <prvProcessExpiredTimer+0x78>)
  401ec6:	4798      	blx	r3
  401ec8:	e7e2      	b.n	401e90 <prvProcessExpiredTimer+0x28>
  401eca:	bf00      	nop
  401ecc:	200006f0 	.word	0x200006f0
  401ed0:	004001cd 	.word	0x004001cd
  401ed4:	00401c11 	.word	0x00401c11
  401ed8:	00401d2d 	.word	0x00401d2d
  401edc:	00402f98 	.word	0x00402f98
  401ee0:	00402b69 	.word	0x00402b69

00401ee4 <prvProcessTimerOrBlockTask>:
  401ee4:	b570      	push	{r4, r5, r6, lr}
  401ee6:	b082      	sub	sp, #8
  401ee8:	4606      	mov	r6, r0
  401eea:	460c      	mov	r4, r1
  401eec:	4b17      	ldr	r3, [pc, #92]	; (401f4c <prvProcessTimerOrBlockTask+0x68>)
  401eee:	4798      	blx	r3
  401ef0:	a801      	add	r0, sp, #4
  401ef2:	4b17      	ldr	r3, [pc, #92]	; (401f50 <prvProcessTimerOrBlockTask+0x6c>)
  401ef4:	4798      	blx	r3
  401ef6:	9b01      	ldr	r3, [sp, #4]
  401ef8:	bb2b      	cbnz	r3, 401f46 <prvProcessTimerOrBlockTask+0x62>
  401efa:	4605      	mov	r5, r0
  401efc:	b90c      	cbnz	r4, 401f02 <prvProcessTimerOrBlockTask+0x1e>
  401efe:	42b0      	cmp	r0, r6
  401f00:	d218      	bcs.n	401f34 <prvProcessTimerOrBlockTask+0x50>
  401f02:	b124      	cbz	r4, 401f0e <prvProcessTimerOrBlockTask+0x2a>
  401f04:	4b13      	ldr	r3, [pc, #76]	; (401f54 <prvProcessTimerOrBlockTask+0x70>)
  401f06:	681b      	ldr	r3, [r3, #0]
  401f08:	681b      	ldr	r3, [r3, #0]
  401f0a:	b9d3      	cbnz	r3, 401f42 <prvProcessTimerOrBlockTask+0x5e>
  401f0c:	2401      	movs	r4, #1
  401f0e:	4622      	mov	r2, r4
  401f10:	1b71      	subs	r1, r6, r5
  401f12:	4b11      	ldr	r3, [pc, #68]	; (401f58 <prvProcessTimerOrBlockTask+0x74>)
  401f14:	6818      	ldr	r0, [r3, #0]
  401f16:	4b11      	ldr	r3, [pc, #68]	; (401f5c <prvProcessTimerOrBlockTask+0x78>)
  401f18:	4798      	blx	r3
  401f1a:	4b11      	ldr	r3, [pc, #68]	; (401f60 <prvProcessTimerOrBlockTask+0x7c>)
  401f1c:	4798      	blx	r3
  401f1e:	b938      	cbnz	r0, 401f30 <prvProcessTimerOrBlockTask+0x4c>
  401f20:	f04f 5280 	mov.w	r2, #268435456	; 0x10000000
  401f24:	4b0f      	ldr	r3, [pc, #60]	; (401f64 <prvProcessTimerOrBlockTask+0x80>)
  401f26:	601a      	str	r2, [r3, #0]
  401f28:	f3bf 8f4f 	dsb	sy
  401f2c:	f3bf 8f6f 	isb	sy
  401f30:	b002      	add	sp, #8
  401f32:	bd70      	pop	{r4, r5, r6, pc}
  401f34:	4b0a      	ldr	r3, [pc, #40]	; (401f60 <prvProcessTimerOrBlockTask+0x7c>)
  401f36:	4798      	blx	r3
  401f38:	4629      	mov	r1, r5
  401f3a:	4630      	mov	r0, r6
  401f3c:	4b0a      	ldr	r3, [pc, #40]	; (401f68 <prvProcessTimerOrBlockTask+0x84>)
  401f3e:	4798      	blx	r3
  401f40:	e7f6      	b.n	401f30 <prvProcessTimerOrBlockTask+0x4c>
  401f42:	2400      	movs	r4, #0
  401f44:	e7e3      	b.n	401f0e <prvProcessTimerOrBlockTask+0x2a>
  401f46:	4b06      	ldr	r3, [pc, #24]	; (401f60 <prvProcessTimerOrBlockTask+0x7c>)
  401f48:	4798      	blx	r3
  401f4a:	e7f1      	b.n	401f30 <prvProcessTimerOrBlockTask+0x4c>
  401f4c:	004014c9 	.word	0x004014c9
  401f50:	00401e35 	.word	0x00401e35
  401f54:	200006f4 	.word	0x200006f4
  401f58:	20000724 	.word	0x20000724
  401f5c:	0040101d 	.word	0x0040101d
  401f60:	00401609 	.word	0x00401609
  401f64:	e000ed04 	.word	0xe000ed04
  401f68:	00401e69 	.word	0x00401e69

00401f6c <prvProcessReceivedCommands>:
  401f6c:	b530      	push	{r4, r5, lr}
  401f6e:	b089      	sub	sp, #36	; 0x24
  401f70:	e002      	b.n	401f78 <prvProcessReceivedCommands+0xc>
  401f72:	9b04      	ldr	r3, [sp, #16]
  401f74:	2b00      	cmp	r3, #0
  401f76:	da0f      	bge.n	401f98 <prvProcessReceivedCommands+0x2c>
  401f78:	2200      	movs	r2, #0
  401f7a:	a904      	add	r1, sp, #16
  401f7c:	4b3c      	ldr	r3, [pc, #240]	; (402070 <prvProcessReceivedCommands+0x104>)
  401f7e:	6818      	ldr	r0, [r3, #0]
  401f80:	4b3c      	ldr	r3, [pc, #240]	; (402074 <prvProcessReceivedCommands+0x108>)
  401f82:	4798      	blx	r3
  401f84:	2800      	cmp	r0, #0
  401f86:	d070      	beq.n	40206a <prvProcessReceivedCommands+0xfe>
  401f88:	9b04      	ldr	r3, [sp, #16]
  401f8a:	2b00      	cmp	r3, #0
  401f8c:	daf1      	bge.n	401f72 <prvProcessReceivedCommands+0x6>
  401f8e:	9907      	ldr	r1, [sp, #28]
  401f90:	9806      	ldr	r0, [sp, #24]
  401f92:	9b05      	ldr	r3, [sp, #20]
  401f94:	4798      	blx	r3
  401f96:	e7ec      	b.n	401f72 <prvProcessReceivedCommands+0x6>
  401f98:	9c06      	ldr	r4, [sp, #24]
  401f9a:	6963      	ldr	r3, [r4, #20]
  401f9c:	b113      	cbz	r3, 401fa4 <prvProcessReceivedCommands+0x38>
  401f9e:	1d20      	adds	r0, r4, #4
  401fa0:	4b35      	ldr	r3, [pc, #212]	; (402078 <prvProcessReceivedCommands+0x10c>)
  401fa2:	4798      	blx	r3
  401fa4:	a803      	add	r0, sp, #12
  401fa6:	4b35      	ldr	r3, [pc, #212]	; (40207c <prvProcessReceivedCommands+0x110>)
  401fa8:	4798      	blx	r3
  401faa:	4605      	mov	r5, r0
  401fac:	9b04      	ldr	r3, [sp, #16]
  401fae:	2b09      	cmp	r3, #9
  401fb0:	d8e2      	bhi.n	401f78 <prvProcessReceivedCommands+0xc>
  401fb2:	e8df f003 	tbb	[pc, r3]
  401fb6:	0505      	.short	0x0505
  401fb8:	4c352e05 	.word	0x4c352e05
  401fbc:	352e0505 	.word	0x352e0505
  401fc0:	f894 3024 	ldrb.w	r3, [r4, #36]	; 0x24
  401fc4:	f043 0301 	orr.w	r3, r3, #1
  401fc8:	f884 3024 	strb.w	r3, [r4, #36]	; 0x24
  401fcc:	9905      	ldr	r1, [sp, #20]
  401fce:	69a0      	ldr	r0, [r4, #24]
  401fd0:	460b      	mov	r3, r1
  401fd2:	462a      	mov	r2, r5
  401fd4:	4401      	add	r1, r0
  401fd6:	4620      	mov	r0, r4
  401fd8:	4d29      	ldr	r5, [pc, #164]	; (402080 <prvProcessReceivedCommands+0x114>)
  401fda:	47a8      	blx	r5
  401fdc:	2800      	cmp	r0, #0
  401fde:	d0cb      	beq.n	401f78 <prvProcessReceivedCommands+0xc>
  401fe0:	6a23      	ldr	r3, [r4, #32]
  401fe2:	4620      	mov	r0, r4
  401fe4:	4798      	blx	r3
  401fe6:	f894 3024 	ldrb.w	r3, [r4, #36]	; 0x24
  401fea:	f013 0f04 	tst.w	r3, #4
  401fee:	d0c3      	beq.n	401f78 <prvProcessReceivedCommands+0xc>
  401ff0:	69a2      	ldr	r2, [r4, #24]
  401ff2:	2100      	movs	r1, #0
  401ff4:	9100      	str	r1, [sp, #0]
  401ff6:	460b      	mov	r3, r1
  401ff8:	9805      	ldr	r0, [sp, #20]
  401ffa:	4402      	add	r2, r0
  401ffc:	4620      	mov	r0, r4
  401ffe:	4c21      	ldr	r4, [pc, #132]	; (402084 <prvProcessReceivedCommands+0x118>)
  402000:	47a0      	blx	r4
  402002:	2800      	cmp	r0, #0
  402004:	d1b8      	bne.n	401f78 <prvProcessReceivedCommands+0xc>
  402006:	f240 3113 	movw	r1, #787	; 0x313
  40200a:	481f      	ldr	r0, [pc, #124]	; (402088 <prvProcessReceivedCommands+0x11c>)
  40200c:	4b1f      	ldr	r3, [pc, #124]	; (40208c <prvProcessReceivedCommands+0x120>)
  40200e:	4798      	blx	r3
  402010:	e7b2      	b.n	401f78 <prvProcessReceivedCommands+0xc>
  402012:	f894 3024 	ldrb.w	r3, [r4, #36]	; 0x24
  402016:	f023 0301 	bic.w	r3, r3, #1
  40201a:	f884 3024 	strb.w	r3, [r4, #36]	; 0x24
  40201e:	e7ab      	b.n	401f78 <prvProcessReceivedCommands+0xc>
  402020:	f894 3024 	ldrb.w	r3, [r4, #36]	; 0x24
  402024:	f043 0301 	orr.w	r3, r3, #1
  402028:	f884 3024 	strb.w	r3, [r4, #36]	; 0x24
  40202c:	9b05      	ldr	r3, [sp, #20]
  40202e:	61a3      	str	r3, [r4, #24]
  402030:	b13b      	cbz	r3, 402042 <prvProcessReceivedCommands+0xd6>
  402032:	69a1      	ldr	r1, [r4, #24]
  402034:	462b      	mov	r3, r5
  402036:	462a      	mov	r2, r5
  402038:	4429      	add	r1, r5
  40203a:	4620      	mov	r0, r4
  40203c:	4c10      	ldr	r4, [pc, #64]	; (402080 <prvProcessReceivedCommands+0x114>)
  40203e:	47a0      	blx	r4
  402040:	e79a      	b.n	401f78 <prvProcessReceivedCommands+0xc>
  402042:	f240 312b 	movw	r1, #811	; 0x32b
  402046:	4810      	ldr	r0, [pc, #64]	; (402088 <prvProcessReceivedCommands+0x11c>)
  402048:	4b10      	ldr	r3, [pc, #64]	; (40208c <prvProcessReceivedCommands+0x120>)
  40204a:	4798      	blx	r3
  40204c:	e7f1      	b.n	402032 <prvProcessReceivedCommands+0xc6>
  40204e:	f894 3024 	ldrb.w	r3, [r4, #36]	; 0x24
  402052:	f013 0f02 	tst.w	r3, #2
  402056:	d004      	beq.n	402062 <prvProcessReceivedCommands+0xf6>
  402058:	f023 0301 	bic.w	r3, r3, #1
  40205c:	f884 3024 	strb.w	r3, [r4, #36]	; 0x24
  402060:	e78a      	b.n	401f78 <prvProcessReceivedCommands+0xc>
  402062:	4620      	mov	r0, r4
  402064:	4b0a      	ldr	r3, [pc, #40]	; (402090 <prvProcessReceivedCommands+0x124>)
  402066:	4798      	blx	r3
  402068:	e786      	b.n	401f78 <prvProcessReceivedCommands+0xc>
  40206a:	b009      	add	sp, #36	; 0x24
  40206c:	bd30      	pop	{r4, r5, pc}
  40206e:	bf00      	nop
  402070:	20000724 	.word	0x20000724
  402074:	00400e31 	.word	0x00400e31
  402078:	004001cd 	.word	0x004001cd
  40207c:	00401e35 	.word	0x00401e35
  402080:	00401c11 	.word	0x00401c11
  402084:	00401d2d 	.word	0x00401d2d
  402088:	00402f98 	.word	0x00402f98
  40208c:	00402b69 	.word	0x00402b69
  402090:	004006bd 	.word	0x004006bd

00402094 <prvTimerTask>:
  402094:	b500      	push	{lr}
  402096:	b083      	sub	sp, #12
  402098:	a801      	add	r0, sp, #4
  40209a:	4b04      	ldr	r3, [pc, #16]	; (4020ac <prvTimerTask+0x18>)
  40209c:	4798      	blx	r3
  40209e:	9901      	ldr	r1, [sp, #4]
  4020a0:	4b03      	ldr	r3, [pc, #12]	; (4020b0 <prvTimerTask+0x1c>)
  4020a2:	4798      	blx	r3
  4020a4:	4b03      	ldr	r3, [pc, #12]	; (4020b4 <prvTimerTask+0x20>)
  4020a6:	4798      	blx	r3
  4020a8:	e7f6      	b.n	402098 <prvTimerTask+0x4>
  4020aa:	bf00      	nop
  4020ac:	00401bf1 	.word	0x00401bf1
  4020b0:	00401ee5 	.word	0x00401ee5
  4020b4:	00401f6d 	.word	0x00401f6d

004020b8 <intitializeLEDDriver>:
  4020b8:	b510      	push	{r4, lr}
  4020ba:	2009      	movs	r0, #9
  4020bc:	4c0e      	ldr	r4, [pc, #56]	; (4020f8 <intitializeLEDDriver+0x40>)
  4020be:	47a0      	blx	r4
  4020c0:	200a      	movs	r0, #10
  4020c2:	47a0      	blx	r4
  4020c4:	200b      	movs	r0, #11
  4020c6:	47a0      	blx	r4
  4020c8:	200c      	movs	r0, #12
  4020ca:	47a0      	blx	r4
  4020cc:	200d      	movs	r0, #13
  4020ce:	47a0      	blx	r4
  4020d0:	4b0a      	ldr	r3, [pc, #40]	; (4020fc <intitializeLEDDriver+0x44>)
  4020d2:	f04f 5480 	mov.w	r4, #268435456	; 0x10000000
  4020d6:	611c      	str	r4, [r3, #16]
  4020d8:	f8c3 40a0 	str.w	r4, [r3, #160]	; 0xa0
  4020dc:	f44f 3000 	mov.w	r0, #131072	; 0x20000
  4020e0:	6118      	str	r0, [r3, #16]
  4020e2:	f8c3 00a0 	str.w	r0, [r3, #160]	; 0xa0
  4020e6:	4a06      	ldr	r2, [pc, #24]	; (402100 <intitializeLEDDriver+0x48>)
  4020e8:	2102      	movs	r1, #2
  4020ea:	6111      	str	r1, [r2, #16]
  4020ec:	f8c2 10a0 	str.w	r1, [r2, #160]	; 0xa0
  4020f0:	631c      	str	r4, [r3, #48]	; 0x30
  4020f2:	6318      	str	r0, [r3, #48]	; 0x30
  4020f4:	6311      	str	r1, [r2, #48]	; 0x30
  4020f6:	bd10      	pop	{r4, pc}
  4020f8:	00402669 	.word	0x00402669
  4020fc:	400e1400 	.word	0x400e1400
  402100:	400e1600 	.word	0x400e1600

00402104 <readLED>:
  402104:	2801      	cmp	r0, #1
  402106:	d008      	beq.n	40211a <readLED+0x16>
  402108:	2802      	cmp	r0, #2
  40210a:	d00b      	beq.n	402124 <readLED+0x20>
  40210c:	2803      	cmp	r0, #3
  40210e:	d00e      	beq.n	40212e <readLED+0x2a>
  402110:	4b09      	ldr	r3, [pc, #36]	; (402138 <readLED+0x34>)
  402112:	6bd8      	ldr	r0, [r3, #60]	; 0x3c
  402114:	f3c0 5080 	ubfx	r0, r0, #22, #1
  402118:	4770      	bx	lr
  40211a:	4b07      	ldr	r3, [pc, #28]	; (402138 <readLED+0x34>)
  40211c:	6bd8      	ldr	r0, [r3, #60]	; 0x3c
  40211e:	f3c0 7000 	ubfx	r0, r0, #28, #1
  402122:	4770      	bx	lr
  402124:	4b04      	ldr	r3, [pc, #16]	; (402138 <readLED+0x34>)
  402126:	6bd8      	ldr	r0, [r3, #60]	; 0x3c
  402128:	f3c0 4040 	ubfx	r0, r0, #17, #1
  40212c:	4770      	bx	lr
  40212e:	4b03      	ldr	r3, [pc, #12]	; (40213c <readLED+0x38>)
  402130:	6bd8      	ldr	r0, [r3, #60]	; 0x3c
  402132:	f3c0 0040 	ubfx	r0, r0, #1, #1
  402136:	4770      	bx	lr
  402138:	400e1400 	.word	0x400e1400
  40213c:	400e1600 	.word	0x400e1600

00402140 <setLED>:
  402140:	b508      	push	{r3, lr}
  402142:	2801      	cmp	r0, #1
  402144:	d00c      	beq.n	402160 <setLED+0x20>
  402146:	2802      	cmp	r0, #2
  402148:	d017      	beq.n	40217a <setLED+0x3a>
  40214a:	2803      	cmp	r0, #3
  40214c:	d022      	beq.n	402194 <setLED+0x54>
  40214e:	2900      	cmp	r1, #0
  402150:	d02b      	beq.n	4021aa <setLED+0x6a>
  402152:	f44f 0280 	mov.w	r2, #4194304	; 0x400000
  402156:	4b17      	ldr	r3, [pc, #92]	; (4021b4 <setLED+0x74>)
  402158:	631a      	str	r2, [r3, #48]	; 0x30
  40215a:	4b17      	ldr	r3, [pc, #92]	; (4021b8 <setLED+0x78>)
  40215c:	4798      	blx	r3
  40215e:	bd08      	pop	{r3, pc}
  402160:	b131      	cbz	r1, 402170 <setLED+0x30>
  402162:	f04f 5280 	mov.w	r2, #268435456	; 0x10000000
  402166:	4b13      	ldr	r3, [pc, #76]	; (4021b4 <setLED+0x74>)
  402168:	631a      	str	r2, [r3, #48]	; 0x30
  40216a:	4b13      	ldr	r3, [pc, #76]	; (4021b8 <setLED+0x78>)
  40216c:	4798      	blx	r3
  40216e:	bd08      	pop	{r3, pc}
  402170:	f04f 5280 	mov.w	r2, #268435456	; 0x10000000
  402174:	4b0f      	ldr	r3, [pc, #60]	; (4021b4 <setLED+0x74>)
  402176:	635a      	str	r2, [r3, #52]	; 0x34
  402178:	e7f7      	b.n	40216a <setLED+0x2a>
  40217a:	b131      	cbz	r1, 40218a <setLED+0x4a>
  40217c:	f44f 3200 	mov.w	r2, #131072	; 0x20000
  402180:	4b0c      	ldr	r3, [pc, #48]	; (4021b4 <setLED+0x74>)
  402182:	631a      	str	r2, [r3, #48]	; 0x30
  402184:	4b0c      	ldr	r3, [pc, #48]	; (4021b8 <setLED+0x78>)
  402186:	4798      	blx	r3
  402188:	bd08      	pop	{r3, pc}
  40218a:	f44f 3200 	mov.w	r2, #131072	; 0x20000
  40218e:	4b09      	ldr	r3, [pc, #36]	; (4021b4 <setLED+0x74>)
  402190:	635a      	str	r2, [r3, #52]	; 0x34
  402192:	e7f7      	b.n	402184 <setLED+0x44>
  402194:	b129      	cbz	r1, 4021a2 <setLED+0x62>
  402196:	2202      	movs	r2, #2
  402198:	4b08      	ldr	r3, [pc, #32]	; (4021bc <setLED+0x7c>)
  40219a:	631a      	str	r2, [r3, #48]	; 0x30
  40219c:	4b06      	ldr	r3, [pc, #24]	; (4021b8 <setLED+0x78>)
  40219e:	4798      	blx	r3
  4021a0:	bd08      	pop	{r3, pc}
  4021a2:	2202      	movs	r2, #2
  4021a4:	4b05      	ldr	r3, [pc, #20]	; (4021bc <setLED+0x7c>)
  4021a6:	635a      	str	r2, [r3, #52]	; 0x34
  4021a8:	e7f8      	b.n	40219c <setLED+0x5c>
  4021aa:	f44f 0280 	mov.w	r2, #4194304	; 0x400000
  4021ae:	4b01      	ldr	r3, [pc, #4]	; (4021b4 <setLED+0x74>)
  4021b0:	635a      	str	r2, [r3, #52]	; 0x34
  4021b2:	e7d2      	b.n	40215a <setLED+0x1a>
  4021b4:	400e1400 	.word	0x400e1400
  4021b8:	00402105 	.word	0x00402105
  4021bc:	400e1600 	.word	0x400e1600

004021c0 <toggleLED>:
  4021c0:	b510      	push	{r4, lr}
  4021c2:	4604      	mov	r4, r0
  4021c4:	4b06      	ldr	r3, [pc, #24]	; (4021e0 <toggleLED+0x20>)
  4021c6:	4798      	blx	r3
  4021c8:	2801      	cmp	r0, #1
  4021ca:	d004      	beq.n	4021d6 <toggleLED+0x16>
  4021cc:	2101      	movs	r1, #1
  4021ce:	4620      	mov	r0, r4
  4021d0:	4b04      	ldr	r3, [pc, #16]	; (4021e4 <toggleLED+0x24>)
  4021d2:	4798      	blx	r3
  4021d4:	bd10      	pop	{r4, pc}
  4021d6:	2100      	movs	r1, #0
  4021d8:	4620      	mov	r0, r4
  4021da:	4b02      	ldr	r3, [pc, #8]	; (4021e4 <toggleLED+0x24>)
  4021dc:	4798      	blx	r3
  4021de:	bd10      	pop	{r4, pc}
  4021e0:	00402105 	.word	0x00402105
  4021e4:	00402141 	.word	0x00402141

004021e8 <initializeButtonDriver>:
  4021e8:	b410      	push	{r4}
  4021ea:	4b1e      	ldr	r3, [pc, #120]	; (402264 <initializeButtonDriver+0x7c>)
  4021ec:	f04f 6180 	mov.w	r1, #67108864	; 0x4000000
  4021f0:	6159      	str	r1, [r3, #20]
  4021f2:	f8c3 10a0 	str.w	r1, [r3, #160]	; 0xa0
  4021f6:	f04f 4280 	mov.w	r2, #1073741824	; 0x40000000
  4021fa:	615a      	str	r2, [r3, #20]
  4021fc:	f8c3 20a0 	str.w	r2, [r3, #160]	; 0xa0
  402200:	4819      	ldr	r0, [pc, #100]	; (402268 <initializeButtonDriver+0x80>)
  402202:	2401      	movs	r4, #1
  402204:	6144      	str	r4, [r0, #20]
  402206:	f8c0 40a0 	str.w	r4, [r0, #160]	; 0xa0
  40220a:	6659      	str	r1, [r3, #100]	; 0x64
  40220c:	f8c3 1090 	str.w	r1, [r3, #144]	; 0x90
  402210:	6559      	str	r1, [r3, #84]	; 0x54
  402212:	6219      	str	r1, [r3, #32]
  402214:	f8c3 1084 	str.w	r1, [r3, #132]	; 0x84
  402218:	6f18      	ldr	r0, [r3, #112]	; 0x70
  40221a:	f020 6080 	bic.w	r0, r0, #67108864	; 0x4000000
  40221e:	6718      	str	r0, [r3, #112]	; 0x70
  402220:	6f58      	ldr	r0, [r3, #116]	; 0x74
  402222:	f020 6080 	bic.w	r0, r0, #67108864	; 0x4000000
  402226:	6758      	str	r0, [r3, #116]	; 0x74
  402228:	665a      	str	r2, [r3, #100]	; 0x64
  40222a:	f8c3 2090 	str.w	r2, [r3, #144]	; 0x90
  40222e:	655a      	str	r2, [r3, #84]	; 0x54
  402230:	621a      	str	r2, [r3, #32]
  402232:	f8c3 2084 	str.w	r2, [r3, #132]	; 0x84
  402236:	6f18      	ldr	r0, [r3, #112]	; 0x70
  402238:	f020 4080 	bic.w	r0, r0, #1073741824	; 0x40000000
  40223c:	6718      	str	r0, [r3, #112]	; 0x70
  40223e:	6f58      	ldr	r0, [r3, #116]	; 0x74
  402240:	f020 4080 	bic.w	r0, r0, #1073741824	; 0x40000000
  402244:	6758      	str	r0, [r3, #116]	; 0x74
  402246:	f8c3 10c0 	str.w	r1, [r3, #192]	; 0xc0
  40224a:	f8c3 10d4 	str.w	r1, [r3, #212]	; 0xd4
  40224e:	f8c3 10b0 	str.w	r1, [r3, #176]	; 0xb0
  402252:	f8c3 20c0 	str.w	r2, [r3, #192]	; 0xc0
  402256:	f8c3 20d4 	str.w	r2, [r3, #212]	; 0xd4
  40225a:	f8c3 20b0 	str.w	r2, [r3, #176]	; 0xb0
  40225e:	f85d 4b04 	ldr.w	r4, [sp], #4
  402262:	4770      	bx	lr
  402264:	400e1400 	.word	0x400e1400
  402268:	400e0e00 	.word	0x400e0e00

0040226c <readButton>:
  40226c:	2801      	cmp	r0, #1
  40226e:	d006      	beq.n	40227e <readButton+0x12>
  402270:	2802      	cmp	r0, #2
  402272:	d009      	beq.n	402288 <readButton+0x1c>
  402274:	4b07      	ldr	r3, [pc, #28]	; (402294 <readButton+0x28>)
  402276:	6bd8      	ldr	r0, [r3, #60]	; 0x3c
  402278:	f3c0 0080 	ubfx	r0, r0, #2, #1
  40227c:	4770      	bx	lr
  40227e:	4b06      	ldr	r3, [pc, #24]	; (402298 <readButton+0x2c>)
  402280:	6bd8      	ldr	r0, [r3, #60]	; 0x3c
  402282:	f3c0 6080 	ubfx	r0, r0, #26, #1
  402286:	4770      	bx	lr
  402288:	4b03      	ldr	r3, [pc, #12]	; (402298 <readButton+0x2c>)
  40228a:	6bd8      	ldr	r0, [r3, #60]	; 0x3c
  40228c:	f3c0 7080 	ubfx	r0, r0, #30, #1
  402290:	4770      	bx	lr
  402292:	bf00      	nop
  402294:	400e0e00 	.word	0x400e0e00
  402298:	400e1400 	.word	0x400e1400

0040229c <taskSystemControl>:
extern char uartBuffer2I [50];
extern char uartBuffer3I [50]; 


void taskSystemControl(void * pvParamaters)
{
  40229c:	b570      	push	{r4, r5, r6, lr}
  40229e:	b082      	sub	sp, #8
	struct controlStruct * controlParams = (struct controlStruct *) pvParamaters;
	QueueHandle_t ledQueueParam = controlParams->ledQ;
  4022a0:	6806      	ldr	r6, [r0, #0]
	QueueHandle_t uartQueueParam = controlParams->uartQ;
  4022a2:	6845      	ldr	r5, [r0, #4]
  4022a4:	e024      	b.n	4022f0 <taskSystemControl+0x54>
		if (readButton(SW1) == 1)
		{
			//led1
			
				//send led1 back to the end of the queue
				xQueueSendToBack(ledQueueParam, (void *) &incDec, (TickType_t) 0);
  4022a6:	2300      	movs	r3, #0
  4022a8:	461a      	mov	r2, r3
  4022aa:	f10d 0107 	add.w	r1, sp, #7
  4022ae:	4630      	mov	r0, r6
  4022b0:	4c28      	ldr	r4, [pc, #160]	; (402354 <taskSystemControl+0xb8>)
  4022b2:	47a0      	blx	r4
				xQueueSendToBack(uartQueueParam, (void *) uartBuffer1D, (TickType_t) 0);
  4022b4:	2300      	movs	r3, #0
  4022b6:	461a      	mov	r2, r3
  4022b8:	4927      	ldr	r1, [pc, #156]	; (402358 <taskSystemControl+0xbc>)
  4022ba:	4628      	mov	r0, r5
  4022bc:	47a0      	blx	r4
			
			//led2
			
				//send led2 back to the end of the queue
				xQueueSendToBack(ledQueueParam, (void *) &incDec, (TickType_t) 0);
  4022be:	2300      	movs	r3, #0
  4022c0:	461a      	mov	r2, r3
  4022c2:	f10d 0107 	add.w	r1, sp, #7
  4022c6:	4630      	mov	r0, r6
  4022c8:	47a0      	blx	r4
				xQueueSendToBack(uartQueueParam, (void *) uartBuffer2D, (TickType_t) 0);
  4022ca:	2300      	movs	r3, #0
  4022cc:	461a      	mov	r2, r3
  4022ce:	4923      	ldr	r1, [pc, #140]	; (40235c <taskSystemControl+0xc0>)
  4022d0:	4628      	mov	r0, r5
  4022d2:	47a0      	blx	r4
			
			//led3
			
				//send led3 back to the end of the queue
				xQueueSendToBack(ledQueueParam, (void *) &incDec, (TickType_t) 0);
  4022d4:	2300      	movs	r3, #0
  4022d6:	461a      	mov	r2, r3
  4022d8:	f10d 0107 	add.w	r1, sp, #7
  4022dc:	4630      	mov	r0, r6
  4022de:	47a0      	blx	r4
				xQueueSendToBack(uartQueueParam, (void *) uartBuffer3D, (TickType_t) 0);
  4022e0:	2300      	movs	r3, #0
  4022e2:	461a      	mov	r2, r3
  4022e4:	491e      	ldr	r1, [pc, #120]	; (402360 <taskSystemControl+0xc4>)
  4022e6:	4628      	mov	r0, r5
  4022e8:	47a0      	blx	r4
		else if (readButton(SW0) == 1)
		{
			
		}
		//delay for 100ms after all 3 switches
		vTaskDelay(xDelay3);
  4022ea:	2064      	movs	r0, #100	; 0x64
  4022ec:	4b1d      	ldr	r3, [pc, #116]	; (402364 <taskSystemControl+0xc8>)
  4022ee:	4798      	blx	r3
		if (readButton(SW1) == 1)
  4022f0:	2001      	movs	r0, #1
  4022f2:	4b1d      	ldr	r3, [pc, #116]	; (402368 <taskSystemControl+0xcc>)
  4022f4:	4798      	blx	r3
  4022f6:	2801      	cmp	r0, #1
  4022f8:	d0d5      	beq.n	4022a6 <taskSystemControl+0xa>
		else if (readButton(SW2) == 1)
  4022fa:	2002      	movs	r0, #2
  4022fc:	4b1a      	ldr	r3, [pc, #104]	; (402368 <taskSystemControl+0xcc>)
  4022fe:	4798      	blx	r3
  402300:	2801      	cmp	r0, #1
  402302:	d003      	beq.n	40230c <taskSystemControl+0x70>
		else if (readButton(SW0) == 1)
  402304:	2000      	movs	r0, #0
  402306:	4b18      	ldr	r3, [pc, #96]	; (402368 <taskSystemControl+0xcc>)
  402308:	4798      	blx	r3
  40230a:	e7ee      	b.n	4022ea <taskSystemControl+0x4e>
				xQueueSendToBack(ledQueueParam, (void *) &incDec, (TickType_t) 1);
  40230c:	2300      	movs	r3, #0
  40230e:	2201      	movs	r2, #1
  402310:	f10d 0107 	add.w	r1, sp, #7
  402314:	4630      	mov	r0, r6
  402316:	4c0f      	ldr	r4, [pc, #60]	; (402354 <taskSystemControl+0xb8>)
  402318:	47a0      	blx	r4
				xQueueSendToBack(uartQueueParam, (void *) uartBuffer1I, (TickType_t) 0);
  40231a:	2300      	movs	r3, #0
  40231c:	461a      	mov	r2, r3
  40231e:	4913      	ldr	r1, [pc, #76]	; (40236c <taskSystemControl+0xd0>)
  402320:	4628      	mov	r0, r5
  402322:	47a0      	blx	r4
				xQueueSendToBack(ledQueueParam, (void *) &incDec, (TickType_t) 1);
  402324:	2300      	movs	r3, #0
  402326:	2201      	movs	r2, #1
  402328:	f10d 0107 	add.w	r1, sp, #7
  40232c:	4630      	mov	r0, r6
  40232e:	47a0      	blx	r4
				xQueueSendToBack(uartQueueParam, (void *) uartBuffer2I, (TickType_t) 0);
  402330:	2300      	movs	r3, #0
  402332:	461a      	mov	r2, r3
  402334:	490e      	ldr	r1, [pc, #56]	; (402370 <taskSystemControl+0xd4>)
  402336:	4628      	mov	r0, r5
  402338:	47a0      	blx	r4
				xQueueSendToBack(ledQueueParam, (void *) &incDec, (TickType_t) 1);
  40233a:	2300      	movs	r3, #0
  40233c:	2201      	movs	r2, #1
  40233e:	f10d 0107 	add.w	r1, sp, #7
  402342:	4630      	mov	r0, r6
  402344:	47a0      	blx	r4
				xQueueSendToBack(uartQueueParam, (void *) uartBuffer3I, (TickType_t) 0);
  402346:	2300      	movs	r3, #0
  402348:	461a      	mov	r2, r3
  40234a:	490a      	ldr	r1, [pc, #40]	; (402374 <taskSystemControl+0xd8>)
  40234c:	4628      	mov	r0, r5
  40234e:	47a0      	blx	r4
  402350:	e7cb      	b.n	4022ea <taskSystemControl+0x4e>
  402352:	bf00      	nop
  402354:	00400b39 	.word	0x00400b39
  402358:	2000000c 	.word	0x2000000c
  40235c:	20000074 	.word	0x20000074
  402360:	200000dc 	.word	0x200000dc
  402364:	00401721 	.word	0x00401721
  402368:	0040226d 	.word	0x0040226d
  40236c:	20000040 	.word	0x20000040
  402370:	200000a8 	.word	0x200000a8
  402374:	20000110 	.word	0x20000110

00402378 <taskHeartBeat>:
	}

}
		
void taskHeartBeat (void * pvParamaters)		
{
  402378:	b508      	push	{r3, lr}
	//set up the LedNumber for the parameters
	uint32_t ledNum = (uint32_t) pvParamaters;
	//this is the heartbeat for LED 0 to happen once every second
	while (true)
	{
		toggleLED(LED0);
  40237a:	2000      	movs	r0, #0
  40237c:	4b03      	ldr	r3, [pc, #12]	; (40238c <taskHeartBeat+0x14>)
  40237e:	4798      	blx	r3
		vTaskDelay(xDelay2);
  402380:	f44f 707a 	mov.w	r0, #1000	; 0x3e8
  402384:	4b02      	ldr	r3, [pc, #8]	; (402390 <taskHeartBeat+0x18>)
  402386:	4798      	blx	r3
  402388:	e7f7      	b.n	40237a <taskHeartBeat+0x2>
  40238a:	bf00      	nop
  40238c:	004021c1 	.word	0x004021c1
  402390:	00401721 	.word	0x00401721

00402394 <taskLED>:
	}
		
}

void taskLED(void * pvParameters)
{
  402394:	b570      	push	{r4, r5, r6, lr}
  402396:	b082      	sub	sp, #8
There will be three of these tasks as well. 
The task should use your LED Driver from Lab 2.
*/

	struct ledStruct * controlParams = (struct ledStruct *) pvParameters;
	QueueHandle_t ledQ = controlParams->ledQ;
  402398:	6804      	ldr	r4, [r0, #0]
	QueueHandle_t uartQ = controlParams->uartQ;
	uint8_t ledNum = controlParams->ledNum;
  40239a:	7a06      	ldrb	r6, [r0, #8]
	int defaultMS = 500;
	TickType_t xDelay = defaultMS / portTICK_PERIOD_MS;
  40239c:	f44f 75fa 	mov.w	r5, #500	; 0x1f4
  4023a0:	e004      	b.n	4023ac <taskLED+0x18>
			if (xQueueReceive(ledQ, &getDelay, 0))
			{
				if(getDelay == DECREASE)
				{
					
					xDelay = (defaultMS - 50) / portTICK_PERIOD_MS;
  4023a2:	f44f 75e1 	mov.w	r5, #450	; 0x1c2
						xDelay = 1000;
					}
				}
			}
		}
		vTaskDelay(xDelay);
  4023a6:	4628      	mov	r0, r5
  4023a8:	4b0d      	ldr	r3, [pc, #52]	; (4023e0 <taskLED+0x4c>)
  4023aa:	4798      	blx	r3
		toggleLED(ledNum);
  4023ac:	4630      	mov	r0, r6
  4023ae:	4b0d      	ldr	r3, [pc, #52]	; (4023e4 <taskLED+0x50>)
  4023b0:	4798      	blx	r3
		if(uxQueueMessagesWaiting(ledQ))
  4023b2:	4620      	mov	r0, r4
  4023b4:	4b0c      	ldr	r3, [pc, #48]	; (4023e8 <taskLED+0x54>)
  4023b6:	4798      	blx	r3
  4023b8:	2800      	cmp	r0, #0
  4023ba:	d0f4      	beq.n	4023a6 <taskLED+0x12>
			if (xQueueReceive(ledQ, &getDelay, 0))
  4023bc:	2200      	movs	r2, #0
  4023be:	f10d 0107 	add.w	r1, sp, #7
  4023c2:	4620      	mov	r0, r4
  4023c4:	4b09      	ldr	r3, [pc, #36]	; (4023ec <taskLED+0x58>)
  4023c6:	4798      	blx	r3
  4023c8:	2800      	cmp	r0, #0
  4023ca:	d0ec      	beq.n	4023a6 <taskLED+0x12>
				if(getDelay == DECREASE)
  4023cc:	f89d 3007 	ldrb.w	r3, [sp, #7]
  4023d0:	2b01      	cmp	r3, #1
  4023d2:	d0e6      	beq.n	4023a2 <taskLED+0xe>
				else if (getDelay == INCREASE)
  4023d4:	2b00      	cmp	r3, #0
  4023d6:	d1e6      	bne.n	4023a6 <taskLED+0x12>
					xDelay = (defaultMS + 50) / portTICK_PERIOD_MS;
  4023d8:	f240 2526 	movw	r5, #550	; 0x226
  4023dc:	e7e3      	b.n	4023a6 <taskLED+0x12>
  4023de:	bf00      	nop
  4023e0:	00401721 	.word	0x00401721
  4023e4:	004021c1 	.word	0x004021c1
  4023e8:	00400fc5 	.word	0x00400fc5
  4023ec:	00400e31 	.word	0x00400e31

004023f0 <taskUART>:
	}
}

void taskUART(void *pvParameters)
{
  4023f0:	b510      	push	{r4, lr}
  4023f2:	b08e      	sub	sp, #56	; 0x38
  4023f4:	4604      	mov	r4, r0

char tempUART[50];

	while(true)
	{
		if(uxQueueMessagesWaiting(uartTempQueue))
  4023f6:	4620      	mov	r0, r4
  4023f8:	4b08      	ldr	r3, [pc, #32]	; (40241c <taskUART+0x2c>)
  4023fa:	4798      	blx	r3
  4023fc:	2800      	cmp	r0, #0
  4023fe:	d0fa      	beq.n	4023f6 <taskUART+0x6>
		{
			if(xQueueReceive(uartTempQueue, &tempUART, portMAX_DELAY) == pdTRUE)
  402400:	f04f 32ff 	mov.w	r2, #4294967295
  402404:	a901      	add	r1, sp, #4
  402406:	4620      	mov	r0, r4
  402408:	4b05      	ldr	r3, [pc, #20]	; (402420 <taskUART+0x30>)
  40240a:	4798      	blx	r3
  40240c:	2801      	cmp	r0, #1
  40240e:	d1f2      	bne.n	4023f6 <taskUART+0x6>
				UARTPutStr(EDBG_UART, tempUART, sizeof(tempUART));
  402410:	2232      	movs	r2, #50	; 0x32
  402412:	a901      	add	r1, sp, #4
  402414:	4803      	ldr	r0, [pc, #12]	; (402424 <taskUART+0x34>)
  402416:	4b04      	ldr	r3, [pc, #16]	; (402428 <taskUART+0x38>)
  402418:	4798      	blx	r3
  40241a:	e7ec      	b.n	4023f6 <taskUART+0x6>
  40241c:	00400fc5 	.word	0x00400fc5
  402420:	00400e31 	.word	0x00400e31
  402424:	400e0600 	.word	0x400e0600
  402428:	00402495 	.word	0x00402495

0040242c <initUART>:
  40242c:	b510      	push	{r4, lr}
  40242e:	4604      	mov	r4, r0
  402430:	4b12      	ldr	r3, [pc, #72]	; (40247c <initUART+0x50>)
  402432:	f44f 62c0 	mov.w	r2, #1536	; 0x600
  402436:	661a      	str	r2, [r3, #96]	; 0x60
  402438:	f8c3 2090 	str.w	r2, [r3, #144]	; 0x90
  40243c:	655a      	str	r2, [r3, #84]	; 0x54
  40243e:	625a      	str	r2, [r3, #36]	; 0x24
  402440:	f8c3 2080 	str.w	r2, [r3, #128]	; 0x80
  402444:	6f19      	ldr	r1, [r3, #112]	; 0x70
  402446:	f421 61c0 	bic.w	r1, r1, #1536	; 0x600
  40244a:	6719      	str	r1, [r3, #112]	; 0x70
  40244c:	6f59      	ldr	r1, [r3, #116]	; 0x74
  40244e:	f421 61c0 	bic.w	r1, r1, #1536	; 0x600
  402452:	6759      	str	r1, [r3, #116]	; 0x74
  402454:	605a      	str	r2, [r3, #4]
  402456:	2007      	movs	r0, #7
  402458:	4b09      	ldr	r3, [pc, #36]	; (402480 <initUART+0x54>)
  40245a:	4798      	blx	r3
  40245c:	23ac      	movs	r3, #172	; 0xac
  40245e:	6023      	str	r3, [r4, #0]
  402460:	2334      	movs	r3, #52	; 0x34
  402462:	6223      	str	r3, [r4, #32]
  402464:	f44f 6300 	mov.w	r3, #2048	; 0x800
  402468:	6063      	str	r3, [r4, #4]
  40246a:	f240 2302 	movw	r3, #514	; 0x202
  40246e:	f8c4 3120 	str.w	r3, [r4, #288]	; 0x120
  402472:	2350      	movs	r3, #80	; 0x50
  402474:	6023      	str	r3, [r4, #0]
  402476:	2000      	movs	r0, #0
  402478:	bd10      	pop	{r4, pc}
  40247a:	bf00      	nop
  40247c:	400e0e00 	.word	0x400e0e00
  402480:	00402669 	.word	0x00402669

00402484 <UARTPutC>:
  402484:	e000      	b.n	402488 <UARTPutC+0x4>
  402486:	61c1      	str	r1, [r0, #28]
  402488:	6943      	ldr	r3, [r0, #20]
  40248a:	f013 0f02 	tst.w	r3, #2
  40248e:	d0fa      	beq.n	402486 <UARTPutC+0x2>
  402490:	4770      	bx	lr
	...

00402494 <UARTPutStr>:
  402494:	b5f8      	push	{r3, r4, r5, r6, r7, lr}
  402496:	4607      	mov	r7, r0
  402498:	460e      	mov	r6, r1
  40249a:	4615      	mov	r5, r2
  40249c:	2400      	movs	r4, #0
  40249e:	e004      	b.n	4024aa <UARTPutStr+0x16>
  4024a0:	5d31      	ldrb	r1, [r6, r4]
  4024a2:	4638      	mov	r0, r7
  4024a4:	4b02      	ldr	r3, [pc, #8]	; (4024b0 <UARTPutStr+0x1c>)
  4024a6:	4798      	blx	r3
  4024a8:	3401      	adds	r4, #1
  4024aa:	42ac      	cmp	r4, r5
  4024ac:	dbf8      	blt.n	4024a0 <UARTPutStr+0xc>
  4024ae:	bdf8      	pop	{r3, r4, r5, r6, r7, pc}
  4024b0:	00402485 	.word	0x00402485

004024b4 <sysclk_init>:
  4024b4:	b508      	push	{r3, lr}
  4024b6:	480e      	ldr	r0, [pc, #56]	; (4024f0 <sysclk_init+0x3c>)
  4024b8:	4b0e      	ldr	r3, [pc, #56]	; (4024f4 <sysclk_init+0x40>)
  4024ba:	4798      	blx	r3
  4024bc:	213e      	movs	r1, #62	; 0x3e
  4024be:	2000      	movs	r0, #0
  4024c0:	4b0d      	ldr	r3, [pc, #52]	; (4024f8 <sysclk_init+0x44>)
  4024c2:	4798      	blx	r3
  4024c4:	4b0d      	ldr	r3, [pc, #52]	; (4024fc <sysclk_init+0x48>)
  4024c6:	4798      	blx	r3
  4024c8:	2800      	cmp	r0, #0
  4024ca:	d0fb      	beq.n	4024c4 <sysclk_init+0x10>
  4024cc:	4b0c      	ldr	r3, [pc, #48]	; (402500 <sysclk_init+0x4c>)
  4024ce:	4798      	blx	r3
  4024d0:	4a0c      	ldr	r2, [pc, #48]	; (402504 <sysclk_init+0x50>)
  4024d2:	4b0d      	ldr	r3, [pc, #52]	; (402508 <sysclk_init+0x54>)
  4024d4:	629a      	str	r2, [r3, #40]	; 0x28
  4024d6:	4b0d      	ldr	r3, [pc, #52]	; (40250c <sysclk_init+0x58>)
  4024d8:	4798      	blx	r3
  4024da:	2800      	cmp	r0, #0
  4024dc:	d0fb      	beq.n	4024d6 <sysclk_init+0x22>
  4024de:	2010      	movs	r0, #16
  4024e0:	4b0b      	ldr	r3, [pc, #44]	; (402510 <sysclk_init+0x5c>)
  4024e2:	4798      	blx	r3
  4024e4:	4b0b      	ldr	r3, [pc, #44]	; (402514 <sysclk_init+0x60>)
  4024e6:	4798      	blx	r3
  4024e8:	480b      	ldr	r0, [pc, #44]	; (402518 <sysclk_init+0x64>)
  4024ea:	4b02      	ldr	r3, [pc, #8]	; (4024f4 <sysclk_init+0x40>)
  4024ec:	4798      	blx	r3
  4024ee:	bd08      	pop	{r3, pc}
  4024f0:	07270e00 	.word	0x07270e00
  4024f4:	0040287d 	.word	0x0040287d
  4024f8:	004025e5 	.word	0x004025e5
  4024fc:	00402639 	.word	0x00402639
  402500:	00402649 	.word	0x00402649
  402504:	200f3f01 	.word	0x200f3f01
  402508:	400e0400 	.word	0x400e0400
  40250c:	00402659 	.word	0x00402659
  402510:	00402591 	.word	0x00402591
  402514:	0040276d 	.word	0x0040276d
  402518:	05b8d800 	.word	0x05b8d800

0040251c <board_init>:
  40251c:	b510      	push	{r4, lr}
  40251e:	f44f 4200 	mov.w	r2, #32768	; 0x8000
  402522:	4b18      	ldr	r3, [pc, #96]	; (402584 <board_init+0x68>)
  402524:	605a      	str	r2, [r3, #4]
  402526:	2009      	movs	r0, #9
  402528:	4c17      	ldr	r4, [pc, #92]	; (402588 <board_init+0x6c>)
  40252a:	47a0      	blx	r4
  40252c:	200a      	movs	r0, #10
  40252e:	47a0      	blx	r4
  402530:	200b      	movs	r0, #11
  402532:	47a0      	blx	r4
  402534:	200c      	movs	r0, #12
  402536:	47a0      	blx	r4
  402538:	200d      	movs	r0, #13
  40253a:	47a0      	blx	r4
  40253c:	4b13      	ldr	r3, [pc, #76]	; (40258c <board_init+0x70>)
  40253e:	f44f 0280 	mov.w	r2, #4194304	; 0x400000
  402542:	611a      	str	r2, [r3, #16]
  402544:	f8c3 20a0 	str.w	r2, [r3, #160]	; 0xa0
  402548:	631a      	str	r2, [r3, #48]	; 0x30
  40254a:	f5a3 63c0 	sub.w	r3, r3, #1536	; 0x600
  40254e:	2204      	movs	r2, #4
  402550:	615a      	str	r2, [r3, #20]
  402552:	f8c3 20a0 	str.w	r2, [r3, #160]	; 0xa0
  402556:	665a      	str	r2, [r3, #100]	; 0x64
  402558:	f8c3 2090 	str.w	r2, [r3, #144]	; 0x90
  40255c:	655a      	str	r2, [r3, #84]	; 0x54
  40255e:	621a      	str	r2, [r3, #32]
  402560:	f8c3 2084 	str.w	r2, [r3, #132]	; 0x84
  402564:	6f19      	ldr	r1, [r3, #112]	; 0x70
  402566:	f021 0104 	bic.w	r1, r1, #4
  40256a:	6719      	str	r1, [r3, #112]	; 0x70
  40256c:	6f59      	ldr	r1, [r3, #116]	; 0x74
  40256e:	f021 0104 	bic.w	r1, r1, #4
  402572:	6759      	str	r1, [r3, #116]	; 0x74
  402574:	f8c3 20c0 	str.w	r2, [r3, #192]	; 0xc0
  402578:	f8c3 20d4 	str.w	r2, [r3, #212]	; 0xd4
  40257c:	f8c3 20b0 	str.w	r2, [r3, #176]	; 0xb0
  402580:	bd10      	pop	{r4, pc}
  402582:	bf00      	nop
  402584:	400e1850 	.word	0x400e1850
  402588:	00402669 	.word	0x00402669
  40258c:	400e1400 	.word	0x400e1400

00402590 <pmc_switch_mck_to_pllack>:
  402590:	4a13      	ldr	r2, [pc, #76]	; (4025e0 <pmc_switch_mck_to_pllack+0x50>)
  402592:	6b13      	ldr	r3, [r2, #48]	; 0x30
  402594:	f023 0370 	bic.w	r3, r3, #112	; 0x70
  402598:	4318      	orrs	r0, r3
  40259a:	6310      	str	r0, [r2, #48]	; 0x30
  40259c:	f44f 6300 	mov.w	r3, #2048	; 0x800
  4025a0:	4a0f      	ldr	r2, [pc, #60]	; (4025e0 <pmc_switch_mck_to_pllack+0x50>)
  4025a2:	6e92      	ldr	r2, [r2, #104]	; 0x68
  4025a4:	f012 0f08 	tst.w	r2, #8
  4025a8:	d102      	bne.n	4025b0 <pmc_switch_mck_to_pllack+0x20>
  4025aa:	b1a3      	cbz	r3, 4025d6 <pmc_switch_mck_to_pllack+0x46>
  4025ac:	3b01      	subs	r3, #1
  4025ae:	e7f7      	b.n	4025a0 <pmc_switch_mck_to_pllack+0x10>
  4025b0:	4a0b      	ldr	r2, [pc, #44]	; (4025e0 <pmc_switch_mck_to_pllack+0x50>)
  4025b2:	6b13      	ldr	r3, [r2, #48]	; 0x30
  4025b4:	f023 0303 	bic.w	r3, r3, #3
  4025b8:	f043 0302 	orr.w	r3, r3, #2
  4025bc:	6313      	str	r3, [r2, #48]	; 0x30
  4025be:	f44f 6300 	mov.w	r3, #2048	; 0x800
  4025c2:	4a07      	ldr	r2, [pc, #28]	; (4025e0 <pmc_switch_mck_to_pllack+0x50>)
  4025c4:	6e92      	ldr	r2, [r2, #104]	; 0x68
  4025c6:	f012 0f08 	tst.w	r2, #8
  4025ca:	d102      	bne.n	4025d2 <pmc_switch_mck_to_pllack+0x42>
  4025cc:	b12b      	cbz	r3, 4025da <pmc_switch_mck_to_pllack+0x4a>
  4025ce:	3b01      	subs	r3, #1
  4025d0:	e7f7      	b.n	4025c2 <pmc_switch_mck_to_pllack+0x32>
  4025d2:	2000      	movs	r0, #0
  4025d4:	4770      	bx	lr
  4025d6:	2001      	movs	r0, #1
  4025d8:	4770      	bx	lr
  4025da:	2001      	movs	r0, #1
  4025dc:	4770      	bx	lr
  4025de:	bf00      	nop
  4025e0:	400e0400 	.word	0x400e0400

004025e4 <pmc_switch_mainck_to_xtal>:
  4025e4:	b9d0      	cbnz	r0, 40261c <pmc_switch_mainck_to_xtal+0x38>
  4025e6:	4a11      	ldr	r2, [pc, #68]	; (40262c <pmc_switch_mainck_to_xtal+0x48>)
  4025e8:	6a13      	ldr	r3, [r2, #32]
  4025ea:	f423 135c 	bic.w	r3, r3, #3604480	; 0x370000
  4025ee:	f023 0303 	bic.w	r3, r3, #3
  4025f2:	0209      	lsls	r1, r1, #8
  4025f4:	b289      	uxth	r1, r1
  4025f6:	430b      	orrs	r3, r1
  4025f8:	f443 135c 	orr.w	r3, r3, #3604480	; 0x370000
  4025fc:	f043 0301 	orr.w	r3, r3, #1
  402600:	6213      	str	r3, [r2, #32]
  402602:	4b0a      	ldr	r3, [pc, #40]	; (40262c <pmc_switch_mainck_to_xtal+0x48>)
  402604:	6e9b      	ldr	r3, [r3, #104]	; 0x68
  402606:	f013 0f01 	tst.w	r3, #1
  40260a:	d0fa      	beq.n	402602 <pmc_switch_mainck_to_xtal+0x1e>
  40260c:	4a07      	ldr	r2, [pc, #28]	; (40262c <pmc_switch_mainck_to_xtal+0x48>)
  40260e:	6a13      	ldr	r3, [r2, #32]
  402610:	f043 739b 	orr.w	r3, r3, #20316160	; 0x1360000
  402614:	f443 3380 	orr.w	r3, r3, #65536	; 0x10000
  402618:	6213      	str	r3, [r2, #32]
  40261a:	4770      	bx	lr
  40261c:	4903      	ldr	r1, [pc, #12]	; (40262c <pmc_switch_mainck_to_xtal+0x48>)
  40261e:	6a0b      	ldr	r3, [r1, #32]
  402620:	4a03      	ldr	r2, [pc, #12]	; (402630 <pmc_switch_mainck_to_xtal+0x4c>)
  402622:	401a      	ands	r2, r3
  402624:	4b03      	ldr	r3, [pc, #12]	; (402634 <pmc_switch_mainck_to_xtal+0x50>)
  402626:	4313      	orrs	r3, r2
  402628:	620b      	str	r3, [r1, #32]
  40262a:	4770      	bx	lr
  40262c:	400e0400 	.word	0x400e0400
  402630:	fec8fffc 	.word	0xfec8fffc
  402634:	01370002 	.word	0x01370002

00402638 <pmc_osc_is_ready_mainck>:
  402638:	4b02      	ldr	r3, [pc, #8]	; (402644 <pmc_osc_is_ready_mainck+0xc>)
  40263a:	6e98      	ldr	r0, [r3, #104]	; 0x68
  40263c:	f400 3080 	and.w	r0, r0, #65536	; 0x10000
  402640:	4770      	bx	lr
  402642:	bf00      	nop
  402644:	400e0400 	.word	0x400e0400

00402648 <pmc_disable_pllack>:
  402648:	f04f 5200 	mov.w	r2, #536870912	; 0x20000000
  40264c:	4b01      	ldr	r3, [pc, #4]	; (402654 <pmc_disable_pllack+0xc>)
  40264e:	629a      	str	r2, [r3, #40]	; 0x28
  402650:	4770      	bx	lr
  402652:	bf00      	nop
  402654:	400e0400 	.word	0x400e0400

00402658 <pmc_is_locked_pllack>:
  402658:	4b02      	ldr	r3, [pc, #8]	; (402664 <pmc_is_locked_pllack+0xc>)
  40265a:	6e98      	ldr	r0, [r3, #104]	; 0x68
  40265c:	f000 0002 	and.w	r0, r0, #2
  402660:	4770      	bx	lr
  402662:	bf00      	nop
  402664:	400e0400 	.word	0x400e0400

00402668 <pmc_enable_periph_clk>:
  402668:	282f      	cmp	r0, #47	; 0x2f
  40266a:	d81e      	bhi.n	4026aa <pmc_enable_periph_clk+0x42>
  40266c:	281f      	cmp	r0, #31
  40266e:	d80c      	bhi.n	40268a <pmc_enable_periph_clk+0x22>
  402670:	4b11      	ldr	r3, [pc, #68]	; (4026b8 <pmc_enable_periph_clk+0x50>)
  402672:	699a      	ldr	r2, [r3, #24]
  402674:	2301      	movs	r3, #1
  402676:	4083      	lsls	r3, r0
  402678:	4393      	bics	r3, r2
  40267a:	d018      	beq.n	4026ae <pmc_enable_periph_clk+0x46>
  40267c:	2301      	movs	r3, #1
  40267e:	fa03 f000 	lsl.w	r0, r3, r0
  402682:	4b0d      	ldr	r3, [pc, #52]	; (4026b8 <pmc_enable_periph_clk+0x50>)
  402684:	6118      	str	r0, [r3, #16]
  402686:	2000      	movs	r0, #0
  402688:	4770      	bx	lr
  40268a:	3820      	subs	r0, #32
  40268c:	4b0a      	ldr	r3, [pc, #40]	; (4026b8 <pmc_enable_periph_clk+0x50>)
  40268e:	f8d3 2108 	ldr.w	r2, [r3, #264]	; 0x108
  402692:	2301      	movs	r3, #1
  402694:	4083      	lsls	r3, r0
  402696:	4393      	bics	r3, r2
  402698:	d00b      	beq.n	4026b2 <pmc_enable_periph_clk+0x4a>
  40269a:	2301      	movs	r3, #1
  40269c:	fa03 f000 	lsl.w	r0, r3, r0
  4026a0:	4b05      	ldr	r3, [pc, #20]	; (4026b8 <pmc_enable_periph_clk+0x50>)
  4026a2:	f8c3 0100 	str.w	r0, [r3, #256]	; 0x100
  4026a6:	2000      	movs	r0, #0
  4026a8:	4770      	bx	lr
  4026aa:	2001      	movs	r0, #1
  4026ac:	4770      	bx	lr
  4026ae:	2000      	movs	r0, #0
  4026b0:	4770      	bx	lr
  4026b2:	2000      	movs	r0, #0
  4026b4:	4770      	bx	lr
  4026b6:	bf00      	nop
  4026b8:	400e0400 	.word	0x400e0400

004026bc <Dummy_Handler>:
  4026bc:	e7fe      	b.n	4026bc <Dummy_Handler>
	...

004026c0 <Reset_Handler>:
  4026c0:	b500      	push	{lr}
  4026c2:	b083      	sub	sp, #12
  4026c4:	4b1e      	ldr	r3, [pc, #120]	; (402740 <Reset_Handler+0x80>)
  4026c6:	4a1f      	ldr	r2, [pc, #124]	; (402744 <Reset_Handler+0x84>)
  4026c8:	429a      	cmp	r2, r3
  4026ca:	d009      	beq.n	4026e0 <Reset_Handler+0x20>
  4026cc:	4b1c      	ldr	r3, [pc, #112]	; (402740 <Reset_Handler+0x80>)
  4026ce:	4a1d      	ldr	r2, [pc, #116]	; (402744 <Reset_Handler+0x84>)
  4026d0:	e003      	b.n	4026da <Reset_Handler+0x1a>
  4026d2:	6811      	ldr	r1, [r2, #0]
  4026d4:	6019      	str	r1, [r3, #0]
  4026d6:	3304      	adds	r3, #4
  4026d8:	3204      	adds	r2, #4
  4026da:	491b      	ldr	r1, [pc, #108]	; (402748 <Reset_Handler+0x88>)
  4026dc:	428b      	cmp	r3, r1
  4026de:	d3f8      	bcc.n	4026d2 <Reset_Handler+0x12>
  4026e0:	4b1a      	ldr	r3, [pc, #104]	; (40274c <Reset_Handler+0x8c>)
  4026e2:	e002      	b.n	4026ea <Reset_Handler+0x2a>
  4026e4:	2200      	movs	r2, #0
  4026e6:	601a      	str	r2, [r3, #0]
  4026e8:	3304      	adds	r3, #4
  4026ea:	4a19      	ldr	r2, [pc, #100]	; (402750 <Reset_Handler+0x90>)
  4026ec:	4293      	cmp	r3, r2
  4026ee:	d3f9      	bcc.n	4026e4 <Reset_Handler+0x24>
  4026f0:	4a18      	ldr	r2, [pc, #96]	; (402754 <Reset_Handler+0x94>)
  4026f2:	4b19      	ldr	r3, [pc, #100]	; (402758 <Reset_Handler+0x98>)
  4026f4:	f023 037f 	bic.w	r3, r3, #127	; 0x7f
  4026f8:	6093      	str	r3, [r2, #8]
  4026fa:	f3ef 8310 	mrs	r3, PRIMASK
  4026fe:	fab3 f383 	clz	r3, r3
  402702:	095b      	lsrs	r3, r3, #5
  402704:	9301      	str	r3, [sp, #4]
  402706:	b672      	cpsid	i
  402708:	f3bf 8f5f 	dmb	sy
  40270c:	2200      	movs	r2, #0
  40270e:	4b13      	ldr	r3, [pc, #76]	; (40275c <Reset_Handler+0x9c>)
  402710:	701a      	strb	r2, [r3, #0]
  402712:	9901      	ldr	r1, [sp, #4]
  402714:	4a12      	ldr	r2, [pc, #72]	; (402760 <Reset_Handler+0xa0>)
  402716:	6813      	ldr	r3, [r2, #0]
  402718:	f443 0370 	orr.w	r3, r3, #15728640	; 0xf00000
  40271c:	6013      	str	r3, [r2, #0]
  40271e:	f3bf 8f4f 	dsb	sy
  402722:	f3bf 8f6f 	isb	sy
  402726:	b129      	cbz	r1, 402734 <Reset_Handler+0x74>
  402728:	2201      	movs	r2, #1
  40272a:	4b0c      	ldr	r3, [pc, #48]	; (40275c <Reset_Handler+0x9c>)
  40272c:	701a      	strb	r2, [r3, #0]
  40272e:	f3bf 8f5f 	dmb	sy
  402732:	b662      	cpsie	i
  402734:	4b0b      	ldr	r3, [pc, #44]	; (402764 <Reset_Handler+0xa4>)
  402736:	4798      	blx	r3
  402738:	4b0b      	ldr	r3, [pc, #44]	; (402768 <Reset_Handler+0xa8>)
  40273a:	4798      	blx	r3
  40273c:	e7fe      	b.n	40273c <Reset_Handler+0x7c>
  40273e:	bf00      	nop
  402740:	20000000 	.word	0x20000000
  402744:	0040309c 	.word	0x0040309c
  402748:	20000574 	.word	0x20000574
  40274c:	20000574 	.word	0x20000574
  402750:	2000081c 	.word	0x2000081c
  402754:	e000ed00 	.word	0xe000ed00
  402758:	00400000 	.word	0x00400000
  40275c:	20000004 	.word	0x20000004
  402760:	e000ed88 	.word	0xe000ed88
  402764:	00402bbd 	.word	0x00402bbd
  402768:	00402975 	.word	0x00402975

0040276c <SystemCoreClockUpdate>:
  40276c:	4b3c      	ldr	r3, [pc, #240]	; (402860 <SystemCoreClockUpdate+0xf4>)
  40276e:	6b1b      	ldr	r3, [r3, #48]	; 0x30
  402770:	f003 0303 	and.w	r3, r3, #3
  402774:	2b01      	cmp	r3, #1
  402776:	d020      	beq.n	4027ba <SystemCoreClockUpdate+0x4e>
  402778:	b183      	cbz	r3, 40279c <SystemCoreClockUpdate+0x30>
  40277a:	2b02      	cmp	r3, #2
  40277c:	d039      	beq.n	4027f2 <SystemCoreClockUpdate+0x86>
  40277e:	4b38      	ldr	r3, [pc, #224]	; (402860 <SystemCoreClockUpdate+0xf4>)
  402780:	6b1b      	ldr	r3, [r3, #48]	; 0x30
  402782:	f003 0370 	and.w	r3, r3, #112	; 0x70
  402786:	2b70      	cmp	r3, #112	; 0x70
  402788:	d062      	beq.n	402850 <SystemCoreClockUpdate+0xe4>
  40278a:	4b35      	ldr	r3, [pc, #212]	; (402860 <SystemCoreClockUpdate+0xf4>)
  40278c:	6b1a      	ldr	r2, [r3, #48]	; 0x30
  40278e:	f3c2 1202 	ubfx	r2, r2, #4, #3
  402792:	4934      	ldr	r1, [pc, #208]	; (402864 <SystemCoreClockUpdate+0xf8>)
  402794:	680b      	ldr	r3, [r1, #0]
  402796:	40d3      	lsrs	r3, r2
  402798:	600b      	str	r3, [r1, #0]
  40279a:	4770      	bx	lr
  40279c:	4b32      	ldr	r3, [pc, #200]	; (402868 <SystemCoreClockUpdate+0xfc>)
  40279e:	695b      	ldr	r3, [r3, #20]
  4027a0:	f013 0f80 	tst.w	r3, #128	; 0x80
  4027a4:	d004      	beq.n	4027b0 <SystemCoreClockUpdate+0x44>
  4027a6:	f44f 4200 	mov.w	r2, #32768	; 0x8000
  4027aa:	4b2e      	ldr	r3, [pc, #184]	; (402864 <SystemCoreClockUpdate+0xf8>)
  4027ac:	601a      	str	r2, [r3, #0]
  4027ae:	e7e6      	b.n	40277e <SystemCoreClockUpdate+0x12>
  4027b0:	f44f 42fa 	mov.w	r2, #32000	; 0x7d00
  4027b4:	4b2b      	ldr	r3, [pc, #172]	; (402864 <SystemCoreClockUpdate+0xf8>)
  4027b6:	601a      	str	r2, [r3, #0]
  4027b8:	e7e1      	b.n	40277e <SystemCoreClockUpdate+0x12>
  4027ba:	4b29      	ldr	r3, [pc, #164]	; (402860 <SystemCoreClockUpdate+0xf4>)
  4027bc:	6a1b      	ldr	r3, [r3, #32]
  4027be:	f013 7f80 	tst.w	r3, #16777216	; 0x1000000
  4027c2:	d003      	beq.n	4027cc <SystemCoreClockUpdate+0x60>
  4027c4:	4a29      	ldr	r2, [pc, #164]	; (40286c <SystemCoreClockUpdate+0x100>)
  4027c6:	4b27      	ldr	r3, [pc, #156]	; (402864 <SystemCoreClockUpdate+0xf8>)
  4027c8:	601a      	str	r2, [r3, #0]
  4027ca:	e7d8      	b.n	40277e <SystemCoreClockUpdate+0x12>
  4027cc:	4a28      	ldr	r2, [pc, #160]	; (402870 <SystemCoreClockUpdate+0x104>)
  4027ce:	4b25      	ldr	r3, [pc, #148]	; (402864 <SystemCoreClockUpdate+0xf8>)
  4027d0:	601a      	str	r2, [r3, #0]
  4027d2:	4b23      	ldr	r3, [pc, #140]	; (402860 <SystemCoreClockUpdate+0xf4>)
  4027d4:	6a1b      	ldr	r3, [r3, #32]
  4027d6:	f003 0370 	and.w	r3, r3, #112	; 0x70
  4027da:	2b10      	cmp	r3, #16
  4027dc:	d005      	beq.n	4027ea <SystemCoreClockUpdate+0x7e>
  4027de:	2b20      	cmp	r3, #32
  4027e0:	d1cd      	bne.n	40277e <SystemCoreClockUpdate+0x12>
  4027e2:	4a22      	ldr	r2, [pc, #136]	; (40286c <SystemCoreClockUpdate+0x100>)
  4027e4:	4b1f      	ldr	r3, [pc, #124]	; (402864 <SystemCoreClockUpdate+0xf8>)
  4027e6:	601a      	str	r2, [r3, #0]
  4027e8:	e7c9      	b.n	40277e <SystemCoreClockUpdate+0x12>
  4027ea:	4a22      	ldr	r2, [pc, #136]	; (402874 <SystemCoreClockUpdate+0x108>)
  4027ec:	4b1d      	ldr	r3, [pc, #116]	; (402864 <SystemCoreClockUpdate+0xf8>)
  4027ee:	601a      	str	r2, [r3, #0]
  4027f0:	e7c5      	b.n	40277e <SystemCoreClockUpdate+0x12>
  4027f2:	4b1b      	ldr	r3, [pc, #108]	; (402860 <SystemCoreClockUpdate+0xf4>)
  4027f4:	6a1b      	ldr	r3, [r3, #32]
  4027f6:	f013 7f80 	tst.w	r3, #16777216	; 0x1000000
  4027fa:	d016      	beq.n	40282a <SystemCoreClockUpdate+0xbe>
  4027fc:	4a1b      	ldr	r2, [pc, #108]	; (40286c <SystemCoreClockUpdate+0x100>)
  4027fe:	4b19      	ldr	r3, [pc, #100]	; (402864 <SystemCoreClockUpdate+0xf8>)
  402800:	601a      	str	r2, [r3, #0]
  402802:	4b17      	ldr	r3, [pc, #92]	; (402860 <SystemCoreClockUpdate+0xf4>)
  402804:	6b1b      	ldr	r3, [r3, #48]	; 0x30
  402806:	f003 0303 	and.w	r3, r3, #3
  40280a:	2b02      	cmp	r3, #2
  40280c:	d1b7      	bne.n	40277e <SystemCoreClockUpdate+0x12>
  40280e:	4814      	ldr	r0, [pc, #80]	; (402860 <SystemCoreClockUpdate+0xf4>)
  402810:	6a82      	ldr	r2, [r0, #40]	; 0x28
  402812:	f3c2 420a 	ubfx	r2, r2, #16, #11
  402816:	4913      	ldr	r1, [pc, #76]	; (402864 <SystemCoreClockUpdate+0xf8>)
  402818:	680b      	ldr	r3, [r1, #0]
  40281a:	fb02 3303 	mla	r3, r2, r3, r3
  40281e:	6a82      	ldr	r2, [r0, #40]	; 0x28
  402820:	b2d2      	uxtb	r2, r2
  402822:	fbb3 f3f2 	udiv	r3, r3, r2
  402826:	600b      	str	r3, [r1, #0]
  402828:	e7a9      	b.n	40277e <SystemCoreClockUpdate+0x12>
  40282a:	4a11      	ldr	r2, [pc, #68]	; (402870 <SystemCoreClockUpdate+0x104>)
  40282c:	4b0d      	ldr	r3, [pc, #52]	; (402864 <SystemCoreClockUpdate+0xf8>)
  40282e:	601a      	str	r2, [r3, #0]
  402830:	4b0b      	ldr	r3, [pc, #44]	; (402860 <SystemCoreClockUpdate+0xf4>)
  402832:	6a1b      	ldr	r3, [r3, #32]
  402834:	f003 0370 	and.w	r3, r3, #112	; 0x70
  402838:	2b10      	cmp	r3, #16
  40283a:	d005      	beq.n	402848 <SystemCoreClockUpdate+0xdc>
  40283c:	2b20      	cmp	r3, #32
  40283e:	d1e0      	bne.n	402802 <SystemCoreClockUpdate+0x96>
  402840:	4a0a      	ldr	r2, [pc, #40]	; (40286c <SystemCoreClockUpdate+0x100>)
  402842:	4b08      	ldr	r3, [pc, #32]	; (402864 <SystemCoreClockUpdate+0xf8>)
  402844:	601a      	str	r2, [r3, #0]
  402846:	e7dc      	b.n	402802 <SystemCoreClockUpdate+0x96>
  402848:	4a0a      	ldr	r2, [pc, #40]	; (402874 <SystemCoreClockUpdate+0x108>)
  40284a:	4b06      	ldr	r3, [pc, #24]	; (402864 <SystemCoreClockUpdate+0xf8>)
  40284c:	601a      	str	r2, [r3, #0]
  40284e:	e7d8      	b.n	402802 <SystemCoreClockUpdate+0x96>
  402850:	4a04      	ldr	r2, [pc, #16]	; (402864 <SystemCoreClockUpdate+0xf8>)
  402852:	6813      	ldr	r3, [r2, #0]
  402854:	4908      	ldr	r1, [pc, #32]	; (402878 <SystemCoreClockUpdate+0x10c>)
  402856:	fba1 1303 	umull	r1, r3, r1, r3
  40285a:	085b      	lsrs	r3, r3, #1
  40285c:	6013      	str	r3, [r2, #0]
  40285e:	4770      	bx	lr
  402860:	400e0400 	.word	0x400e0400
  402864:	20000008 	.word	0x20000008
  402868:	400e1810 	.word	0x400e1810
  40286c:	00b71b00 	.word	0x00b71b00
  402870:	003d0900 	.word	0x003d0900
  402874:	007a1200 	.word	0x007a1200
  402878:	aaaaaaab 	.word	0xaaaaaaab

0040287c <system_init_flash>:
  40287c:	4b14      	ldr	r3, [pc, #80]	; (4028d0 <system_init_flash+0x54>)
  40287e:	4298      	cmp	r0, r3
  402880:	d90f      	bls.n	4028a2 <system_init_flash+0x26>
  402882:	4b14      	ldr	r3, [pc, #80]	; (4028d4 <system_init_flash+0x58>)
  402884:	4298      	cmp	r0, r3
  402886:	d911      	bls.n	4028ac <system_init_flash+0x30>
  402888:	4b13      	ldr	r3, [pc, #76]	; (4028d8 <system_init_flash+0x5c>)
  40288a:	4298      	cmp	r0, r3
  40288c:	d912      	bls.n	4028b4 <system_init_flash+0x38>
  40288e:	4b13      	ldr	r3, [pc, #76]	; (4028dc <system_init_flash+0x60>)
  402890:	4298      	cmp	r0, r3
  402892:	d913      	bls.n	4028bc <system_init_flash+0x40>
  402894:	4b12      	ldr	r3, [pc, #72]	; (4028e0 <system_init_flash+0x64>)
  402896:	4298      	cmp	r0, r3
  402898:	d914      	bls.n	4028c4 <system_init_flash+0x48>
  40289a:	4a12      	ldr	r2, [pc, #72]	; (4028e4 <system_init_flash+0x68>)
  40289c:	4b12      	ldr	r3, [pc, #72]	; (4028e8 <system_init_flash+0x6c>)
  40289e:	601a      	str	r2, [r3, #0]
  4028a0:	4770      	bx	lr
  4028a2:	f04f 6280 	mov.w	r2, #67108864	; 0x4000000
  4028a6:	4b10      	ldr	r3, [pc, #64]	; (4028e8 <system_init_flash+0x6c>)
  4028a8:	601a      	str	r2, [r3, #0]
  4028aa:	4770      	bx	lr
  4028ac:	4a0f      	ldr	r2, [pc, #60]	; (4028ec <system_init_flash+0x70>)
  4028ae:	4b0e      	ldr	r3, [pc, #56]	; (4028e8 <system_init_flash+0x6c>)
  4028b0:	601a      	str	r2, [r3, #0]
  4028b2:	4770      	bx	lr
  4028b4:	4a0e      	ldr	r2, [pc, #56]	; (4028f0 <system_init_flash+0x74>)
  4028b6:	4b0c      	ldr	r3, [pc, #48]	; (4028e8 <system_init_flash+0x6c>)
  4028b8:	601a      	str	r2, [r3, #0]
  4028ba:	4770      	bx	lr
  4028bc:	4a0d      	ldr	r2, [pc, #52]	; (4028f4 <system_init_flash+0x78>)
  4028be:	4b0a      	ldr	r3, [pc, #40]	; (4028e8 <system_init_flash+0x6c>)
  4028c0:	601a      	str	r2, [r3, #0]
  4028c2:	4770      	bx	lr
  4028c4:	f04f 2204 	mov.w	r2, #67109888	; 0x4000400
  4028c8:	4b07      	ldr	r3, [pc, #28]	; (4028e8 <system_init_flash+0x6c>)
  4028ca:	601a      	str	r2, [r3, #0]
  4028cc:	4770      	bx	lr
  4028ce:	bf00      	nop
  4028d0:	01312cff 	.word	0x01312cff
  4028d4:	026259ff 	.word	0x026259ff
  4028d8:	039386ff 	.word	0x039386ff
  4028dc:	04c4b3ff 	.word	0x04c4b3ff
  4028e0:	05f5e0ff 	.word	0x05f5e0ff
  4028e4:	04000500 	.word	0x04000500
  4028e8:	400e0a00 	.word	0x400e0a00
  4028ec:	04000100 	.word	0x04000100
  4028f0:	04000200 	.word	0x04000200
  4028f4:	04000300 	.word	0x04000300

004028f8 <prvInitialiseHeap>:
  4028f8:	b500      	push	{lr}
  4028fa:	b089      	sub	sp, #36	; 0x24
  4028fc:	4b10      	ldr	r3, [pc, #64]	; (402940 <prvInitialiseHeap+0x48>)
  4028fe:	1dda      	adds	r2, r3, #7
  402900:	f022 0207 	bic.w	r2, r2, #7
  402904:	f1c3 5300 	rsb	r3, r3, #536870912	; 0x20000000
  402908:	f503 3300 	add.w	r3, r3, #131072	; 0x20000
  40290c:	f023 0307 	bic.w	r3, r3, #7
  402910:	f5a3 6380 	sub.w	r3, r3, #1024	; 0x400
  402914:	9200      	str	r2, [sp, #0]
  402916:	9301      	str	r3, [sp, #4]
  402918:	f04f 43c2 	mov.w	r3, #1627389952	; 0x61000000
  40291c:	9302      	str	r3, [sp, #8]
  40291e:	f44f 2300 	mov.w	r3, #524288	; 0x80000
  402922:	9303      	str	r3, [sp, #12]
  402924:	f04f 42c6 	mov.w	r2, #1660944384	; 0x63000000
  402928:	9204      	str	r2, [sp, #16]
  40292a:	9305      	str	r3, [sp, #20]
  40292c:	2300      	movs	r3, #0
  40292e:	9306      	str	r3, [sp, #24]
  402930:	9307      	str	r3, [sp, #28]
  402932:	4668      	mov	r0, sp
  402934:	4b03      	ldr	r3, [pc, #12]	; (402944 <prvInitialiseHeap+0x4c>)
  402936:	4798      	blx	r3
  402938:	b009      	add	sp, #36	; 0x24
  40293a:	f85d fb04 	ldr.w	pc, [sp], #4
  40293e:	bf00      	nop
  402940:	20003820 	.word	0x20003820
  402944:	00400749 	.word	0x00400749

00402948 <prvMiscInitialisation>:
  402948:	b510      	push	{r4, lr}
  40294a:	4b06      	ldr	r3, [pc, #24]	; (402964 <prvMiscInitialisation+0x1c>)
  40294c:	4798      	blx	r3
  40294e:	4b06      	ldr	r3, [pc, #24]	; (402968 <prvMiscInitialisation+0x20>)
  402950:	4798      	blx	r3
  402952:	4b06      	ldr	r3, [pc, #24]	; (40296c <prvMiscInitialisation+0x24>)
  402954:	4798      	blx	r3
  402956:	2009      	movs	r0, #9
  402958:	4c05      	ldr	r4, [pc, #20]	; (402970 <prvMiscInitialisation+0x28>)
  40295a:	47a0      	blx	r4
  40295c:	200a      	movs	r0, #10
  40295e:	47a0      	blx	r4
  402960:	bd10      	pop	{r4, pc}
  402962:	bf00      	nop
  402964:	004024b5 	.word	0x004024b5
  402968:	0040251d 	.word	0x0040251d
  40296c:	004028f9 	.word	0x004028f9
  402970:	00402669 	.word	0x00402669

00402974 <main>:
  402974:	e92d 4ff0 	stmdb	sp!, {r4, r5, r6, r7, r8, r9, sl, fp, lr}
  402978:	b083      	sub	sp, #12
  40297a:	4b59      	ldr	r3, [pc, #356]	; (402ae0 <main+0x16c>)
  40297c:	4798      	blx	r3
  40297e:	4b59      	ldr	r3, [pc, #356]	; (402ae4 <main+0x170>)
  402980:	4798      	blx	r3
  402982:	4b59      	ldr	r3, [pc, #356]	; (402ae8 <main+0x174>)
  402984:	4798      	blx	r3
  402986:	4c59      	ldr	r4, [pc, #356]	; (402aec <main+0x178>)
  402988:	4620      	mov	r0, r4
  40298a:	4b59      	ldr	r3, [pc, #356]	; (402af0 <main+0x17c>)
  40298c:	4798      	blx	r3
  40298e:	220c      	movs	r2, #12
  402990:	4958      	ldr	r1, [pc, #352]	; (402af4 <main+0x180>)
  402992:	4620      	mov	r0, r4
  402994:	4b58      	ldr	r3, [pc, #352]	; (402af8 <main+0x184>)
  402996:	4798      	blx	r3
  402998:	2200      	movs	r2, #0
  40299a:	2101      	movs	r1, #1
  40299c:	2005      	movs	r0, #5
  40299e:	4c57      	ldr	r4, [pc, #348]	; (402afc <main+0x188>)
  4029a0:	47a0      	blx	r4
  4029a2:	4e57      	ldr	r6, [pc, #348]	; (402b00 <main+0x18c>)
  4029a4:	6030      	str	r0, [r6, #0]
  4029a6:	2200      	movs	r2, #0
  4029a8:	2101      	movs	r1, #1
  4029aa:	2005      	movs	r0, #5
  4029ac:	47a0      	blx	r4
  4029ae:	6070      	str	r0, [r6, #4]
  4029b0:	2200      	movs	r2, #0
  4029b2:	2101      	movs	r1, #1
  4029b4:	2005      	movs	r0, #5
  4029b6:	47a0      	blx	r4
  4029b8:	60b0      	str	r0, [r6, #8]
  4029ba:	2200      	movs	r2, #0
  4029bc:	2132      	movs	r1, #50	; 0x32
  4029be:	2005      	movs	r0, #5
  4029c0:	47a0      	blx	r4
  4029c2:	4b50      	ldr	r3, [pc, #320]	; (402b04 <main+0x190>)
  4029c4:	6018      	str	r0, [r3, #0]
  4029c6:	f8d6 e000 	ldr.w	lr, [r6]
  4029ca:	f8df a18c 	ldr.w	sl, [pc, #396]	; 402b58 <main+0x1e4>
  4029ce:	f8ca e000 	str.w	lr, [sl]
  4029d2:	f8ca 0004 	str.w	r0, [sl, #4]
  4029d6:	4f4c      	ldr	r7, [pc, #304]	; (402b08 <main+0x194>)
  4029d8:	683b      	ldr	r3, [r7, #0]
  4029da:	f8ca 3008 	str.w	r3, [sl, #8]
  4029de:	4d4b      	ldr	r5, [pc, #300]	; (402b0c <main+0x198>)
  4029e0:	686b      	ldr	r3, [r5, #4]
  4029e2:	f8ca 300c 	str.w	r3, [sl, #12]
  4029e6:	f04f 0b00 	mov.w	fp, #0
  4029ea:	f88a b010 	strb.w	fp, [sl, #16]
  4029ee:	6872      	ldr	r2, [r6, #4]
  4029f0:	f8df 9168 	ldr.w	r9, [pc, #360]	; 402b5c <main+0x1e8>
  4029f4:	f8c9 2000 	str.w	r2, [r9]
  4029f8:	f8c9 0004 	str.w	r0, [r9, #4]
  4029fc:	687b      	ldr	r3, [r7, #4]
  4029fe:	f8c9 3008 	str.w	r3, [r9, #8]
  402a02:	68ab      	ldr	r3, [r5, #8]
  402a04:	f8c9 300c 	str.w	r3, [r9, #12]
  402a08:	2401      	movs	r4, #1
  402a0a:	f889 4010 	strb.w	r4, [r9, #16]
  402a0e:	68b3      	ldr	r3, [r6, #8]
  402a10:	f8df 814c 	ldr.w	r8, [pc, #332]	; 402b60 <main+0x1ec>
  402a14:	f8c8 3000 	str.w	r3, [r8]
  402a18:	f8c8 0004 	str.w	r0, [r8, #4]
  402a1c:	68b9      	ldr	r1, [r7, #8]
  402a1e:	f8c8 1008 	str.w	r1, [r8, #8]
  402a22:	6829      	ldr	r1, [r5, #0]
  402a24:	f8c8 100c 	str.w	r1, [r8, #12]
  402a28:	2102      	movs	r1, #2
  402a2a:	f888 1010 	strb.w	r1, [r8, #16]
  402a2e:	4e38      	ldr	r6, [pc, #224]	; (402b10 <main+0x19c>)
  402a30:	f8c6 e000 	str.w	lr, [r6]
  402a34:	6070      	str	r0, [r6, #4]
  402a36:	f886 b008 	strb.w	fp, [r6, #8]
  402a3a:	4e36      	ldr	r6, [pc, #216]	; (402b14 <main+0x1a0>)
  402a3c:	6032      	str	r2, [r6, #0]
  402a3e:	6070      	str	r0, [r6, #4]
  402a40:	7234      	strb	r4, [r6, #8]
  402a42:	4a35      	ldr	r2, [pc, #212]	; (402b18 <main+0x1a4>)
  402a44:	6013      	str	r3, [r2, #0]
  402a46:	6050      	str	r0, [r2, #4]
  402a48:	7211      	strb	r1, [r2, #8]
  402a4a:	f8cd b004 	str.w	fp, [sp, #4]
  402a4e:	9400      	str	r4, [sp, #0]
  402a50:	465b      	mov	r3, fp
  402a52:	2282      	movs	r2, #130	; 0x82
  402a54:	4931      	ldr	r1, [pc, #196]	; (402b1c <main+0x1a8>)
  402a56:	4832      	ldr	r0, [pc, #200]	; (402b20 <main+0x1ac>)
  402a58:	4e32      	ldr	r6, [pc, #200]	; (402b24 <main+0x1b0>)
  402a5a:	47b0      	blx	r6
  402a5c:	f8cd b004 	str.w	fp, [sp, #4]
  402a60:	9400      	str	r4, [sp, #0]
  402a62:	4b31      	ldr	r3, [pc, #196]	; (402b28 <main+0x1b4>)
  402a64:	2282      	movs	r2, #130	; 0x82
  402a66:	4931      	ldr	r1, [pc, #196]	; (402b2c <main+0x1b8>)
  402a68:	4831      	ldr	r0, [pc, #196]	; (402b30 <main+0x1bc>)
  402a6a:	47b0      	blx	r6
  402a6c:	f8df b0f4 	ldr.w	fp, [pc, #244]	; 402b64 <main+0x1f0>
  402a70:	9701      	str	r7, [sp, #4]
  402a72:	9400      	str	r4, [sp, #0]
  402a74:	4b26      	ldr	r3, [pc, #152]	; (402b10 <main+0x19c>)
  402a76:	2282      	movs	r2, #130	; 0x82
  402a78:	492e      	ldr	r1, [pc, #184]	; (402b34 <main+0x1c0>)
  402a7a:	4658      	mov	r0, fp
  402a7c:	47b0      	blx	r6
  402a7e:	1d3b      	adds	r3, r7, #4
  402a80:	9301      	str	r3, [sp, #4]
  402a82:	9400      	str	r4, [sp, #0]
  402a84:	4b23      	ldr	r3, [pc, #140]	; (402b14 <main+0x1a0>)
  402a86:	2282      	movs	r2, #130	; 0x82
  402a88:	492b      	ldr	r1, [pc, #172]	; (402b38 <main+0x1c4>)
  402a8a:	4658      	mov	r0, fp
  402a8c:	47b0      	blx	r6
  402a8e:	3708      	adds	r7, #8
  402a90:	9701      	str	r7, [sp, #4]
  402a92:	9400      	str	r4, [sp, #0]
  402a94:	4b20      	ldr	r3, [pc, #128]	; (402b18 <main+0x1a4>)
  402a96:	2282      	movs	r2, #130	; 0x82
  402a98:	4928      	ldr	r1, [pc, #160]	; (402b3c <main+0x1c8>)
  402a9a:	4658      	mov	r0, fp
  402a9c:	47b0      	blx	r6
  402a9e:	4f28      	ldr	r7, [pc, #160]	; (402b40 <main+0x1cc>)
  402aa0:	9501      	str	r5, [sp, #4]
  402aa2:	9400      	str	r4, [sp, #0]
  402aa4:	4653      	mov	r3, sl
  402aa6:	2282      	movs	r2, #130	; 0x82
  402aa8:	4926      	ldr	r1, [pc, #152]	; (402b44 <main+0x1d0>)
  402aaa:	4638      	mov	r0, r7
  402aac:	47b0      	blx	r6
  402aae:	1d2b      	adds	r3, r5, #4
  402ab0:	9301      	str	r3, [sp, #4]
  402ab2:	9400      	str	r4, [sp, #0]
  402ab4:	464b      	mov	r3, r9
  402ab6:	2282      	movs	r2, #130	; 0x82
  402ab8:	4923      	ldr	r1, [pc, #140]	; (402b48 <main+0x1d4>)
  402aba:	4638      	mov	r0, r7
  402abc:	47b0      	blx	r6
  402abe:	f105 0308 	add.w	r3, r5, #8
  402ac2:	9301      	str	r3, [sp, #4]
  402ac4:	9400      	str	r4, [sp, #0]
  402ac6:	4643      	mov	r3, r8
  402ac8:	2282      	movs	r2, #130	; 0x82
  402aca:	4920      	ldr	r1, [pc, #128]	; (402b4c <main+0x1d8>)
  402acc:	4638      	mov	r0, r7
  402ace:	47b0      	blx	r6
  402ad0:	6868      	ldr	r0, [r5, #4]
  402ad2:	4c1f      	ldr	r4, [pc, #124]	; (402b50 <main+0x1dc>)
  402ad4:	47a0      	blx	r4
  402ad6:	68a8      	ldr	r0, [r5, #8]
  402ad8:	47a0      	blx	r4
  402ada:	4b1e      	ldr	r3, [pc, #120]	; (402b54 <main+0x1e0>)
  402adc:	4798      	blx	r3
  402ade:	e7fe      	b.n	402ade <main+0x16a>
  402ae0:	00402949 	.word	0x00402949
  402ae4:	004020b9 	.word	0x004020b9
  402ae8:	004021e9 	.word	0x004021e9
  402aec:	400e0600 	.word	0x400e0600
  402af0:	0040242d 	.word	0x0040242d
  402af4:	00402fbc 	.word	0x00402fbc
  402af8:	00402495 	.word	0x00402495
  402afc:	00400ae5 	.word	0x00400ae5
  402b00:	20000744 	.word	0x20000744
  402b04:	20000754 	.word	0x20000754
  402b08:	20000738 	.word	0x20000738
  402b0c:	2000072c 	.word	0x2000072c
  402b10:	200007ac 	.word	0x200007ac
  402b14:	200007cc 	.word	0x200007cc
  402b18:	200007ec 	.word	0x200007ec
  402b1c:	00402fcc 	.word	0x00402fcc
  402b20:	00402379 	.word	0x00402379
  402b24:	004013c5 	.word	0x004013c5
  402b28:	20000750 	.word	0x20000750
  402b2c:	00402fdc 	.word	0x00402fdc
  402b30:	004023f1 	.word	0x004023f1
  402b34:	00402fec 	.word	0x00402fec
  402b38:	00402ff8 	.word	0x00402ff8
  402b3c:	00403004 	.word	0x00403004
  402b40:	0040229d 	.word	0x0040229d
  402b44:	00403010 	.word	0x00403010
  402b48:	0040302c 	.word	0x0040302c
  402b4c:	00403048 	.word	0x00403048
  402b50:	00401851 	.word	0x00401851
  402b54:	00401439 	.word	0x00401439
  402b58:	200007b8 	.word	0x200007b8
  402b5c:	20000798 	.word	0x20000798
  402b60:	200007d8 	.word	0x200007d8
  402b64:	00402395 	.word	0x00402395

00402b68 <vAssertCalled>:
  402b68:	b082      	sub	sp, #8
  402b6a:	2300      	movs	r3, #0
  402b6c:	9301      	str	r3, [sp, #4]
  402b6e:	f04f 0350 	mov.w	r3, #80	; 0x50
  402b72:	f383 8811 	msr	BASEPRI, r3
  402b76:	f3bf 8f6f 	isb	sy
  402b7a:	f3bf 8f4f 	dsb	sy
  402b7e:	e000      	b.n	402b82 <vAssertCalled+0x1a>
  402b80:	bf00      	nop
  402b82:	9b01      	ldr	r3, [sp, #4]
  402b84:	2b00      	cmp	r3, #0
  402b86:	d0fb      	beq.n	402b80 <vAssertCalled+0x18>
  402b88:	2300      	movs	r3, #0
  402b8a:	f383 8811 	msr	BASEPRI, r3
  402b8e:	b002      	add	sp, #8
  402b90:	4770      	bx	lr
	...

00402b94 <vApplicationMallocFailedHook>:
  402b94:	b508      	push	{r3, lr}
  402b96:	21d9      	movs	r1, #217	; 0xd9
  402b98:	4801      	ldr	r0, [pc, #4]	; (402ba0 <vApplicationMallocFailedHook+0xc>)
  402b9a:	4b02      	ldr	r3, [pc, #8]	; (402ba4 <vApplicationMallocFailedHook+0x10>)
  402b9c:	4798      	blx	r3
  402b9e:	bd08      	pop	{r3, pc}
  402ba0:	00403064 	.word	0x00403064
  402ba4:	00402b69 	.word	0x00402b69

00402ba8 <vApplicationStackOverflowHook>:
  402ba8:	f04f 0350 	mov.w	r3, #80	; 0x50
  402bac:	f383 8811 	msr	BASEPRI, r3
  402bb0:	f3bf 8f6f 	isb	sy
  402bb4:	f3bf 8f4f 	dsb	sy
  402bb8:	e7fe      	b.n	402bb8 <vApplicationStackOverflowHook+0x10>
	...

00402bbc <__libc_init_array>:
  402bbc:	b570      	push	{r4, r5, r6, lr}
  402bbe:	4e0f      	ldr	r6, [pc, #60]	; (402bfc <__libc_init_array+0x40>)
  402bc0:	4d0f      	ldr	r5, [pc, #60]	; (402c00 <__libc_init_array+0x44>)
  402bc2:	1b76      	subs	r6, r6, r5
  402bc4:	10b6      	asrs	r6, r6, #2
  402bc6:	bf18      	it	ne
  402bc8:	2400      	movne	r4, #0
  402bca:	d005      	beq.n	402bd8 <__libc_init_array+0x1c>
  402bcc:	3401      	adds	r4, #1
  402bce:	f855 3b04 	ldr.w	r3, [r5], #4
  402bd2:	4798      	blx	r3
  402bd4:	42a6      	cmp	r6, r4
  402bd6:	d1f9      	bne.n	402bcc <__libc_init_array+0x10>
  402bd8:	4e0a      	ldr	r6, [pc, #40]	; (402c04 <__libc_init_array+0x48>)
  402bda:	4d0b      	ldr	r5, [pc, #44]	; (402c08 <__libc_init_array+0x4c>)
  402bdc:	1b76      	subs	r6, r6, r5
  402bde:	f000 fa4b 	bl	403078 <_init>
  402be2:	10b6      	asrs	r6, r6, #2
  402be4:	bf18      	it	ne
  402be6:	2400      	movne	r4, #0
  402be8:	d006      	beq.n	402bf8 <__libc_init_array+0x3c>
  402bea:	3401      	adds	r4, #1
  402bec:	f855 3b04 	ldr.w	r3, [r5], #4
  402bf0:	4798      	blx	r3
  402bf2:	42a6      	cmp	r6, r4
  402bf4:	d1f9      	bne.n	402bea <__libc_init_array+0x2e>
  402bf6:	bd70      	pop	{r4, r5, r6, pc}
  402bf8:	bd70      	pop	{r4, r5, r6, pc}
  402bfa:	bf00      	nop
  402bfc:	00403084 	.word	0x00403084
  402c00:	00403084 	.word	0x00403084
  402c04:	0040308c 	.word	0x0040308c
  402c08:	00403084 	.word	0x00403084

00402c0c <memcpy>:
  402c0c:	4684      	mov	ip, r0
  402c0e:	ea41 0300 	orr.w	r3, r1, r0
  402c12:	f013 0303 	ands.w	r3, r3, #3
  402c16:	d16d      	bne.n	402cf4 <memcpy+0xe8>
  402c18:	3a40      	subs	r2, #64	; 0x40
  402c1a:	d341      	bcc.n	402ca0 <memcpy+0x94>
  402c1c:	f851 3b04 	ldr.w	r3, [r1], #4
  402c20:	f840 3b04 	str.w	r3, [r0], #4
  402c24:	f851 3b04 	ldr.w	r3, [r1], #4
  402c28:	f840 3b04 	str.w	r3, [r0], #4
  402c2c:	f851 3b04 	ldr.w	r3, [r1], #4
  402c30:	f840 3b04 	str.w	r3, [r0], #4
  402c34:	f851 3b04 	ldr.w	r3, [r1], #4
  402c38:	f840 3b04 	str.w	r3, [r0], #4
  402c3c:	f851 3b04 	ldr.w	r3, [r1], #4
  402c40:	f840 3b04 	str.w	r3, [r0], #4
  402c44:	f851 3b04 	ldr.w	r3, [r1], #4
  402c48:	f840 3b04 	str.w	r3, [r0], #4
  402c4c:	f851 3b04 	ldr.w	r3, [r1], #4
  402c50:	f840 3b04 	str.w	r3, [r0], #4
  402c54:	f851 3b04 	ldr.w	r3, [r1], #4
  402c58:	f840 3b04 	str.w	r3, [r0], #4
  402c5c:	f851 3b04 	ldr.w	r3, [r1], #4
  402c60:	f840 3b04 	str.w	r3, [r0], #4
  402c64:	f851 3b04 	ldr.w	r3, [r1], #4
  402c68:	f840 3b04 	str.w	r3, [r0], #4
  402c6c:	f851 3b04 	ldr.w	r3, [r1], #4
  402c70:	f840 3b04 	str.w	r3, [r0], #4
  402c74:	f851 3b04 	ldr.w	r3, [r1], #4
  402c78:	f840 3b04 	str.w	r3, [r0], #4
  402c7c:	f851 3b04 	ldr.w	r3, [r1], #4
  402c80:	f840 3b04 	str.w	r3, [r0], #4
  402c84:	f851 3b04 	ldr.w	r3, [r1], #4
  402c88:	f840 3b04 	str.w	r3, [r0], #4
  402c8c:	f851 3b04 	ldr.w	r3, [r1], #4
  402c90:	f840 3b04 	str.w	r3, [r0], #4
  402c94:	f851 3b04 	ldr.w	r3, [r1], #4
  402c98:	f840 3b04 	str.w	r3, [r0], #4
  402c9c:	3a40      	subs	r2, #64	; 0x40
  402c9e:	d2bd      	bcs.n	402c1c <memcpy+0x10>
  402ca0:	3230      	adds	r2, #48	; 0x30
  402ca2:	d311      	bcc.n	402cc8 <memcpy+0xbc>
  402ca4:	f851 3b04 	ldr.w	r3, [r1], #4
  402ca8:	f840 3b04 	str.w	r3, [r0], #4
  402cac:	f851 3b04 	ldr.w	r3, [r1], #4
  402cb0:	f840 3b04 	str.w	r3, [r0], #4
  402cb4:	f851 3b04 	ldr.w	r3, [r1], #4
  402cb8:	f840 3b04 	str.w	r3, [r0], #4
  402cbc:	f851 3b04 	ldr.w	r3, [r1], #4
  402cc0:	f840 3b04 	str.w	r3, [r0], #4
  402cc4:	3a10      	subs	r2, #16
  402cc6:	d2ed      	bcs.n	402ca4 <memcpy+0x98>
  402cc8:	320c      	adds	r2, #12
  402cca:	d305      	bcc.n	402cd8 <memcpy+0xcc>
  402ccc:	f851 3b04 	ldr.w	r3, [r1], #4
  402cd0:	f840 3b04 	str.w	r3, [r0], #4
  402cd4:	3a04      	subs	r2, #4
  402cd6:	d2f9      	bcs.n	402ccc <memcpy+0xc0>
  402cd8:	3204      	adds	r2, #4
  402cda:	d008      	beq.n	402cee <memcpy+0xe2>
  402cdc:	07d2      	lsls	r2, r2, #31
  402cde:	bf1c      	itt	ne
  402ce0:	f811 3b01 	ldrbne.w	r3, [r1], #1
  402ce4:	f800 3b01 	strbne.w	r3, [r0], #1
  402ce8:	d301      	bcc.n	402cee <memcpy+0xe2>
  402cea:	880b      	ldrh	r3, [r1, #0]
  402cec:	8003      	strh	r3, [r0, #0]
  402cee:	4660      	mov	r0, ip
  402cf0:	4770      	bx	lr
  402cf2:	bf00      	nop
  402cf4:	2a08      	cmp	r2, #8
  402cf6:	d313      	bcc.n	402d20 <memcpy+0x114>
  402cf8:	078b      	lsls	r3, r1, #30
  402cfa:	d08d      	beq.n	402c18 <memcpy+0xc>
  402cfc:	f010 0303 	ands.w	r3, r0, #3
  402d00:	d08a      	beq.n	402c18 <memcpy+0xc>
  402d02:	f1c3 0304 	rsb	r3, r3, #4
  402d06:	1ad2      	subs	r2, r2, r3
  402d08:	07db      	lsls	r3, r3, #31
  402d0a:	bf1c      	itt	ne
  402d0c:	f811 3b01 	ldrbne.w	r3, [r1], #1
  402d10:	f800 3b01 	strbne.w	r3, [r0], #1
  402d14:	d380      	bcc.n	402c18 <memcpy+0xc>
  402d16:	f831 3b02 	ldrh.w	r3, [r1], #2
  402d1a:	f820 3b02 	strh.w	r3, [r0], #2
  402d1e:	e77b      	b.n	402c18 <memcpy+0xc>
  402d20:	3a04      	subs	r2, #4
  402d22:	d3d9      	bcc.n	402cd8 <memcpy+0xcc>
  402d24:	3a01      	subs	r2, #1
  402d26:	f811 3b01 	ldrb.w	r3, [r1], #1
  402d2a:	f800 3b01 	strb.w	r3, [r0], #1
  402d2e:	d2f9      	bcs.n	402d24 <memcpy+0x118>
  402d30:	780b      	ldrb	r3, [r1, #0]
  402d32:	7003      	strb	r3, [r0, #0]
  402d34:	784b      	ldrb	r3, [r1, #1]
  402d36:	7043      	strb	r3, [r0, #1]
  402d38:	788b      	ldrb	r3, [r1, #2]
  402d3a:	7083      	strb	r3, [r0, #2]
  402d3c:	4660      	mov	r0, ip
  402d3e:	4770      	bx	lr

00402d40 <memset>:
  402d40:	b470      	push	{r4, r5, r6}
  402d42:	0786      	lsls	r6, r0, #30
  402d44:	d046      	beq.n	402dd4 <memset+0x94>
  402d46:	1e54      	subs	r4, r2, #1
  402d48:	2a00      	cmp	r2, #0
  402d4a:	d041      	beq.n	402dd0 <memset+0x90>
  402d4c:	b2ca      	uxtb	r2, r1
  402d4e:	4603      	mov	r3, r0
  402d50:	e002      	b.n	402d58 <memset+0x18>
  402d52:	f114 34ff 	adds.w	r4, r4, #4294967295
  402d56:	d33b      	bcc.n	402dd0 <memset+0x90>
  402d58:	f803 2b01 	strb.w	r2, [r3], #1
  402d5c:	079d      	lsls	r5, r3, #30
  402d5e:	d1f8      	bne.n	402d52 <memset+0x12>
  402d60:	2c03      	cmp	r4, #3
  402d62:	d92e      	bls.n	402dc2 <memset+0x82>
  402d64:	b2cd      	uxtb	r5, r1
  402d66:	ea45 2505 	orr.w	r5, r5, r5, lsl #8
  402d6a:	2c0f      	cmp	r4, #15
  402d6c:	ea45 4505 	orr.w	r5, r5, r5, lsl #16
  402d70:	d919      	bls.n	402da6 <memset+0x66>
  402d72:	f103 0210 	add.w	r2, r3, #16
  402d76:	4626      	mov	r6, r4
  402d78:	3e10      	subs	r6, #16
  402d7a:	2e0f      	cmp	r6, #15
  402d7c:	f842 5c10 	str.w	r5, [r2, #-16]
  402d80:	f842 5c0c 	str.w	r5, [r2, #-12]
  402d84:	f842 5c08 	str.w	r5, [r2, #-8]
  402d88:	f842 5c04 	str.w	r5, [r2, #-4]
  402d8c:	f102 0210 	add.w	r2, r2, #16
  402d90:	d8f2      	bhi.n	402d78 <memset+0x38>
  402d92:	f1a4 0210 	sub.w	r2, r4, #16
  402d96:	f022 020f 	bic.w	r2, r2, #15
  402d9a:	f004 040f 	and.w	r4, r4, #15
  402d9e:	3210      	adds	r2, #16
  402da0:	2c03      	cmp	r4, #3
  402da2:	4413      	add	r3, r2
  402da4:	d90d      	bls.n	402dc2 <memset+0x82>
  402da6:	461e      	mov	r6, r3
  402da8:	4622      	mov	r2, r4
  402daa:	3a04      	subs	r2, #4
  402dac:	2a03      	cmp	r2, #3
  402dae:	f846 5b04 	str.w	r5, [r6], #4
  402db2:	d8fa      	bhi.n	402daa <memset+0x6a>
  402db4:	1f22      	subs	r2, r4, #4
  402db6:	f022 0203 	bic.w	r2, r2, #3
  402dba:	3204      	adds	r2, #4
  402dbc:	4413      	add	r3, r2
  402dbe:	f004 0403 	and.w	r4, r4, #3
  402dc2:	b12c      	cbz	r4, 402dd0 <memset+0x90>
  402dc4:	b2c9      	uxtb	r1, r1
  402dc6:	441c      	add	r4, r3
  402dc8:	f803 1b01 	strb.w	r1, [r3], #1
  402dcc:	429c      	cmp	r4, r3
  402dce:	d1fb      	bne.n	402dc8 <memset+0x88>
  402dd0:	bc70      	pop	{r4, r5, r6}
  402dd2:	4770      	bx	lr
  402dd4:	4614      	mov	r4, r2
  402dd6:	4603      	mov	r3, r0
  402dd8:	e7c2      	b.n	402d60 <memset+0x20>
  402dda:	bf00      	nop

00402ddc <register_fini>:
  402ddc:	4b02      	ldr	r3, [pc, #8]	; (402de8 <register_fini+0xc>)
  402dde:	b113      	cbz	r3, 402de6 <register_fini+0xa>
  402de0:	4802      	ldr	r0, [pc, #8]	; (402dec <register_fini+0x10>)
  402de2:	f000 b805 	b.w	402df0 <atexit>
  402de6:	4770      	bx	lr
  402de8:	00000000 	.word	0x00000000
  402dec:	00402dfd 	.word	0x00402dfd

00402df0 <atexit>:
  402df0:	2300      	movs	r3, #0
  402df2:	4601      	mov	r1, r0
  402df4:	461a      	mov	r2, r3
  402df6:	4618      	mov	r0, r3
  402df8:	f000 b81e 	b.w	402e38 <__register_exitproc>

00402dfc <__libc_fini_array>:
  402dfc:	b538      	push	{r3, r4, r5, lr}
  402dfe:	4c0a      	ldr	r4, [pc, #40]	; (402e28 <__libc_fini_array+0x2c>)
  402e00:	4d0a      	ldr	r5, [pc, #40]	; (402e2c <__libc_fini_array+0x30>)
  402e02:	1b64      	subs	r4, r4, r5
  402e04:	10a4      	asrs	r4, r4, #2
  402e06:	d00a      	beq.n	402e1e <__libc_fini_array+0x22>
  402e08:	f104 4380 	add.w	r3, r4, #1073741824	; 0x40000000
  402e0c:	3b01      	subs	r3, #1
  402e0e:	eb05 0583 	add.w	r5, r5, r3, lsl #2
  402e12:	3c01      	subs	r4, #1
  402e14:	f855 3904 	ldr.w	r3, [r5], #-4
  402e18:	4798      	blx	r3
  402e1a:	2c00      	cmp	r4, #0
  402e1c:	d1f9      	bne.n	402e12 <__libc_fini_array+0x16>
  402e1e:	e8bd 4038 	ldmia.w	sp!, {r3, r4, r5, lr}
  402e22:	f000 b933 	b.w	40308c <_fini>
  402e26:	bf00      	nop
  402e28:	0040309c 	.word	0x0040309c
  402e2c:	00403098 	.word	0x00403098

00402e30 <__retarget_lock_acquire_recursive>:
  402e30:	4770      	bx	lr
  402e32:	bf00      	nop

00402e34 <__retarget_lock_release_recursive>:
  402e34:	4770      	bx	lr
  402e36:	bf00      	nop

00402e38 <__register_exitproc>:
  402e38:	e92d 43f8 	stmdb	sp!, {r3, r4, r5, r6, r7, r8, r9, lr}
  402e3c:	4d2c      	ldr	r5, [pc, #176]	; (402ef0 <__register_exitproc+0xb8>)
  402e3e:	4606      	mov	r6, r0
  402e40:	6828      	ldr	r0, [r5, #0]
  402e42:	4698      	mov	r8, r3
  402e44:	460f      	mov	r7, r1
  402e46:	4691      	mov	r9, r2
  402e48:	f7ff fff2 	bl	402e30 <__retarget_lock_acquire_recursive>
  402e4c:	4b29      	ldr	r3, [pc, #164]	; (402ef4 <__register_exitproc+0xbc>)
  402e4e:	681c      	ldr	r4, [r3, #0]
  402e50:	f8d4 3148 	ldr.w	r3, [r4, #328]	; 0x148
  402e54:	2b00      	cmp	r3, #0
  402e56:	d03e      	beq.n	402ed6 <__register_exitproc+0x9e>
  402e58:	685a      	ldr	r2, [r3, #4]
  402e5a:	2a1f      	cmp	r2, #31
  402e5c:	dc1c      	bgt.n	402e98 <__register_exitproc+0x60>
  402e5e:	f102 0e01 	add.w	lr, r2, #1
  402e62:	b176      	cbz	r6, 402e82 <__register_exitproc+0x4a>
  402e64:	eb03 0182 	add.w	r1, r3, r2, lsl #2
  402e68:	2401      	movs	r4, #1
  402e6a:	f8c1 9088 	str.w	r9, [r1, #136]	; 0x88
  402e6e:	f8d3 0188 	ldr.w	r0, [r3, #392]	; 0x188
  402e72:	4094      	lsls	r4, r2
  402e74:	4320      	orrs	r0, r4
  402e76:	2e02      	cmp	r6, #2
  402e78:	f8c3 0188 	str.w	r0, [r3, #392]	; 0x188
  402e7c:	f8c1 8108 	str.w	r8, [r1, #264]	; 0x108
  402e80:	d023      	beq.n	402eca <__register_exitproc+0x92>
  402e82:	3202      	adds	r2, #2
  402e84:	f8c3 e004 	str.w	lr, [r3, #4]
  402e88:	6828      	ldr	r0, [r5, #0]
  402e8a:	f843 7022 	str.w	r7, [r3, r2, lsl #2]
  402e8e:	f7ff ffd1 	bl	402e34 <__retarget_lock_release_recursive>
  402e92:	2000      	movs	r0, #0
  402e94:	e8bd 83f8 	ldmia.w	sp!, {r3, r4, r5, r6, r7, r8, r9, pc}
  402e98:	4b17      	ldr	r3, [pc, #92]	; (402ef8 <__register_exitproc+0xc0>)
  402e9a:	b30b      	cbz	r3, 402ee0 <__register_exitproc+0xa8>
  402e9c:	f44f 70c8 	mov.w	r0, #400	; 0x190
  402ea0:	f3af 8000 	nop.w
  402ea4:	4603      	mov	r3, r0
  402ea6:	b1d8      	cbz	r0, 402ee0 <__register_exitproc+0xa8>
  402ea8:	f8d4 2148 	ldr.w	r2, [r4, #328]	; 0x148
  402eac:	6002      	str	r2, [r0, #0]
  402eae:	2100      	movs	r1, #0
  402eb0:	6041      	str	r1, [r0, #4]
  402eb2:	460a      	mov	r2, r1
  402eb4:	f8c4 0148 	str.w	r0, [r4, #328]	; 0x148
  402eb8:	f04f 0e01 	mov.w	lr, #1
  402ebc:	f8c0 1188 	str.w	r1, [r0, #392]	; 0x188
  402ec0:	f8c0 118c 	str.w	r1, [r0, #396]	; 0x18c
  402ec4:	2e00      	cmp	r6, #0
  402ec6:	d0dc      	beq.n	402e82 <__register_exitproc+0x4a>
  402ec8:	e7cc      	b.n	402e64 <__register_exitproc+0x2c>
  402eca:	f8d3 118c 	ldr.w	r1, [r3, #396]	; 0x18c
  402ece:	430c      	orrs	r4, r1
  402ed0:	f8c3 418c 	str.w	r4, [r3, #396]	; 0x18c
  402ed4:	e7d5      	b.n	402e82 <__register_exitproc+0x4a>
  402ed6:	f504 73a6 	add.w	r3, r4, #332	; 0x14c
  402eda:	f8c4 3148 	str.w	r3, [r4, #328]	; 0x148
  402ede:	e7bb      	b.n	402e58 <__register_exitproc+0x20>
  402ee0:	6828      	ldr	r0, [r5, #0]
  402ee2:	f7ff ffa7 	bl	402e34 <__retarget_lock_release_recursive>
  402ee6:	f04f 30ff 	mov.w	r0, #4294967295
  402eea:	e8bd 83f8 	ldmia.w	sp!, {r3, r4, r5, r6, r7, r8, r9, pc}
  402eee:	bf00      	nop
  402ef0:	20000570 	.word	0x20000570
  402ef4:	00403074 	.word	0x00403074
  402ef8:	00000000 	.word	0x00000000
  402efc:	732f2e2e 	.word	0x732f2e2e
  402f00:	462f6372 	.word	0x462f6372
  402f04:	52656572 	.word	0x52656572
  402f08:	2f534f54 	.word	0x2f534f54
  402f0c:	74726f70 	.word	0x74726f70
  402f10:	656c6261 	.word	0x656c6261
  402f14:	4343472f 	.word	0x4343472f
  402f18:	4d52412f 	.word	0x4d52412f
  402f1c:	344d435f 	.word	0x344d435f
  402f20:	6f702f46 	.word	0x6f702f46
  402f24:	632e7472 	.word	0x632e7472
  402f28:	00000000 	.word	0x00000000
  402f2c:	732f2e2e 	.word	0x732f2e2e
  402f30:	462f6372 	.word	0x462f6372
  402f34:	52656572 	.word	0x52656572
  402f38:	2f534f54 	.word	0x2f534f54
  402f3c:	74726f70 	.word	0x74726f70
  402f40:	656c6261 	.word	0x656c6261
  402f44:	6d654d2f 	.word	0x6d654d2f
  402f48:	676e614d 	.word	0x676e614d
  402f4c:	6165682f 	.word	0x6165682f
  402f50:	2e355f70 	.word	0x2e355f70
  402f54:	00000063 	.word	0x00000063
  402f58:	732f2e2e 	.word	0x732f2e2e
  402f5c:	462f6372 	.word	0x462f6372
  402f60:	52656572 	.word	0x52656572
  402f64:	2f534f54 	.word	0x2f534f54
  402f68:	75657571 	.word	0x75657571
  402f6c:	00632e65 	.word	0x00632e65
  402f70:	732f2e2e 	.word	0x732f2e2e
  402f74:	462f6372 	.word	0x462f6372
  402f78:	52656572 	.word	0x52656572
  402f7c:	2f534f54 	.word	0x2f534f54
  402f80:	6b736174 	.word	0x6b736174
  402f84:	00632e73 	.word	0x00632e73
  402f88:	454c4449 	.word	0x454c4449
  402f8c:	00000000 	.word	0x00000000
  402f90:	51726d54 	.word	0x51726d54
  402f94:	00000000 	.word	0x00000000
  402f98:	732f2e2e 	.word	0x732f2e2e
  402f9c:	462f6372 	.word	0x462f6372
  402fa0:	52656572 	.word	0x52656572
  402fa4:	2f534f54 	.word	0x2f534f54
  402fa8:	656d6974 	.word	0x656d6974
  402fac:	632e7372 	.word	0x632e7372
  402fb0:	00000000 	.word	0x00000000
  402fb4:	20726d54 	.word	0x20726d54
  402fb8:	00637653 	.word	0x00637653
  402fbc:	73696854 	.word	0x73696854
  402fc0:	20736920 	.word	0x20736920
  402fc4:	3362614c 	.word	0x3362614c
  402fc8:	00000000 	.word	0x00000000
  402fcc:	3044454c 	.word	0x3044454c
  402fd0:	61654820 	.word	0x61654820
  402fd4:	42207472 	.word	0x42207472
  402fd8:	00746165 	.word	0x00746165
  402fdc:	6e69614d 	.word	0x6e69614d
  402fe0:	52415520 	.word	0x52415520
  402fe4:	61542054 	.word	0x61542054
  402fe8:	00006b73 	.word	0x00006b73
  402fec:	2044454c 	.word	0x2044454c
  402ff0:	61542031 	.word	0x61542031
  402ff4:	00006b73 	.word	0x00006b73
  402ff8:	2044454c 	.word	0x2044454c
  402ffc:	61542032 	.word	0x61542032
  403000:	00006b73 	.word	0x00006b73
  403004:	2044454c 	.word	0x2044454c
  403008:	61542033 	.word	0x61542033
  40300c:	00006b73 	.word	0x00006b73
  403010:	6e69614d 	.word	0x6e69614d
  403014:	6e6f4320 	.word	0x6e6f4320
  403018:	6c6f7274 	.word	0x6c6f7274
  40301c:	73615420 	.word	0x73615420
  403020:	6f66206b 	.word	0x6f66206b
  403024:	454c2072 	.word	0x454c2072
  403028:	00003144 	.word	0x00003144
  40302c:	6e69614d 	.word	0x6e69614d
  403030:	6e6f4320 	.word	0x6e6f4320
  403034:	6c6f7274 	.word	0x6c6f7274
  403038:	73615420 	.word	0x73615420
  40303c:	6f66206b 	.word	0x6f66206b
  403040:	454c2072 	.word	0x454c2072
  403044:	00003244 	.word	0x00003244
  403048:	6e69614d 	.word	0x6e69614d
  40304c:	6e6f4320 	.word	0x6e6f4320
  403050:	6c6f7274 	.word	0x6c6f7274
  403054:	73615420 	.word	0x73615420
  403058:	6f66206b 	.word	0x6f66206b
  40305c:	454c2072 	.word	0x454c2072
  403060:	00003344 	.word	0x00003344
  403064:	732f2e2e 	.word	0x732f2e2e
  403068:	6d2f6372 	.word	0x6d2f6372
  40306c:	2e6e6961 	.word	0x2e6e6961
  403070:	00000063 	.word	0x00000063

00403074 <_global_impure_ptr>:
  403074:	20000148                                H.. 

00403078 <_init>:
  403078:	b5f8      	push	{r3, r4, r5, r6, r7, lr}
  40307a:	bf00      	nop
  40307c:	bcf8      	pop	{r3, r4, r5, r6, r7}
  40307e:	bc08      	pop	{r3}
  403080:	469e      	mov	lr, r3
  403082:	4770      	bx	lr

00403084 <__init_array_start>:
  403084:	00402ddd 	.word	0x00402ddd

00403088 <__frame_dummy_init_array_entry>:
  403088:	0040011d                                ..@.

0040308c <_fini>:
  40308c:	b5f8      	push	{r3, r4, r5, r6, r7, lr}
  40308e:	bf00      	nop
  403090:	bcf8      	pop	{r3, r4, r5, r6, r7}
  403092:	bc08      	pop	{r3}
  403094:	469e      	mov	lr, r3
  403096:	4770      	bx	lr

00403098 <__fini_array_start>:
  403098:	004000f9 	.word	0x004000f9
