
Lab06.elf:     file format elf32-littlearm

Sections:
Idx Name          Size      VMA       LMA       File off  Algn
  0 .text         00003560  00400000  00400000  00010000  2**4
                  CONTENTS, ALLOC, LOAD, READONLY, CODE
  1 .relocate     0000044c  20000000  00403560  00020000  2**3
                  CONTENTS, ALLOC, LOAD, DATA
  2 .bss          000002d0  2000044c  004039ac  0002044c  2**2
                  ALLOC
  3 .stack        00003004  2000071c  00403c7c  0002044c  2**0
                  ALLOC
  4 .ARM.attributes 0000002e  00000000  00000000  0002044c  2**0
                  CONTENTS, READONLY
  5 .comment      00000059  00000000  00000000  0002047a  2**0
                  CONTENTS, READONLY
  6 .debug_info   0001aa18  00000000  00000000  000204d3  2**0
                  CONTENTS, READONLY, DEBUGGING
  7 .debug_abbrev 000037a5  00000000  00000000  0003aeeb  2**0
                  CONTENTS, READONLY, DEBUGGING
  8 .debug_loc    0000874c  00000000  00000000  0003e690  2**0
                  CONTENTS, READONLY, DEBUGGING
  9 .debug_aranges 00000b40  00000000  00000000  00046ddc  2**0
                  CONTENTS, READONLY, DEBUGGING
 10 .debug_ranges 00000c60  00000000  00000000  0004791c  2**0
                  CONTENTS, READONLY, DEBUGGING
 11 .debug_macro  00017534  00000000  00000000  0004857c  2**0
                  CONTENTS, READONLY, DEBUGGING
 12 .debug_line   0000cd00  00000000  00000000  0005fab0  2**0
                  CONTENTS, READONLY, DEBUGGING
 13 .debug_str    0006ab3e  00000000  00000000  0006c7b0  2**0
                  CONTENTS, READONLY, DEBUGGING
 14 .debug_frame  00001e24  00000000  00000000  000d72f0  2**2
                  CONTENTS, READONLY, DEBUGGING

Disassembly of section .text:

00400000 <exception_table>:
  400000:	20 37 00 20 45 2c 40 00 41 2c 40 00 41 2c 40 00      7. E,@.A,@.A,@.
  400010:	41 2c 40 00 41 2c 40 00 41 2c 40 00 00 00 00 00     A,@.A,@.A,@.....
	...
  40002c:	a1 06 40 00 41 2c 40 00 00 00 00 00 41 07 40 00     ..@.A,@.....A.@.
  40003c:	a5 07 40 00 41 2c 40 00 41 2c 40 00 41 2c 40 00     ..@.A,@.A,@.A,@.
  40004c:	41 2c 40 00 41 2c 40 00 41 2c 40 00 41 2c 40 00     A,@.A,@.A,@.A,@.
  40005c:	e1 29 40 00 41 2c 40 00 4d 04 40 00 61 04 40 00     .)@.A,@.M.@.a.@.
  40006c:	75 04 40 00 89 04 40 00 9d 04 40 00 41 2c 40 00     u.@...@...@.A,@.
  40007c:	41 2c 40 00 41 2c 40 00 41 2c 40 00 41 2c 40 00     A,@.A,@.A,@.A,@.
  40008c:	41 2c 40 00 41 2c 40 00 41 2c 40 00 41 2c 40 00     A,@.A,@.A,@.A,@.
  40009c:	41 2c 40 00 41 2c 40 00 41 2c 40 00 41 2c 40 00     A,@.A,@.A,@.A,@.
  4000ac:	41 2c 40 00 41 2c 40 00 41 2c 40 00 41 2c 40 00     A,@.A,@.A,@.A,@.
  4000bc:	41 2c 40 00 41 2c 40 00 41 2c 40 00 41 2c 40 00     A,@.A,@.A,@.A,@.
  4000cc:	41 2c 40 00 41 2c 40 00 41 2c 40 00 41 2c 40 00     A,@.A,@.A,@.A,@.
  4000dc:	41 2c 40 00 41 2c 40 00 41 2c 40 00 41 2c 40 00     A,@.A,@.A,@.A,@.
  4000ec:	41 2c 40 00 41 2c 40 00 41 2c 40 00                 A,@.A,@.A,@.

004000f8 <__do_global_dtors_aux>:
  4000f8:	b510      	push	{r4, lr}
  4000fa:	4c05      	ldr	r4, [pc, #20]	; (400110 <__do_global_dtors_aux+0x18>)
  4000fc:	7823      	ldrb	r3, [r4, #0]
  4000fe:	b933      	cbnz	r3, 40010e <__do_global_dtors_aux+0x16>
  400100:	4b04      	ldr	r3, [pc, #16]	; (400114 <__do_global_dtors_aux+0x1c>)
  400102:	b113      	cbz	r3, 40010a <__do_global_dtors_aux+0x12>
  400104:	4804      	ldr	r0, [pc, #16]	; (400118 <__do_global_dtors_aux+0x20>)
  400106:	f3af 8000 	nop.w
  40010a:	2301      	movs	r3, #1
  40010c:	7023      	strb	r3, [r4, #0]
  40010e:	bd10      	pop	{r4, pc}
  400110:	2000044c 	.word	0x2000044c
  400114:	00000000 	.word	0x00000000
  400118:	00403560 	.word	0x00403560

0040011c <frame_dummy>:
  40011c:	4b0c      	ldr	r3, [pc, #48]	; (400150 <frame_dummy+0x34>)
  40011e:	b143      	cbz	r3, 400132 <frame_dummy+0x16>
  400120:	480c      	ldr	r0, [pc, #48]	; (400154 <frame_dummy+0x38>)
  400122:	490d      	ldr	r1, [pc, #52]	; (400158 <frame_dummy+0x3c>)
  400124:	b510      	push	{r4, lr}
  400126:	f3af 8000 	nop.w
  40012a:	480c      	ldr	r0, [pc, #48]	; (40015c <frame_dummy+0x40>)
  40012c:	6803      	ldr	r3, [r0, #0]
  40012e:	b923      	cbnz	r3, 40013a <frame_dummy+0x1e>
  400130:	bd10      	pop	{r4, pc}
  400132:	480a      	ldr	r0, [pc, #40]	; (40015c <frame_dummy+0x40>)
  400134:	6803      	ldr	r3, [r0, #0]
  400136:	b933      	cbnz	r3, 400146 <frame_dummy+0x2a>
  400138:	4770      	bx	lr
  40013a:	4b09      	ldr	r3, [pc, #36]	; (400160 <frame_dummy+0x44>)
  40013c:	2b00      	cmp	r3, #0
  40013e:	d0f7      	beq.n	400130 <frame_dummy+0x14>
  400140:	e8bd 4010 	ldmia.w	sp!, {r4, lr}
  400144:	4718      	bx	r3
  400146:	4b06      	ldr	r3, [pc, #24]	; (400160 <frame_dummy+0x44>)
  400148:	2b00      	cmp	r3, #0
  40014a:	d0f5      	beq.n	400138 <frame_dummy+0x1c>
  40014c:	4718      	bx	r3
  40014e:	bf00      	nop
  400150:	00000000 	.word	0x00000000
  400154:	00403560 	.word	0x00403560
  400158:	20000450 	.word	0x20000450
  40015c:	00403560 	.word	0x00403560
  400160:	00000000 	.word	0x00000000

00400164 <pio_pull_up>:
 */
void pio_pull_up(Pio *p_pio, const uint32_t ul_mask,
		const uint32_t ul_pull_up_enable)
{
	/* Enable the pull-up(s) if necessary */
	if (ul_pull_up_enable) {
  400164:	b90a      	cbnz	r2, 40016a <pio_pull_up+0x6>
		p_pio->PIO_PUER = ul_mask;
	} else {
		p_pio->PIO_PUDR = ul_mask;
  400166:	6601      	str	r1, [r0, #96]	; 0x60
  400168:	4770      	bx	lr
		p_pio->PIO_PUER = ul_mask;
  40016a:	6641      	str	r1, [r0, #100]	; 0x64
  40016c:	4770      	bx	lr

0040016e <pio_set_debounce_filter>:
void pio_set_debounce_filter(Pio *p_pio, const uint32_t ul_mask,
		const uint32_t ul_cut_off)
{
#if (SAM3S || SAM3N || SAM4S || SAM4E || SAM4N || SAM4C || SAMG || SAM4CP || SAM4CM || SAMV71 || SAMV70 || SAME70 || SAMS70)
	/* Set Debouncing, 0 bit field no effect */
	p_pio->PIO_IFSCER = ul_mask;
  40016e:	f8c0 1084 	str.w	r1, [r0, #132]	; 0x84
	/*
	 * The debouncing filter can filter a pulse of less than 1/2 Period of a
	 * programmable Divided Slow Clock:
	 * Tdiv_slclk = ((DIV+1)*2).Tslow_clock
	 */
	p_pio->PIO_SCDR = PIO_SCDR_DIV((FREQ_SLOW_CLOCK_EXT /
  400172:	0053      	lsls	r3, r2, #1
  400174:	f44f 4200 	mov.w	r2, #32768	; 0x8000
  400178:	fbb2 f2f3 	udiv	r2, r2, r3
  40017c:	3a01      	subs	r2, #1
  40017e:	f3c2 020d 	ubfx	r2, r2, #0, #14
  400182:	f8c0 208c 	str.w	r2, [r0, #140]	; 0x8c
  400186:	4770      	bx	lr

00400188 <pio_set_peripheral>:
		const uint32_t ul_mask)
{
	uint32_t ul_sr;

	/* Disable interrupts on the pin(s) */
	p_pio->PIO_IDR = ul_mask;
  400188:	6442      	str	r2, [r0, #68]	; 0x44

#if (SAM3S || SAM3N || SAM4S || SAM4E || SAM4N || SAM4C || SAMG || SAM4CP || SAM4CM || SAMV71 || SAMV70 || SAME70 || SAMS70)
	switch (ul_type) {
  40018a:	f1b1 5fc0 	cmp.w	r1, #402653184	; 0x18000000
  40018e:	d039      	beq.n	400204 <pio_set_peripheral+0x7c>
  400190:	d813      	bhi.n	4001ba <pio_set_peripheral+0x32>
  400192:	f1b1 6f00 	cmp.w	r1, #134217728	; 0x8000000
  400196:	d025      	beq.n	4001e4 <pio_set_peripheral+0x5c>
  400198:	f1b1 5f80 	cmp.w	r1, #268435456	; 0x10000000
  40019c:	d10a      	bne.n	4001b4 <pio_set_peripheral+0x2c>

		ul_sr = p_pio->PIO_ABCDSR[1];
		p_pio->PIO_ABCDSR[1] &= (~ul_mask & ul_sr);
		break;
	case PIO_PERIPH_B:
		ul_sr = p_pio->PIO_ABCDSR[0];
  40019e:	6f03      	ldr	r3, [r0, #112]	; 0x70
		p_pio->PIO_ABCDSR[0] = (ul_mask | ul_sr);
  4001a0:	4313      	orrs	r3, r2
  4001a2:	6703      	str	r3, [r0, #112]	; 0x70

		ul_sr = p_pio->PIO_ABCDSR[1];
  4001a4:	6f41      	ldr	r1, [r0, #116]	; 0x74
		p_pio->PIO_ABCDSR[1] &= (~ul_mask & ul_sr);
  4001a6:	6f43      	ldr	r3, [r0, #116]	; 0x74
  4001a8:	ea21 0102 	bic.w	r1, r1, r2
  4001ac:	400b      	ands	r3, r1
  4001ae:	6743      	str	r3, [r0, #116]	; 0x74
#else
#error "Unsupported device"
#endif

	/* Remove the pins from under the control of PIO */
	p_pio->PIO_PDR = ul_mask;
  4001b0:	6042      	str	r2, [r0, #4]
  4001b2:	4770      	bx	lr
	switch (ul_type) {
  4001b4:	2900      	cmp	r1, #0
  4001b6:	d1fb      	bne.n	4001b0 <pio_set_peripheral+0x28>
  4001b8:	4770      	bx	lr
  4001ba:	f1b1 5f20 	cmp.w	r1, #671088640	; 0x28000000
  4001be:	d020      	beq.n	400202 <pio_set_peripheral+0x7a>
  4001c0:	d809      	bhi.n	4001d6 <pio_set_peripheral+0x4e>
  4001c2:	f1b1 5f00 	cmp.w	r1, #536870912	; 0x20000000
  4001c6:	d1f3      	bne.n	4001b0 <pio_set_peripheral+0x28>
		ul_sr = p_pio->PIO_ABCDSR[0];
  4001c8:	6f03      	ldr	r3, [r0, #112]	; 0x70
		p_pio->PIO_ABCDSR[0] = (ul_mask | ul_sr);
  4001ca:	4313      	orrs	r3, r2
  4001cc:	6703      	str	r3, [r0, #112]	; 0x70
		ul_sr = p_pio->PIO_ABCDSR[1];
  4001ce:	6f43      	ldr	r3, [r0, #116]	; 0x74
		p_pio->PIO_ABCDSR[1] = (ul_mask | ul_sr);
  4001d0:	4313      	orrs	r3, r2
  4001d2:	6743      	str	r3, [r0, #116]	; 0x74
		break;
  4001d4:	e7ec      	b.n	4001b0 <pio_set_peripheral+0x28>
	switch (ul_type) {
  4001d6:	f1b1 5f40 	cmp.w	r1, #805306368	; 0x30000000
  4001da:	d012      	beq.n	400202 <pio_set_peripheral+0x7a>
  4001dc:	f1b1 5f60 	cmp.w	r1, #939524096	; 0x38000000
  4001e0:	d00f      	beq.n	400202 <pio_set_peripheral+0x7a>
  4001e2:	e7e5      	b.n	4001b0 <pio_set_peripheral+0x28>
{
  4001e4:	b410      	push	{r4}
		ul_sr = p_pio->PIO_ABCDSR[0];
  4001e6:	6f04      	ldr	r4, [r0, #112]	; 0x70
		p_pio->PIO_ABCDSR[0] &= (~ul_mask & ul_sr);
  4001e8:	6f01      	ldr	r1, [r0, #112]	; 0x70
  4001ea:	43d3      	mvns	r3, r2
  4001ec:	401c      	ands	r4, r3
  4001ee:	4021      	ands	r1, r4
  4001f0:	6701      	str	r1, [r0, #112]	; 0x70
		ul_sr = p_pio->PIO_ABCDSR[1];
  4001f2:	6f44      	ldr	r4, [r0, #116]	; 0x74
		p_pio->PIO_ABCDSR[1] &= (~ul_mask & ul_sr);
  4001f4:	6f41      	ldr	r1, [r0, #116]	; 0x74
  4001f6:	4023      	ands	r3, r4
  4001f8:	400b      	ands	r3, r1
  4001fa:	6743      	str	r3, [r0, #116]	; 0x74
	p_pio->PIO_PDR = ul_mask;
  4001fc:	6042      	str	r2, [r0, #4]
}
  4001fe:	f85d 4b04 	ldr.w	r4, [sp], #4
  400202:	4770      	bx	lr
		ul_sr = p_pio->PIO_ABCDSR[0];
  400204:	6f01      	ldr	r1, [r0, #112]	; 0x70
		p_pio->PIO_ABCDSR[0] &= (~ul_mask & ul_sr);
  400206:	6f03      	ldr	r3, [r0, #112]	; 0x70
  400208:	ea21 0102 	bic.w	r1, r1, r2
  40020c:	400b      	ands	r3, r1
  40020e:	6703      	str	r3, [r0, #112]	; 0x70
		ul_sr = p_pio->PIO_ABCDSR[1];
  400210:	6f43      	ldr	r3, [r0, #116]	; 0x74
		p_pio->PIO_ABCDSR[1] = (ul_mask | ul_sr);
  400212:	4313      	orrs	r3, r2
  400214:	6743      	str	r3, [r0, #116]	; 0x74
		break;
  400216:	e7cb      	b.n	4001b0 <pio_set_peripheral+0x28>

00400218 <pio_configure_interrupt>:
 */
void pio_configure_interrupt(Pio *p_pio, const uint32_t ul_mask,
		const uint32_t ul_attr)
{
	/* Configure additional interrupt mode registers. */
	if (ul_attr & PIO_IT_AIME) {
  400218:	f012 0f10 	tst.w	r2, #16
  40021c:	d012      	beq.n	400244 <pio_configure_interrupt+0x2c>
		/* Enable additional interrupt mode. */
		p_pio->PIO_AIMER = ul_mask;
  40021e:	f8c0 10b0 	str.w	r1, [r0, #176]	; 0xb0

		/* If bit field of the selected pin is 1, set as
		   Rising Edge/High level detection event. */
		if (ul_attr & PIO_IT_RE_OR_HL) {
  400222:	f012 0f20 	tst.w	r2, #32
  400226:	d007      	beq.n	400238 <pio_configure_interrupt+0x20>
			/* Rising Edge or High Level */
			p_pio->PIO_REHLSR = ul_mask;
  400228:	f8c0 10d4 	str.w	r1, [r0, #212]	; 0xd4
			p_pio->PIO_FELLSR = ul_mask;
		}

		/* If bit field of the selected pin is 1, set as
		   edge detection source. */
		if (ul_attr & PIO_IT_EDGE) {
  40022c:	f012 0f40 	tst.w	r2, #64	; 0x40
  400230:	d005      	beq.n	40023e <pio_configure_interrupt+0x26>
			/* Edge select */
			p_pio->PIO_ESR = ul_mask;
  400232:	f8c0 10c0 	str.w	r1, [r0, #192]	; 0xc0
  400236:	4770      	bx	lr
			p_pio->PIO_FELLSR = ul_mask;
  400238:	f8c0 10d0 	str.w	r1, [r0, #208]	; 0xd0
  40023c:	e7f6      	b.n	40022c <pio_configure_interrupt+0x14>
		} else {
			/* Level select */
			p_pio->PIO_LSR = ul_mask;
  40023e:	f8c0 10c4 	str.w	r1, [r0, #196]	; 0xc4
  400242:	4770      	bx	lr
		}
	} else {
		/* Disable additional interrupt mode. */
		p_pio->PIO_AIMDR = ul_mask;
  400244:	f8c0 10b4 	str.w	r1, [r0, #180]	; 0xb4
  400248:	4770      	bx	lr

0040024a <pio_enable_interrupt>:
 * \param p_pio Pointer to a PIO instance.
 * \param ul_mask Interrupt sources bit map.
 */
void pio_enable_interrupt(Pio *p_pio, const uint32_t ul_mask)
{
	p_pio->PIO_IER = ul_mask;
  40024a:	6401      	str	r1, [r0, #64]	; 0x40
  40024c:	4770      	bx	lr

0040024e <pio_disable_interrupt>:
 * \param p_pio Pointer to a PIO instance.
 * \param ul_mask Interrupt sources bit map.
 */
void pio_disable_interrupt(Pio *p_pio, const uint32_t ul_mask)
{
	p_pio->PIO_IDR = ul_mask;
  40024e:	6441      	str	r1, [r0, #68]	; 0x44
  400250:	4770      	bx	lr
	...

00400254 <pio_set_input>:
{
  400254:	b570      	push	{r4, r5, r6, lr}
  400256:	4604      	mov	r4, r0
  400258:	460d      	mov	r5, r1
  40025a:	4616      	mov	r6, r2
	pio_disable_interrupt(p_pio, ul_mask);
  40025c:	4b0d      	ldr	r3, [pc, #52]	; (400294 <pio_set_input+0x40>)
  40025e:	4798      	blx	r3
	pio_pull_up(p_pio, ul_mask, ul_attribute & PIO_PULLUP);
  400260:	f006 0201 	and.w	r2, r6, #1
  400264:	4629      	mov	r1, r5
  400266:	4620      	mov	r0, r4
  400268:	4b0b      	ldr	r3, [pc, #44]	; (400298 <pio_set_input+0x44>)
  40026a:	4798      	blx	r3
	if (ul_attribute & (PIO_DEGLITCH | PIO_DEBOUNCE)) {
  40026c:	f016 0f0a 	tst.w	r6, #10
  400270:	d009      	beq.n	400286 <pio_set_input+0x32>
		p_pio->PIO_IFER = ul_mask;
  400272:	6225      	str	r5, [r4, #32]
	if (ul_attribute & PIO_DEGLITCH) {
  400274:	f016 0f02 	tst.w	r6, #2
  400278:	d107      	bne.n	40028a <pio_set_input+0x36>
		if (ul_attribute & PIO_DEBOUNCE) {
  40027a:	f016 0f08 	tst.w	r6, #8
  40027e:	d006      	beq.n	40028e <pio_set_input+0x3a>
			p_pio->PIO_IFSCER = ul_mask;
  400280:	f8c4 5084 	str.w	r5, [r4, #132]	; 0x84
  400284:	e003      	b.n	40028e <pio_set_input+0x3a>
		p_pio->PIO_IFDR = ul_mask;
  400286:	6265      	str	r5, [r4, #36]	; 0x24
  400288:	e7f4      	b.n	400274 <pio_set_input+0x20>
		p_pio->PIO_IFSCDR = ul_mask;
  40028a:	f8c4 5080 	str.w	r5, [r4, #128]	; 0x80
	p_pio->PIO_ODR = ul_mask;
  40028e:	6165      	str	r5, [r4, #20]
	p_pio->PIO_PER = ul_mask;
  400290:	6025      	str	r5, [r4, #0]
  400292:	bd70      	pop	{r4, r5, r6, pc}
  400294:	0040024f 	.word	0x0040024f
  400298:	00400165 	.word	0x00400165

0040029c <pio_set_output>:
{
  40029c:	b5f8      	push	{r3, r4, r5, r6, r7, lr}
  40029e:	4604      	mov	r4, r0
  4002a0:	460d      	mov	r5, r1
  4002a2:	4616      	mov	r6, r2
  4002a4:	461f      	mov	r7, r3
	pio_disable_interrupt(p_pio, ul_mask);
  4002a6:	4b09      	ldr	r3, [pc, #36]	; (4002cc <pio_set_output+0x30>)
  4002a8:	4798      	blx	r3
	pio_pull_up(p_pio, ul_mask, ul_pull_up_enable);
  4002aa:	9a06      	ldr	r2, [sp, #24]
  4002ac:	4629      	mov	r1, r5
  4002ae:	4620      	mov	r0, r4
  4002b0:	4b07      	ldr	r3, [pc, #28]	; (4002d0 <pio_set_output+0x34>)
  4002b2:	4798      	blx	r3
	if (ul_multidrive_enable) {
  4002b4:	b12f      	cbz	r7, 4002c2 <pio_set_output+0x26>
		p_pio->PIO_MDER = ul_mask;
  4002b6:	6525      	str	r5, [r4, #80]	; 0x50
	if (ul_default_level) {
  4002b8:	b92e      	cbnz	r6, 4002c6 <pio_set_output+0x2a>
		p_pio->PIO_CODR = ul_mask;
  4002ba:	6365      	str	r5, [r4, #52]	; 0x34
	p_pio->PIO_OER = ul_mask;
  4002bc:	6125      	str	r5, [r4, #16]
	p_pio->PIO_PER = ul_mask;
  4002be:	6025      	str	r5, [r4, #0]
  4002c0:	bdf8      	pop	{r3, r4, r5, r6, r7, pc}
		p_pio->PIO_MDDR = ul_mask;
  4002c2:	6565      	str	r5, [r4, #84]	; 0x54
  4002c4:	e7f8      	b.n	4002b8 <pio_set_output+0x1c>
		p_pio->PIO_SODR = ul_mask;
  4002c6:	6325      	str	r5, [r4, #48]	; 0x30
  4002c8:	e7f8      	b.n	4002bc <pio_set_output+0x20>
  4002ca:	bf00      	nop
  4002cc:	0040024f 	.word	0x0040024f
  4002d0:	00400165 	.word	0x00400165

004002d4 <pio_configure>:
{
  4002d4:	b570      	push	{r4, r5, r6, lr}
  4002d6:	b082      	sub	sp, #8
  4002d8:	4604      	mov	r4, r0
  4002da:	4615      	mov	r5, r2
  4002dc:	461e      	mov	r6, r3
	switch (ul_type) {
  4002de:	f1b1 5f00 	cmp.w	r1, #536870912	; 0x20000000
  4002e2:	d014      	beq.n	40030e <pio_configure+0x3a>
  4002e4:	d90a      	bls.n	4002fc <pio_configure+0x28>
  4002e6:	f1b1 5f40 	cmp.w	r1, #805306368	; 0x30000000
  4002ea:	d023      	beq.n	400334 <pio_configure+0x60>
  4002ec:	f1b1 5f60 	cmp.w	r1, #939524096	; 0x38000000
  4002f0:	d020      	beq.n	400334 <pio_configure+0x60>
  4002f2:	f1b1 5f20 	cmp.w	r1, #671088640	; 0x28000000
  4002f6:	d017      	beq.n	400328 <pio_configure+0x54>
		return 0;
  4002f8:	2000      	movs	r0, #0
  4002fa:	e013      	b.n	400324 <pio_configure+0x50>
	switch (ul_type) {
  4002fc:	f1b1 5f80 	cmp.w	r1, #268435456	; 0x10000000
  400300:	d005      	beq.n	40030e <pio_configure+0x3a>
  400302:	f1b1 5fc0 	cmp.w	r1, #402653184	; 0x18000000
  400306:	d002      	beq.n	40030e <pio_configure+0x3a>
  400308:	f1b1 6f00 	cmp.w	r1, #134217728	; 0x8000000
  40030c:	d1f4      	bne.n	4002f8 <pio_configure+0x24>
		pio_set_peripheral(p_pio, ul_type, ul_mask);
  40030e:	462a      	mov	r2, r5
  400310:	4620      	mov	r0, r4
  400312:	4b10      	ldr	r3, [pc, #64]	; (400354 <pio_configure+0x80>)
  400314:	4798      	blx	r3
		pio_pull_up(p_pio, ul_mask, (ul_attribute & PIO_PULLUP));
  400316:	f006 0201 	and.w	r2, r6, #1
  40031a:	4629      	mov	r1, r5
  40031c:	4620      	mov	r0, r4
  40031e:	4b0e      	ldr	r3, [pc, #56]	; (400358 <pio_configure+0x84>)
  400320:	4798      	blx	r3
	return 1;
  400322:	2001      	movs	r0, #1
}
  400324:	b002      	add	sp, #8
  400326:	bd70      	pop	{r4, r5, r6, pc}
		pio_set_input(p_pio, ul_mask, ul_attribute);
  400328:	461a      	mov	r2, r3
  40032a:	4629      	mov	r1, r5
  40032c:	4b0b      	ldr	r3, [pc, #44]	; (40035c <pio_configure+0x88>)
  40032e:	4798      	blx	r3
	return 1;
  400330:	2001      	movs	r0, #1
		break;
  400332:	e7f7      	b.n	400324 <pio_configure+0x50>
				(ul_attribute & PIO_PULLUP) ? 1 : 0);
  400334:	f006 0301 	and.w	r3, r6, #1
		pio_set_output(p_pio, ul_mask, (ul_type == PIO_OUTPUT_1),
  400338:	9300      	str	r3, [sp, #0]
  40033a:	f3c6 0380 	ubfx	r3, r6, #2, #1
  40033e:	f1b1 5f60 	cmp.w	r1, #939524096	; 0x38000000
  400342:	bf14      	ite	ne
  400344:	2200      	movne	r2, #0
  400346:	2201      	moveq	r2, #1
  400348:	4629      	mov	r1, r5
  40034a:	4620      	mov	r0, r4
  40034c:	4c04      	ldr	r4, [pc, #16]	; (400360 <pio_configure+0x8c>)
  40034e:	47a0      	blx	r4
	return 1;
  400350:	2001      	movs	r0, #1
		break;
  400352:	e7e7      	b.n	400324 <pio_configure+0x50>
  400354:	00400189 	.word	0x00400189
  400358:	00400165 	.word	0x00400165
  40035c:	00400255 	.word	0x00400255
  400360:	0040029d 	.word	0x0040029d

00400364 <pio_get_interrupt_status>:
 *
 * \return The interrupt status value.
 */
uint32_t pio_get_interrupt_status(const Pio *p_pio)
{
	return p_pio->PIO_ISR;
  400364:	6cc0      	ldr	r0, [r0, #76]	; 0x4c
}
  400366:	4770      	bx	lr

00400368 <pio_get_interrupt_mask>:
 *
 * \return The interrupt mask value.
 */
uint32_t pio_get_interrupt_mask(const Pio *p_pio)
{
	return p_pio->PIO_IMR;
  400368:	6c80      	ldr	r0, [r0, #72]	; 0x48
}
  40036a:	4770      	bx	lr

0040036c <pio_handler_process>:
 *
 * \param p_pio PIO controller base address.
 * \param ul_id PIO controller ID.
 */
void pio_handler_process(Pio *p_pio, uint32_t ul_id)
{
  40036c:	e92d 41f0 	stmdb	sp!, {r4, r5, r6, r7, r8, lr}
  400370:	4607      	mov	r7, r0
  400372:	460e      	mov	r6, r1
	uint32_t status;
	uint32_t i;

	/* Read PIO controller status */
	status = pio_get_interrupt_status(p_pio);
  400374:	4b16      	ldr	r3, [pc, #88]	; (4003d0 <pio_handler_process+0x64>)
  400376:	4798      	blx	r3
  400378:	4605      	mov	r5, r0
	status &= pio_get_interrupt_mask(p_pio);
  40037a:	4638      	mov	r0, r7
  40037c:	4b15      	ldr	r3, [pc, #84]	; (4003d4 <pio_handler_process+0x68>)
  40037e:	4798      	blx	r3

	/* Check pending events */
	if (status != 0) {
  400380:	4005      	ands	r5, r0
  400382:	d122      	bne.n	4003ca <pio_handler_process+0x5e>
		}
	}

	/* Check capture events */
#if (SAM3S || SAM4S || SAM4E)
	if (pio_capture_enable_flag) {
  400384:	4b14      	ldr	r3, [pc, #80]	; (4003d8 <pio_handler_process+0x6c>)
  400386:	681b      	ldr	r3, [r3, #0]
  400388:	b123      	cbz	r3, 400394 <pio_handler_process+0x28>
		if (pio_capture_handler) {
  40038a:	4b14      	ldr	r3, [pc, #80]	; (4003dc <pio_handler_process+0x70>)
  40038c:	681b      	ldr	r3, [r3, #0]
  40038e:	b10b      	cbz	r3, 400394 <pio_handler_process+0x28>
			pio_capture_handler(p_pio);
  400390:	4638      	mov	r0, r7
  400392:	4798      	blx	r3
  400394:	e8bd 81f0 	ldmia.w	sp!, {r4, r5, r6, r7, r8, pc}
			i++;
  400398:	3401      	adds	r4, #1
			if (i >= MAX_INTERRUPT_SOURCES) {
  40039a:	2c06      	cmp	r4, #6
  40039c:	d8f2      	bhi.n	400384 <pio_handler_process+0x18>
		while (status != 0) {
  40039e:	2d00      	cmp	r5, #0
  4003a0:	d0f0      	beq.n	400384 <pio_handler_process+0x18>
			if (gs_interrupt_sources[i].id == ul_id) {
  4003a2:	0123      	lsls	r3, r4, #4
  4003a4:	4a0e      	ldr	r2, [pc, #56]	; (4003e0 <pio_handler_process+0x74>)
  4003a6:	58d0      	ldr	r0, [r2, r3]
  4003a8:	42b0      	cmp	r0, r6
  4003aa:	d1f5      	bne.n	400398 <pio_handler_process+0x2c>
				if ((status & gs_interrupt_sources[i].mask) != 0) {
  4003ac:	eb02 1304 	add.w	r3, r2, r4, lsl #4
  4003b0:	6859      	ldr	r1, [r3, #4]
  4003b2:	420d      	tst	r5, r1
  4003b4:	d0f0      	beq.n	400398 <pio_handler_process+0x2c>
					gs_interrupt_sources[i].handler(gs_interrupt_sources[i].id,
  4003b6:	eb02 1804 	add.w	r8, r2, r4, lsl #4
  4003ba:	f8d8 300c 	ldr.w	r3, [r8, #12]
  4003be:	4798      	blx	r3
					status &= ~(gs_interrupt_sources[i].mask);
  4003c0:	f8d8 3004 	ldr.w	r3, [r8, #4]
  4003c4:	ea25 0503 	bic.w	r5, r5, r3
  4003c8:	e7e6      	b.n	400398 <pio_handler_process+0x2c>
  4003ca:	2400      	movs	r4, #0
  4003cc:	e7e7      	b.n	40039e <pio_handler_process+0x32>
  4003ce:	bf00      	nop
  4003d0:	00400365 	.word	0x00400365
  4003d4:	00400369 	.word	0x00400369
  4003d8:	20000698 	.word	0x20000698
  4003dc:	200004dc 	.word	0x200004dc
  4003e0:	20000468 	.word	0x20000468

004003e4 <pio_handler_set>:
 *
 * \return 0 if successful, 1 if the maximum number of sources has been defined.
 */
uint32_t pio_handler_set(Pio *p_pio, uint32_t ul_id, uint32_t ul_mask,
		uint32_t ul_attr, void (*p_handler) (uint32_t, uint32_t))
{
  4003e4:	b5f8      	push	{r3, r4, r5, r6, r7, lr}
    uint8_t i;
	struct s_interrupt_source *pSource;

	if (gs_ul_nb_sources >= MAX_INTERRUPT_SOURCES)
  4003e6:	4c16      	ldr	r4, [pc, #88]	; (400440 <pio_handler_set+0x5c>)
  4003e8:	6827      	ldr	r7, [r4, #0]
  4003ea:	2f06      	cmp	r7, #6
  4003ec:	d826      	bhi.n	40043c <pio_handler_set+0x58>
  4003ee:	2400      	movs	r4, #0
  4003f0:	e001      	b.n	4003f6 <pio_handler_set+0x12>
		return 1;

    /* Check interrupt for this pin, if already defined, redefine it. */
	for (i = 0; i <= gs_ul_nb_sources; i++) {
  4003f2:	3401      	adds	r4, #1
  4003f4:	b2e4      	uxtb	r4, r4
  4003f6:	46a4      	mov	ip, r4
  4003f8:	42a7      	cmp	r7, r4
  4003fa:	d30a      	bcc.n	400412 <pio_handler_set+0x2e>
		pSource = &(gs_interrupt_sources[i]);
  4003fc:	4e11      	ldr	r6, [pc, #68]	; (400444 <pio_handler_set+0x60>)
  4003fe:	0125      	lsls	r5, r4, #4
  400400:	eb06 0e05 	add.w	lr, r6, r5
		if (pSource->id == ul_id && pSource->mask == ul_mask) {
  400404:	5975      	ldr	r5, [r6, r5]
  400406:	428d      	cmp	r5, r1
  400408:	d1f3      	bne.n	4003f2 <pio_handler_set+0xe>
  40040a:	f8de 5004 	ldr.w	r5, [lr, #4]
  40040e:	4295      	cmp	r5, r2
  400410:	d1ef      	bne.n	4003f2 <pio_handler_set+0xe>
			break;
		}
	}

	/* Define new source */
	pSource->id = ul_id;
  400412:	f8ce 1000 	str.w	r1, [lr]
	pSource->mask = ul_mask;
  400416:	f8ce 2004 	str.w	r2, [lr, #4]
	pSource->attr = ul_attr;
  40041a:	f8ce 3008 	str.w	r3, [lr, #8]
	pSource->handler = p_handler;
  40041e:	9906      	ldr	r1, [sp, #24]
  400420:	f8ce 100c 	str.w	r1, [lr, #12]
	if (i == gs_ul_nb_sources + 1) {
  400424:	3701      	adds	r7, #1
  400426:	45bc      	cmp	ip, r7
  400428:	d005      	beq.n	400436 <pio_handler_set+0x52>
  40042a:	4611      	mov	r1, r2
		gs_ul_nb_sources++;
	}

	/* Configure interrupt mode */
	pio_configure_interrupt(p_pio, ul_mask, ul_attr);
  40042c:	461a      	mov	r2, r3
  40042e:	4b06      	ldr	r3, [pc, #24]	; (400448 <pio_handler_set+0x64>)
  400430:	4798      	blx	r3

	return 0;
  400432:	2000      	movs	r0, #0
  400434:	bdf8      	pop	{r3, r4, r5, r6, r7, pc}
		gs_ul_nb_sources++;
  400436:	4902      	ldr	r1, [pc, #8]	; (400440 <pio_handler_set+0x5c>)
  400438:	600f      	str	r7, [r1, #0]
  40043a:	e7f6      	b.n	40042a <pio_handler_set+0x46>
		return 1;
  40043c:	2001      	movs	r0, #1
}
  40043e:	bdf8      	pop	{r3, r4, r5, r6, r7, pc}
  400440:	200004d8 	.word	0x200004d8
  400444:	20000468 	.word	0x20000468
  400448:	00400219 	.word	0x00400219

0040044c <PIOA_Handler>:
/**
 * \brief Parallel IO Controller A interrupt handler.
 * Redefined PIOA interrupt handler for NVIC interrupt table.
 */
void PIOA_Handler(void)
{
  40044c:	b508      	push	{r3, lr}
	pio_handler_process(PIOA, ID_PIOA);
  40044e:	2109      	movs	r1, #9
  400450:	4801      	ldr	r0, [pc, #4]	; (400458 <PIOA_Handler+0xc>)
  400452:	4b02      	ldr	r3, [pc, #8]	; (40045c <PIOA_Handler+0x10>)
  400454:	4798      	blx	r3
  400456:	bd08      	pop	{r3, pc}
  400458:	400e0e00 	.word	0x400e0e00
  40045c:	0040036d 	.word	0x0040036d

00400460 <PIOB_Handler>:
/**
 * \brief Parallel IO Controller B interrupt handler
 * Redefined PIOB interrupt handler for NVIC interrupt table.
 */
void PIOB_Handler(void)
{
  400460:	b508      	push	{r3, lr}
    pio_handler_process(PIOB, ID_PIOB);
  400462:	210a      	movs	r1, #10
  400464:	4801      	ldr	r0, [pc, #4]	; (40046c <PIOB_Handler+0xc>)
  400466:	4b02      	ldr	r3, [pc, #8]	; (400470 <PIOB_Handler+0x10>)
  400468:	4798      	blx	r3
  40046a:	bd08      	pop	{r3, pc}
  40046c:	400e1000 	.word	0x400e1000
  400470:	0040036d 	.word	0x0040036d

00400474 <PIOC_Handler>:
/**
 * \brief Parallel IO Controller C interrupt handler.
 * Redefined PIOC interrupt handler for NVIC interrupt table.
 */
void PIOC_Handler(void)
{
  400474:	b508      	push	{r3, lr}
	pio_handler_process(PIOC, ID_PIOC);
  400476:	210b      	movs	r1, #11
  400478:	4801      	ldr	r0, [pc, #4]	; (400480 <PIOC_Handler+0xc>)
  40047a:	4b02      	ldr	r3, [pc, #8]	; (400484 <PIOC_Handler+0x10>)
  40047c:	4798      	blx	r3
  40047e:	bd08      	pop	{r3, pc}
  400480:	400e1200 	.word	0x400e1200
  400484:	0040036d 	.word	0x0040036d

00400488 <PIOD_Handler>:
/**
 * \brief Parallel IO Controller D interrupt handler.
 * Redefined PIOD interrupt handler for NVIC interrupt table.
 */
void PIOD_Handler(void)
{
  400488:	b508      	push	{r3, lr}
	pio_handler_process(PIOD, ID_PIOD);
  40048a:	210c      	movs	r1, #12
  40048c:	4801      	ldr	r0, [pc, #4]	; (400494 <PIOD_Handler+0xc>)
  40048e:	4b02      	ldr	r3, [pc, #8]	; (400498 <PIOD_Handler+0x10>)
  400490:	4798      	blx	r3
  400492:	bd08      	pop	{r3, pc}
  400494:	400e1400 	.word	0x400e1400
  400498:	0040036d 	.word	0x0040036d

0040049c <PIOE_Handler>:
/**
 * \brief Parallel IO Controller E interrupt handler.
 * Redefined PIOE interrupt handler for NVIC interrupt table.
 */
void PIOE_Handler(void)
{
  40049c:	b508      	push	{r3, lr}
	pio_handler_process(PIOE, ID_PIOE);
  40049e:	210d      	movs	r1, #13
  4004a0:	4801      	ldr	r0, [pc, #4]	; (4004a8 <PIOE_Handler+0xc>)
  4004a2:	4b02      	ldr	r3, [pc, #8]	; (4004ac <PIOE_Handler+0x10>)
  4004a4:	4798      	blx	r3
  4004a6:	bd08      	pop	{r3, pc}
  4004a8:	400e1600 	.word	0x400e1600
  4004ac:	0040036d 	.word	0x0040036d

004004b0 <pio_handler_set_priority>:
 * \param p_pio PIO controller base address.
 * \param ul_irqn NVIC line number.
 * \param ul_priority PIO controller interrupts priority.
 */
void pio_handler_set_priority(Pio *p_pio, IRQn_Type ul_irqn, uint32_t ul_priority)
{
  4004b0:	b5f8      	push	{r3, r4, r5, r6, r7, lr}
  4004b2:	4606      	mov	r6, r0
  4004b4:	460c      	mov	r4, r1
  4004b6:	4615      	mov	r5, r2
	uint32_t bitmask = 0;

	bitmask = pio_get_interrupt_mask(p_pio);
  4004b8:	4b22      	ldr	r3, [pc, #136]	; (400544 <pio_handler_set_priority+0x94>)
  4004ba:	4798      	blx	r3
  4004bc:	4607      	mov	r7, r0
	pio_disable_interrupt(p_pio, 0xFFFFFFFF);
  4004be:	f04f 31ff 	mov.w	r1, #4294967295
  4004c2:	4630      	mov	r0, r6
  4004c4:	4b20      	ldr	r3, [pc, #128]	; (400548 <pio_handler_set_priority+0x98>)
  4004c6:	4798      	blx	r3
	pio_get_interrupt_status(p_pio);
  4004c8:	4630      	mov	r0, r6
  4004ca:	4b20      	ldr	r3, [pc, #128]	; (40054c <pio_handler_set_priority+0x9c>)
  4004cc:	4798      	blx	r3
  \param [in]      IRQn  Device specific interrupt number.
  \note    IRQn must not be negative.
 */
__STATIC_INLINE void __NVIC_DisableIRQ(IRQn_Type IRQn)
{
  if ((int32_t)(IRQn) >= 0)
  4004ce:	2c00      	cmp	r4, #0
  4004d0:	db0c      	blt.n	4004ec <pio_handler_set_priority+0x3c>
  {
    NVIC->ICER[(((uint32_t)IRQn) >> 5UL)] = (uint32_t)(1UL << (((uint32_t)IRQn) & 0x1FUL));
  4004d2:	0963      	lsrs	r3, r4, #5
  4004d4:	f004 011f 	and.w	r1, r4, #31
  4004d8:	2201      	movs	r2, #1
  4004da:	408a      	lsls	r2, r1
  4004dc:	3320      	adds	r3, #32
  4004de:	491c      	ldr	r1, [pc, #112]	; (400550 <pio_handler_set_priority+0xa0>)
  4004e0:	f841 2023 	str.w	r2, [r1, r3, lsl #2]
  \details Acts as a special kind of Data Memory Barrier.
           It completes when all explicit memory accesses before this instruction complete.
 */
__STATIC_FORCEINLINE void __DSB(void)
{
  __ASM volatile ("dsb 0xF":::"memory");
  4004e4:	f3bf 8f4f 	dsb	sy
  __ASM volatile ("isb 0xF":::"memory");
  4004e8:	f3bf 8f6f 	isb	sy
  \param [in]      IRQn  Device specific interrupt number.
  \note    IRQn must not be negative.
 */
__STATIC_INLINE void __NVIC_ClearPendingIRQ(IRQn_Type IRQn)
{
  if ((int32_t)(IRQn) >= 0)
  4004ec:	2c00      	cmp	r4, #0
  4004ee:	db08      	blt.n	400502 <pio_handler_set_priority+0x52>
  {
    NVIC->ICPR[(((uint32_t)IRQn) >> 5UL)] = (uint32_t)(1UL << (((uint32_t)IRQn) & 0x1FUL));
  4004f0:	0963      	lsrs	r3, r4, #5
  4004f2:	f004 011f 	and.w	r1, r4, #31
  4004f6:	2201      	movs	r2, #1
  4004f8:	408a      	lsls	r2, r1
  4004fa:	3360      	adds	r3, #96	; 0x60
  4004fc:	4914      	ldr	r1, [pc, #80]	; (400550 <pio_handler_set_priority+0xa0>)
  4004fe:	f841 2023 	str.w	r2, [r1, r3, lsl #2]
  \param [in]  priority  Priority to set.
  \note    The priority cannot be set for every processor exception.
 */
__STATIC_INLINE void __NVIC_SetPriority(IRQn_Type IRQn, uint32_t priority)
{
  if ((int32_t)(IRQn) >= 0)
  400502:	2c00      	cmp	r4, #0
  400504:	db17      	blt.n	400536 <pio_handler_set_priority+0x86>
  {
    NVIC->IP[((uint32_t)IRQn)]               = (uint8_t)((priority << (8U - __NVIC_PRIO_BITS)) & (uint32_t)0xFFUL);
  400506:	012d      	lsls	r5, r5, #4
  400508:	b2ed      	uxtb	r5, r5
  40050a:	f104 4360 	add.w	r3, r4, #3758096384	; 0xe0000000
  40050e:	f503 4361 	add.w	r3, r3, #57600	; 0xe100
  400512:	f883 5300 	strb.w	r5, [r3, #768]	; 0x300
  if ((int32_t)(IRQn) >= 0)
  400516:	2c00      	cmp	r4, #0
  400518:	db08      	blt.n	40052c <pio_handler_set_priority+0x7c>
    NVIC->ISER[(((uint32_t)IRQn) >> 5UL)] = (uint32_t)(1UL << (((uint32_t)IRQn) & 0x1FUL));
  40051a:	0962      	lsrs	r2, r4, #5
  40051c:	f004 041f 	and.w	r4, r4, #31
  400520:	2301      	movs	r3, #1
  400522:	fa03 f404 	lsl.w	r4, r3, r4
  400526:	4b0a      	ldr	r3, [pc, #40]	; (400550 <pio_handler_set_priority+0xa0>)
  400528:	f843 4022 	str.w	r4, [r3, r2, lsl #2]
	NVIC_DisableIRQ(ul_irqn);
	NVIC_ClearPendingIRQ(ul_irqn);
	NVIC_SetPriority(ul_irqn, ul_priority);
	NVIC_EnableIRQ(ul_irqn);
	pio_enable_interrupt(p_pio, bitmask);
  40052c:	4639      	mov	r1, r7
  40052e:	4630      	mov	r0, r6
  400530:	4b08      	ldr	r3, [pc, #32]	; (400554 <pio_handler_set_priority+0xa4>)
  400532:	4798      	blx	r3
  400534:	bdf8      	pop	{r3, r4, r5, r6, r7, pc}
  }
  else
  {
    SCB->SHP[(((uint32_t)IRQn) & 0xFUL)-4UL] = (uint8_t)((priority << (8U - __NVIC_PRIO_BITS)) & (uint32_t)0xFFUL);
  400536:	f004 020f 	and.w	r2, r4, #15
  40053a:	012d      	lsls	r5, r5, #4
  40053c:	b2ed      	uxtb	r5, r5
  40053e:	4b06      	ldr	r3, [pc, #24]	; (400558 <pio_handler_set_priority+0xa8>)
  400540:	549d      	strb	r5, [r3, r2]
  400542:	e7e8      	b.n	400516 <pio_handler_set_priority+0x66>
  400544:	00400369 	.word	0x00400369
  400548:	0040024f 	.word	0x0040024f
  40054c:	00400365 	.word	0x00400365
  400550:	e000e100 	.word	0xe000e100
  400554:	0040024b 	.word	0x0040024b
  400558:	e000ed14 	.word	0xe000ed14

0040055c <vListInitialise>:
void vListInitialise( List_t * const pxList )
{
	/* The list structure contains a list item which is used to mark the
	end of the list.  To initialise the list the list end is inserted
	as the only list entry. */
	pxList->pxIndex = ( ListItem_t * ) &( pxList->xListEnd );			/*lint !e826 !e740 !e9087 The mini list structure is used as the list end to save RAM.  This is checked and valid. */
  40055c:	f100 0308 	add.w	r3, r0, #8
  400560:	6043      	str	r3, [r0, #4]

	/* The list end value is the highest possible value in the list to
	ensure it remains at the end of the list. */
	pxList->xListEnd.xItemValue = portMAX_DELAY;
  400562:	f04f 32ff 	mov.w	r2, #4294967295
  400566:	6082      	str	r2, [r0, #8]

	/* The list end next and previous pointers point to itself so we know
	when the list is empty. */
	pxList->xListEnd.pxNext = ( ListItem_t * ) &( pxList->xListEnd );	/*lint !e826 !e740 !e9087 The mini list structure is used as the list end to save RAM.  This is checked and valid. */
  400568:	60c3      	str	r3, [r0, #12]
	pxList->xListEnd.pxPrevious = ( ListItem_t * ) &( pxList->xListEnd );/*lint !e826 !e740 !e9087 The mini list structure is used as the list end to save RAM.  This is checked and valid. */
  40056a:	6103      	str	r3, [r0, #16]

	pxList->uxNumberOfItems = ( UBaseType_t ) 0U;
  40056c:	2300      	movs	r3, #0
  40056e:	6003      	str	r3, [r0, #0]
  400570:	4770      	bx	lr

00400572 <vListInitialiseItem>:
/*-----------------------------------------------------------*/

void vListInitialiseItem( ListItem_t * const pxItem )
{
	/* Make sure the list item is not recorded as being on a list. */
	pxItem->pxContainer = NULL;
  400572:	2300      	movs	r3, #0
  400574:	6103      	str	r3, [r0, #16]
  400576:	4770      	bx	lr

00400578 <vListInsertEnd>:
}
/*-----------------------------------------------------------*/

void vListInsertEnd( List_t * const pxList, ListItem_t * const pxNewListItem )
{
ListItem_t * const pxIndex = pxList->pxIndex;
  400578:	6843      	ldr	r3, [r0, #4]
	listTEST_LIST_ITEM_INTEGRITY( pxNewListItem );

	/* Insert a new list item into pxList, but rather than sort the list,
	makes the new list item the last item to be removed by a call to
	listGET_OWNER_OF_NEXT_ENTRY(). */
	pxNewListItem->pxNext = pxIndex;
  40057a:	604b      	str	r3, [r1, #4]
	pxNewListItem->pxPrevious = pxIndex->pxPrevious;
  40057c:	689a      	ldr	r2, [r3, #8]
  40057e:	608a      	str	r2, [r1, #8]

	/* Only used during decision coverage testing. */
	mtCOVERAGE_TEST_DELAY();

	pxIndex->pxPrevious->pxNext = pxNewListItem;
  400580:	689a      	ldr	r2, [r3, #8]
  400582:	6051      	str	r1, [r2, #4]
	pxIndex->pxPrevious = pxNewListItem;
  400584:	6099      	str	r1, [r3, #8]

	/* Remember which list the item is in. */
	pxNewListItem->pxContainer = pxList;
  400586:	6108      	str	r0, [r1, #16]

	( pxList->uxNumberOfItems )++;
  400588:	6803      	ldr	r3, [r0, #0]
  40058a:	3301      	adds	r3, #1
  40058c:	6003      	str	r3, [r0, #0]
  40058e:	4770      	bx	lr

00400590 <vListInsert>:
}
/*-----------------------------------------------------------*/

void vListInsert( List_t * const pxList, ListItem_t * const pxNewListItem )
{
  400590:	b430      	push	{r4, r5}
ListItem_t *pxIterator;
const TickType_t xValueOfInsertion = pxNewListItem->xItemValue;
  400592:	680d      	ldr	r5, [r1, #0]
	new list item should be placed after it.  This ensures that TCBs which are
	stored in ready lists (all of which have the same xItemValue value) get a
	share of the CPU.  However, if the xItemValue is the same as the back marker
	the iteration loop below will not end.  Therefore the value is checked
	first, and the algorithm slightly modified if necessary. */
	if( xValueOfInsertion == portMAX_DELAY )
  400594:	f1b5 3fff 	cmp.w	r5, #4294967295
  400598:	d002      	beq.n	4005a0 <vListInsert+0x10>
			4) Using a queue or semaphore before it has been initialised or
			   before the scheduler has been started (are interrupts firing
			   before vTaskStartScheduler() has been called?).
		**********************************************************************/

		for( pxIterator = ( ListItem_t * ) &( pxList->xListEnd ); pxIterator->pxNext->xItemValue <= xValueOfInsertion; pxIterator = pxIterator->pxNext ) /*lint !e826 !e740 !e9087 The mini list structure is used as the list end to save RAM.  This is checked and valid. *//*lint !e440 The iterator moves to a different value, not xValueOfInsertion. */
  40059a:	f100 0208 	add.w	r2, r0, #8
  40059e:	e002      	b.n	4005a6 <vListInsert+0x16>
		pxIterator = pxList->xListEnd.pxPrevious;
  4005a0:	6902      	ldr	r2, [r0, #16]
  4005a2:	e004      	b.n	4005ae <vListInsert+0x1e>
		for( pxIterator = ( ListItem_t * ) &( pxList->xListEnd ); pxIterator->pxNext->xItemValue <= xValueOfInsertion; pxIterator = pxIterator->pxNext ) /*lint !e826 !e740 !e9087 The mini list structure is used as the list end to save RAM.  This is checked and valid. *//*lint !e440 The iterator moves to a different value, not xValueOfInsertion. */
  4005a4:	461a      	mov	r2, r3
  4005a6:	6853      	ldr	r3, [r2, #4]
  4005a8:	681c      	ldr	r4, [r3, #0]
  4005aa:	42a5      	cmp	r5, r4
  4005ac:	d2fa      	bcs.n	4005a4 <vListInsert+0x14>
			/* There is nothing to do here, just iterating to the wanted
			insertion position. */
		}
	}

	pxNewListItem->pxNext = pxIterator->pxNext;
  4005ae:	6853      	ldr	r3, [r2, #4]
  4005b0:	604b      	str	r3, [r1, #4]
	pxNewListItem->pxNext->pxPrevious = pxNewListItem;
  4005b2:	6099      	str	r1, [r3, #8]
	pxNewListItem->pxPrevious = pxIterator;
  4005b4:	608a      	str	r2, [r1, #8]
	pxIterator->pxNext = pxNewListItem;
  4005b6:	6051      	str	r1, [r2, #4]

	/* Remember which list the item is in.  This allows fast removal of the
	item later. */
	pxNewListItem->pxContainer = pxList;
  4005b8:	6108      	str	r0, [r1, #16]

	( pxList->uxNumberOfItems )++;
  4005ba:	6803      	ldr	r3, [r0, #0]
  4005bc:	3301      	adds	r3, #1
  4005be:	6003      	str	r3, [r0, #0]
}
  4005c0:	bc30      	pop	{r4, r5}
  4005c2:	4770      	bx	lr

004005c4 <uxListRemove>:

UBaseType_t uxListRemove( ListItem_t * const pxItemToRemove )
{
/* The list item knows which list it is in.  Obtain the list from the list
item. */
List_t * const pxList = pxItemToRemove->pxContainer;
  4005c4:	6903      	ldr	r3, [r0, #16]

	pxItemToRemove->pxNext->pxPrevious = pxItemToRemove->pxPrevious;
  4005c6:	6842      	ldr	r2, [r0, #4]
  4005c8:	6881      	ldr	r1, [r0, #8]
  4005ca:	6091      	str	r1, [r2, #8]
	pxItemToRemove->pxPrevious->pxNext = pxItemToRemove->pxNext;
  4005cc:	6882      	ldr	r2, [r0, #8]
  4005ce:	6841      	ldr	r1, [r0, #4]
  4005d0:	6051      	str	r1, [r2, #4]

	/* Only used during decision coverage testing. */
	mtCOVERAGE_TEST_DELAY();

	/* Make sure the index is left pointing to a valid item. */
	if( pxList->pxIndex == pxItemToRemove )
  4005d2:	685a      	ldr	r2, [r3, #4]
  4005d4:	4290      	cmp	r0, r2
  4005d6:	d006      	beq.n	4005e6 <uxListRemove+0x22>
	else
	{
		mtCOVERAGE_TEST_MARKER();
	}

	pxItemToRemove->pxContainer = NULL;
  4005d8:	2200      	movs	r2, #0
  4005da:	6102      	str	r2, [r0, #16]
	( pxList->uxNumberOfItems )--;
  4005dc:	681a      	ldr	r2, [r3, #0]
  4005de:	3a01      	subs	r2, #1
  4005e0:	601a      	str	r2, [r3, #0]

	return pxList->uxNumberOfItems;
  4005e2:	6818      	ldr	r0, [r3, #0]
}
  4005e4:	4770      	bx	lr
		pxList->pxIndex = pxItemToRemove->pxPrevious;
  4005e6:	6882      	ldr	r2, [r0, #8]
  4005e8:	605a      	str	r2, [r3, #4]
  4005ea:	e7f5      	b.n	4005d8 <uxListRemove+0x14>

004005ec <prvPortStartFirstTask>:
{
	/* Start the first task.  This also clears the bit that indicates the FPU is
	in use in case the FPU was used before the scheduler was started - which
	would otherwise result in the unnecessary leaving of space in the SVC stack
	for lazy saving of FPU registers. */
	__asm volatile(
  4005ec:	4808      	ldr	r0, [pc, #32]	; (400610 <prvPortStartFirstTask+0x24>)
  4005ee:	6800      	ldr	r0, [r0, #0]
  4005f0:	6800      	ldr	r0, [r0, #0]
  4005f2:	f380 8808 	msr	MSP, r0
  4005f6:	f04f 0000 	mov.w	r0, #0
  4005fa:	f380 8814 	msr	CONTROL, r0
  4005fe:	b662      	cpsie	i
  400600:	b661      	cpsie	f
  400602:	f3bf 8f4f 	dsb	sy
  400606:	f3bf 8f6f 	isb	sy
  40060a:	df00      	svc	0
  40060c:	bf00      	nop
  40060e:	0000      	.short	0x0000
  400610:	e000ed08 	.word	0xe000ed08

00400614 <vPortEnableVFP>:
/*-----------------------------------------------------------*/

/* This is a naked function. */
static void vPortEnableVFP( void )
{
	__asm volatile
  400614:	f8df 000c 	ldr.w	r0, [pc, #12]	; 400624 <vPortEnableVFP+0x10>
  400618:	6801      	ldr	r1, [r0, #0]
  40061a:	f441 0170 	orr.w	r1, r1, #15728640	; 0xf00000
  40061e:	6001      	str	r1, [r0, #0]
  400620:	4770      	bx	lr
  400622:	0000      	.short	0x0000
  400624:	e000ed88 	.word	0xe000ed88

00400628 <prvTaskExitError>:
{
  400628:	b500      	push	{lr}
  40062a:	b083      	sub	sp, #12
volatile uint32_t ulDummy = 0;
  40062c:	2300      	movs	r3, #0
  40062e:	9301      	str	r3, [sp, #4]
	configASSERT( uxCriticalNesting == ~0UL );
  400630:	4b0b      	ldr	r3, [pc, #44]	; (400660 <prvTaskExitError+0x38>)
  400632:	681b      	ldr	r3, [r3, #0]
  400634:	f1b3 3fff 	cmp.w	r3, #4294967295
  400638:	d003      	beq.n	400642 <prvTaskExitError+0x1a>
  40063a:	21e3      	movs	r1, #227	; 0xe3
  40063c:	4809      	ldr	r0, [pc, #36]	; (400664 <prvTaskExitError+0x3c>)
  40063e:	4b0a      	ldr	r3, [pc, #40]	; (400668 <prvTaskExitError+0x40>)
  400640:	4798      	blx	r3

portFORCE_INLINE static void vPortRaiseBASEPRI( void )
{
uint32_t ulNewBASEPRI;

	__asm volatile
  400642:	f04f 0350 	mov.w	r3, #80	; 0x50
  400646:	f383 8811 	msr	BASEPRI, r3
  40064a:	f3bf 8f6f 	isb	sy
  40064e:	f3bf 8f4f 	dsb	sy
	while( ulDummy == 0 )
  400652:	9b01      	ldr	r3, [sp, #4]
  400654:	2b00      	cmp	r3, #0
  400656:	d0fc      	beq.n	400652 <prvTaskExitError+0x2a>
}
  400658:	b003      	add	sp, #12
  40065a:	f85d fb04 	ldr.w	pc, [sp], #4
  40065e:	bf00      	nop
  400660:	20000000 	.word	0x20000000
  400664:	004033b4 	.word	0x004033b4
  400668:	00403021 	.word	0x00403021

0040066c <pxPortInitialiseStack>:
	*pxTopOfStack = portINITIAL_XPSR;	/* xPSR */
  40066c:	f04f 7380 	mov.w	r3, #16777216	; 0x1000000
  400670:	f840 3c04 	str.w	r3, [r0, #-4]
	*pxTopOfStack = ( ( StackType_t ) pxCode ) & portSTART_ADDRESS_MASK;	/* PC */
  400674:	f021 0101 	bic.w	r1, r1, #1
  400678:	f840 1c08 	str.w	r1, [r0, #-8]
	*pxTopOfStack = ( StackType_t ) portTASK_RETURN_ADDRESS;	/* LR */
  40067c:	4b05      	ldr	r3, [pc, #20]	; (400694 <pxPortInitialiseStack+0x28>)
  40067e:	f840 3c0c 	str.w	r3, [r0, #-12]
	*pxTopOfStack = ( StackType_t ) pvParameters;	/* R0 */
  400682:	f840 2c20 	str.w	r2, [r0, #-32]
	*pxTopOfStack = portINITIAL_EXC_RETURN;
  400686:	f06f 0302 	mvn.w	r3, #2
  40068a:	f840 3c24 	str.w	r3, [r0, #-36]
}
  40068e:	3844      	subs	r0, #68	; 0x44
  400690:	4770      	bx	lr
  400692:	bf00      	nop
  400694:	00400629 	.word	0x00400629
	...

004006a0 <SVC_Handler>:
	__asm volatile (
  4006a0:	4b07      	ldr	r3, [pc, #28]	; (4006c0 <pxCurrentTCBConst2>)
  4006a2:	6819      	ldr	r1, [r3, #0]
  4006a4:	6808      	ldr	r0, [r1, #0]
  4006a6:	e8b0 4ff0 	ldmia.w	r0!, {r4, r5, r6, r7, r8, r9, sl, fp, lr}
  4006aa:	f380 8809 	msr	PSP, r0
  4006ae:	f3bf 8f6f 	isb	sy
  4006b2:	f04f 0000 	mov.w	r0, #0
  4006b6:	f380 8811 	msr	BASEPRI, r0
  4006ba:	4770      	bx	lr
  4006bc:	f3af 8000 	nop.w

004006c0 <pxCurrentTCBConst2>:
  4006c0:	20000500 	.word	0x20000500

004006c4 <vPortEnterCritical>:
{
  4006c4:	b508      	push	{r3, lr}
  4006c6:	f04f 0350 	mov.w	r3, #80	; 0x50
  4006ca:	f383 8811 	msr	BASEPRI, r3
  4006ce:	f3bf 8f6f 	isb	sy
  4006d2:	f3bf 8f4f 	dsb	sy
	uxCriticalNesting++;
  4006d6:	4a09      	ldr	r2, [pc, #36]	; (4006fc <vPortEnterCritical+0x38>)
  4006d8:	6813      	ldr	r3, [r2, #0]
  4006da:	3301      	adds	r3, #1
  4006dc:	6013      	str	r3, [r2, #0]
	if( uxCriticalNesting == 1 )
  4006de:	2b01      	cmp	r3, #1
  4006e0:	d000      	beq.n	4006e4 <vPortEnterCritical+0x20>
  4006e2:	bd08      	pop	{r3, pc}
		configASSERT( ( portNVIC_INT_CTRL_REG & portVECTACTIVE_MASK ) == 0 );
  4006e4:	4b06      	ldr	r3, [pc, #24]	; (400700 <vPortEnterCritical+0x3c>)
  4006e6:	681b      	ldr	r3, [r3, #0]
  4006e8:	f013 0fff 	tst.w	r3, #255	; 0xff
  4006ec:	d0f9      	beq.n	4006e2 <vPortEnterCritical+0x1e>
  4006ee:	f240 119f 	movw	r1, #415	; 0x19f
  4006f2:	4804      	ldr	r0, [pc, #16]	; (400704 <vPortEnterCritical+0x40>)
  4006f4:	4b04      	ldr	r3, [pc, #16]	; (400708 <vPortEnterCritical+0x44>)
  4006f6:	4798      	blx	r3
}
  4006f8:	e7f3      	b.n	4006e2 <vPortEnterCritical+0x1e>
  4006fa:	bf00      	nop
  4006fc:	20000000 	.word	0x20000000
  400700:	e000ed04 	.word	0xe000ed04
  400704:	004033b4 	.word	0x004033b4
  400708:	00403021 	.word	0x00403021

0040070c <vPortExitCritical>:
{
  40070c:	b508      	push	{r3, lr}
	configASSERT( uxCriticalNesting );
  40070e:	4b08      	ldr	r3, [pc, #32]	; (400730 <vPortExitCritical+0x24>)
  400710:	681b      	ldr	r3, [r3, #0]
  400712:	b13b      	cbz	r3, 400724 <vPortExitCritical+0x18>
	uxCriticalNesting--;
  400714:	4a06      	ldr	r2, [pc, #24]	; (400730 <vPortExitCritical+0x24>)
  400716:	6813      	ldr	r3, [r2, #0]
  400718:	3b01      	subs	r3, #1
  40071a:	6013      	str	r3, [r2, #0]
	if( uxCriticalNesting == 0 )
  40071c:	b90b      	cbnz	r3, 400722 <vPortExitCritical+0x16>
}
/*-----------------------------------------------------------*/

portFORCE_INLINE static void vPortSetBASEPRI( uint32_t ulNewMaskValue )
{
	__asm volatile
  40071e:	f383 8811 	msr	BASEPRI, r3
  400722:	bd08      	pop	{r3, pc}
	configASSERT( uxCriticalNesting );
  400724:	f44f 71d3 	mov.w	r1, #422	; 0x1a6
  400728:	4802      	ldr	r0, [pc, #8]	; (400734 <vPortExitCritical+0x28>)
  40072a:	4b03      	ldr	r3, [pc, #12]	; (400738 <vPortExitCritical+0x2c>)
  40072c:	4798      	blx	r3
  40072e:	e7f1      	b.n	400714 <vPortExitCritical+0x8>
  400730:	20000000 	.word	0x20000000
  400734:	004033b4 	.word	0x004033b4
  400738:	00403021 	.word	0x00403021
  40073c:	00000000 	.word	0x00000000

00400740 <PendSV_Handler>:
	__asm volatile
  400740:	f3ef 8009 	mrs	r0, PSP
  400744:	f3bf 8f6f 	isb	sy
  400748:	4b15      	ldr	r3, [pc, #84]	; (4007a0 <pxCurrentTCBConst>)
  40074a:	681a      	ldr	r2, [r3, #0]
  40074c:	f01e 0f10 	tst.w	lr, #16
  400750:	bf08      	it	eq
  400752:	ed20 8a10 	vstmdbeq	r0!, {s16-s31}
  400756:	e920 4ff0 	stmdb	r0!, {r4, r5, r6, r7, r8, r9, sl, fp, lr}
  40075a:	6010      	str	r0, [r2, #0]
  40075c:	e92d 0009 	stmdb	sp!, {r0, r3}
  400760:	f04f 0050 	mov.w	r0, #80	; 0x50
  400764:	f380 8811 	msr	BASEPRI, r0
  400768:	f3bf 8f4f 	dsb	sy
  40076c:	f3bf 8f6f 	isb	sy
  400770:	f001 f9f2 	bl	401b58 <vTaskSwitchContext>
  400774:	f04f 0000 	mov.w	r0, #0
  400778:	f380 8811 	msr	BASEPRI, r0
  40077c:	bc09      	pop	{r0, r3}
  40077e:	6819      	ldr	r1, [r3, #0]
  400780:	6808      	ldr	r0, [r1, #0]
  400782:	e8b0 4ff0 	ldmia.w	r0!, {r4, r5, r6, r7, r8, r9, sl, fp, lr}
  400786:	f01e 0f10 	tst.w	lr, #16
  40078a:	bf08      	it	eq
  40078c:	ecb0 8a10 	vldmiaeq	r0!, {s16-s31}
  400790:	f380 8809 	msr	PSP, r0
  400794:	f3bf 8f6f 	isb	sy
  400798:	4770      	bx	lr
  40079a:	bf00      	nop
  40079c:	f3af 8000 	nop.w

004007a0 <pxCurrentTCBConst>:
  4007a0:	20000500 	.word	0x20000500

004007a4 <SysTick_Handler>:
{
  4007a4:	b508      	push	{r3, lr}
	__asm volatile
  4007a6:	f04f 0350 	mov.w	r3, #80	; 0x50
  4007aa:	f383 8811 	msr	BASEPRI, r3
  4007ae:	f3bf 8f6f 	isb	sy
  4007b2:	f3bf 8f4f 	dsb	sy
		if( xTaskIncrementTick() != pdFALSE )
  4007b6:	4b05      	ldr	r3, [pc, #20]	; (4007cc <SysTick_Handler+0x28>)
  4007b8:	4798      	blx	r3
  4007ba:	b118      	cbz	r0, 4007c4 <SysTick_Handler+0x20>
			portNVIC_INT_CTRL_REG = portNVIC_PENDSVSET_BIT;
  4007bc:	f04f 5280 	mov.w	r2, #268435456	; 0x10000000
  4007c0:	4b03      	ldr	r3, [pc, #12]	; (4007d0 <SysTick_Handler+0x2c>)
  4007c2:	601a      	str	r2, [r3, #0]
	__asm volatile
  4007c4:	2300      	movs	r3, #0
  4007c6:	f383 8811 	msr	BASEPRI, r3
  4007ca:	bd08      	pop	{r3, pc}
  4007cc:	004018c1 	.word	0x004018c1
  4007d0:	e000ed04 	.word	0xe000ed04

004007d4 <vPortSetupTimerInterrupt>:
	portNVIC_SYSTICK_CTRL_REG = 0UL;
  4007d4:	4a08      	ldr	r2, [pc, #32]	; (4007f8 <vPortSetupTimerInterrupt+0x24>)
  4007d6:	2300      	movs	r3, #0
  4007d8:	6013      	str	r3, [r2, #0]
	portNVIC_SYSTICK_CURRENT_VALUE_REG = 0UL;
  4007da:	4908      	ldr	r1, [pc, #32]	; (4007fc <vPortSetupTimerInterrupt+0x28>)
  4007dc:	600b      	str	r3, [r1, #0]
	portNVIC_SYSTICK_LOAD_REG = ( configSYSTICK_CLOCK_HZ / configTICK_RATE_HZ ) - 1UL;
  4007de:	4b08      	ldr	r3, [pc, #32]	; (400800 <vPortSetupTimerInterrupt+0x2c>)
  4007e0:	681b      	ldr	r3, [r3, #0]
  4007e2:	4908      	ldr	r1, [pc, #32]	; (400804 <vPortSetupTimerInterrupt+0x30>)
  4007e4:	fba1 1303 	umull	r1, r3, r1, r3
  4007e8:	099b      	lsrs	r3, r3, #6
  4007ea:	3b01      	subs	r3, #1
  4007ec:	4906      	ldr	r1, [pc, #24]	; (400808 <vPortSetupTimerInterrupt+0x34>)
  4007ee:	600b      	str	r3, [r1, #0]
	portNVIC_SYSTICK_CTRL_REG = ( portNVIC_SYSTICK_CLK_BIT | portNVIC_SYSTICK_INT_BIT | portNVIC_SYSTICK_ENABLE_BIT );
  4007f0:	2307      	movs	r3, #7
  4007f2:	6013      	str	r3, [r2, #0]
  4007f4:	4770      	bx	lr
  4007f6:	bf00      	nop
  4007f8:	e000e010 	.word	0xe000e010
  4007fc:	e000e018 	.word	0xe000e018
  400800:	20000008 	.word	0x20000008
  400804:	10624dd3 	.word	0x10624dd3
  400808:	e000e014 	.word	0xe000e014

0040080c <xPortStartScheduler>:
{
  40080c:	b510      	push	{r4, lr}
  40080e:	b082      	sub	sp, #8
	configASSERT( portCPUID != portCORTEX_M7_r0p1_ID );
  400810:	4b34      	ldr	r3, [pc, #208]	; (4008e4 <xPortStartScheduler+0xd8>)
  400812:	681a      	ldr	r2, [r3, #0]
  400814:	4b34      	ldr	r3, [pc, #208]	; (4008e8 <xPortStartScheduler+0xdc>)
  400816:	429a      	cmp	r2, r3
  400818:	d018      	beq.n	40084c <xPortStartScheduler+0x40>
	configASSERT( portCPUID != portCORTEX_M7_r0p0_ID );
  40081a:	4b32      	ldr	r3, [pc, #200]	; (4008e4 <xPortStartScheduler+0xd8>)
  40081c:	681a      	ldr	r2, [r3, #0]
  40081e:	4b33      	ldr	r3, [pc, #204]	; (4008ec <xPortStartScheduler+0xe0>)
  400820:	429a      	cmp	r2, r3
  400822:	d019      	beq.n	400858 <xPortStartScheduler+0x4c>
		ulOriginalPriority = *pucFirstUserPriorityRegister;
  400824:	4b32      	ldr	r3, [pc, #200]	; (4008f0 <xPortStartScheduler+0xe4>)
  400826:	781a      	ldrb	r2, [r3, #0]
  400828:	b2d2      	uxtb	r2, r2
  40082a:	9201      	str	r2, [sp, #4]
		*pucFirstUserPriorityRegister = portMAX_8_BIT_VALUE;
  40082c:	22ff      	movs	r2, #255	; 0xff
  40082e:	701a      	strb	r2, [r3, #0]
		ucMaxPriorityValue = *pucFirstUserPriorityRegister;
  400830:	781b      	ldrb	r3, [r3, #0]
  400832:	b2db      	uxtb	r3, r3
  400834:	f88d 3003 	strb.w	r3, [sp, #3]
		ucMaxSysCallPriority = configMAX_SYSCALL_INTERRUPT_PRIORITY & ucMaxPriorityValue;
  400838:	f89d 3003 	ldrb.w	r3, [sp, #3]
  40083c:	f003 0350 	and.w	r3, r3, #80	; 0x50
  400840:	4a2c      	ldr	r2, [pc, #176]	; (4008f4 <xPortStartScheduler+0xe8>)
  400842:	7013      	strb	r3, [r2, #0]
		ulMaxPRIGROUPValue = portMAX_PRIGROUP_BITS;
  400844:	2207      	movs	r2, #7
  400846:	4b2c      	ldr	r3, [pc, #176]	; (4008f8 <xPortStartScheduler+0xec>)
  400848:	601a      	str	r2, [r3, #0]
		while( ( ucMaxPriorityValue & portTOP_BIT_OF_BYTE ) == portTOP_BIT_OF_BYTE )
  40084a:	e015      	b.n	400878 <xPortStartScheduler+0x6c>
	configASSERT( portCPUID != portCORTEX_M7_r0p1_ID );
  40084c:	f44f 7194 	mov.w	r1, #296	; 0x128
  400850:	482a      	ldr	r0, [pc, #168]	; (4008fc <xPortStartScheduler+0xf0>)
  400852:	4b2b      	ldr	r3, [pc, #172]	; (400900 <xPortStartScheduler+0xf4>)
  400854:	4798      	blx	r3
  400856:	e7e0      	b.n	40081a <xPortStartScheduler+0xe>
	configASSERT( portCPUID != portCORTEX_M7_r0p0_ID );
  400858:	f240 1129 	movw	r1, #297	; 0x129
  40085c:	4827      	ldr	r0, [pc, #156]	; (4008fc <xPortStartScheduler+0xf0>)
  40085e:	4b28      	ldr	r3, [pc, #160]	; (400900 <xPortStartScheduler+0xf4>)
  400860:	4798      	blx	r3
  400862:	e7df      	b.n	400824 <xPortStartScheduler+0x18>
			ulMaxPRIGROUPValue--;
  400864:	4a24      	ldr	r2, [pc, #144]	; (4008f8 <xPortStartScheduler+0xec>)
  400866:	6813      	ldr	r3, [r2, #0]
  400868:	3b01      	subs	r3, #1
  40086a:	6013      	str	r3, [r2, #0]
			ucMaxPriorityValue <<= ( uint8_t ) 0x01;
  40086c:	f89d 3003 	ldrb.w	r3, [sp, #3]
  400870:	005b      	lsls	r3, r3, #1
  400872:	b2db      	uxtb	r3, r3
  400874:	f88d 3003 	strb.w	r3, [sp, #3]
		while( ( ucMaxPriorityValue & portTOP_BIT_OF_BYTE ) == portTOP_BIT_OF_BYTE )
  400878:	f89d 3003 	ldrb.w	r3, [sp, #3]
  40087c:	f013 0f80 	tst.w	r3, #128	; 0x80
  400880:	d1f0      	bne.n	400864 <xPortStartScheduler+0x58>
			configASSERT( ( portMAX_PRIGROUP_BITS - ulMaxPRIGROUPValue ) == configPRIO_BITS );
  400882:	4b1d      	ldr	r3, [pc, #116]	; (4008f8 <xPortStartScheduler+0xec>)
  400884:	681b      	ldr	r3, [r3, #0]
  400886:	2b03      	cmp	r3, #3
  400888:	d004      	beq.n	400894 <xPortStartScheduler+0x88>
  40088a:	f44f 71ad 	mov.w	r1, #346	; 0x15a
  40088e:	481b      	ldr	r0, [pc, #108]	; (4008fc <xPortStartScheduler+0xf0>)
  400890:	4b1b      	ldr	r3, [pc, #108]	; (400900 <xPortStartScheduler+0xf4>)
  400892:	4798      	blx	r3
		ulMaxPRIGROUPValue <<= portPRIGROUP_SHIFT;
  400894:	4a18      	ldr	r2, [pc, #96]	; (4008f8 <xPortStartScheduler+0xec>)
  400896:	6813      	ldr	r3, [r2, #0]
  400898:	021b      	lsls	r3, r3, #8
		ulMaxPRIGROUPValue &= portPRIORITY_GROUP_MASK;
  40089a:	f403 63e0 	and.w	r3, r3, #1792	; 0x700
  40089e:	6013      	str	r3, [r2, #0]
		*pucFirstUserPriorityRegister = ulOriginalPriority;
  4008a0:	9b01      	ldr	r3, [sp, #4]
  4008a2:	b2db      	uxtb	r3, r3
  4008a4:	4a12      	ldr	r2, [pc, #72]	; (4008f0 <xPortStartScheduler+0xe4>)
  4008a6:	7013      	strb	r3, [r2, #0]
	portNVIC_SYSPRI2_REG |= portNVIC_PENDSV_PRI;
  4008a8:	4b16      	ldr	r3, [pc, #88]	; (400904 <xPortStartScheduler+0xf8>)
  4008aa:	681a      	ldr	r2, [r3, #0]
  4008ac:	f442 0270 	orr.w	r2, r2, #15728640	; 0xf00000
  4008b0:	601a      	str	r2, [r3, #0]
	portNVIC_SYSPRI2_REG |= portNVIC_SYSTICK_PRI;
  4008b2:	681a      	ldr	r2, [r3, #0]
  4008b4:	f042 4270 	orr.w	r2, r2, #4026531840	; 0xf0000000
  4008b8:	601a      	str	r2, [r3, #0]
	vPortSetupTimerInterrupt();
  4008ba:	4b13      	ldr	r3, [pc, #76]	; (400908 <xPortStartScheduler+0xfc>)
  4008bc:	4798      	blx	r3
	uxCriticalNesting = 0;
  4008be:	2400      	movs	r4, #0
  4008c0:	4b12      	ldr	r3, [pc, #72]	; (40090c <xPortStartScheduler+0x100>)
  4008c2:	601c      	str	r4, [r3, #0]
	vPortEnableVFP();
  4008c4:	4b12      	ldr	r3, [pc, #72]	; (400910 <xPortStartScheduler+0x104>)
  4008c6:	4798      	blx	r3
	*( portFPCCR ) |= portASPEN_AND_LSPEN_BITS;
  4008c8:	4a12      	ldr	r2, [pc, #72]	; (400914 <xPortStartScheduler+0x108>)
  4008ca:	6813      	ldr	r3, [r2, #0]
  4008cc:	f043 4340 	orr.w	r3, r3, #3221225472	; 0xc0000000
  4008d0:	6013      	str	r3, [r2, #0]
	prvPortStartFirstTask();
  4008d2:	4b11      	ldr	r3, [pc, #68]	; (400918 <xPortStartScheduler+0x10c>)
  4008d4:	4798      	blx	r3
	vTaskSwitchContext();
  4008d6:	4b11      	ldr	r3, [pc, #68]	; (40091c <xPortStartScheduler+0x110>)
  4008d8:	4798      	blx	r3
	prvTaskExitError();
  4008da:	4b11      	ldr	r3, [pc, #68]	; (400920 <xPortStartScheduler+0x114>)
  4008dc:	4798      	blx	r3
}
  4008de:	4620      	mov	r0, r4
  4008e0:	b002      	add	sp, #8
  4008e2:	bd10      	pop	{r4, pc}
  4008e4:	e000ed00 	.word	0xe000ed00
  4008e8:	410fc271 	.word	0x410fc271
  4008ec:	410fc270 	.word	0x410fc270
  4008f0:	e000e400 	.word	0xe000e400
  4008f4:	200004e0 	.word	0x200004e0
  4008f8:	200004e4 	.word	0x200004e4
  4008fc:	004033b4 	.word	0x004033b4
  400900:	00403021 	.word	0x00403021
  400904:	e000ed20 	.word	0xe000ed20
  400908:	004007d5 	.word	0x004007d5
  40090c:	20000000 	.word	0x20000000
  400910:	00400615 	.word	0x00400615
  400914:	e000ef34 	.word	0xe000ef34
  400918:	004005ed 	.word	0x004005ed
  40091c:	00401b59 	.word	0x00401b59
  400920:	00400629 	.word	0x00400629

00400924 <vPortValidateInterruptPriority>:
/*-----------------------------------------------------------*/

#if( configASSERT_DEFINED == 1 )

	void vPortValidateInterruptPriority( void )
	{
  400924:	b508      	push	{r3, lr}
	uint32_t ulCurrentInterrupt;
	uint8_t ucCurrentPriority;

		/* Obtain the number of the currently executing interrupt. */
		__asm volatile( "mrs %0, ipsr" : "=r"( ulCurrentInterrupt ) :: "memory" );
  400926:	f3ef 8305 	mrs	r3, IPSR

		/* Is the interrupt number a user defined interrupt? */
		if( ulCurrentInterrupt >= portFIRST_USER_INTERRUPT_NUMBER )
  40092a:	2b0f      	cmp	r3, #15
  40092c:	d906      	bls.n	40093c <vPortValidateInterruptPriority+0x18>
		{
			/* Look up the interrupt's priority. */
			ucCurrentPriority = pcInterruptPriorityRegisters[ ulCurrentInterrupt ];
  40092e:	4a0e      	ldr	r2, [pc, #56]	; (400968 <vPortValidateInterruptPriority+0x44>)
  400930:	5c9b      	ldrb	r3, [r3, r2]
  400932:	b2db      	uxtb	r3, r3
			interrupt entry is as fast and simple as possible.

			The following links provide detailed information:
			http://www.freertos.org/RTOS-Cortex-M3-M4.html
			http://www.freertos.org/FAQHelp.html */
			configASSERT( ucCurrentPriority >= ucMaxSysCallPriority );
  400934:	4a0d      	ldr	r2, [pc, #52]	; (40096c <vPortValidateInterruptPriority+0x48>)
  400936:	7812      	ldrb	r2, [r2, #0]
  400938:	4293      	cmp	r3, r2
  40093a:	d308      	bcc.n	40094e <vPortValidateInterruptPriority+0x2a>
		configuration then the correct setting can be achieved on all Cortex-M
		devices by calling NVIC_SetPriorityGrouping( 0 ); before starting the
		scheduler.  Note however that some vendor specific peripheral libraries
		assume a non-zero priority group setting, in which cases using a value
		of zero will result in unpredictable behaviour. */
		configASSERT( ( portAIRCR_REG & portPRIORITY_GROUP_MASK ) <= ulMaxPRIGROUPValue );
  40093c:	4b0c      	ldr	r3, [pc, #48]	; (400970 <vPortValidateInterruptPriority+0x4c>)
  40093e:	681b      	ldr	r3, [r3, #0]
  400940:	f403 63e0 	and.w	r3, r3, #1792	; 0x700
  400944:	4a0b      	ldr	r2, [pc, #44]	; (400974 <vPortValidateInterruptPriority+0x50>)
  400946:	6812      	ldr	r2, [r2, #0]
  400948:	4293      	cmp	r3, r2
  40094a:	d806      	bhi.n	40095a <vPortValidateInterruptPriority+0x36>
  40094c:	bd08      	pop	{r3, pc}
			configASSERT( ucCurrentPriority >= ucMaxSysCallPriority );
  40094e:	f240 21f2 	movw	r1, #754	; 0x2f2
  400952:	4809      	ldr	r0, [pc, #36]	; (400978 <vPortValidateInterruptPriority+0x54>)
  400954:	4b09      	ldr	r3, [pc, #36]	; (40097c <vPortValidateInterruptPriority+0x58>)
  400956:	4798      	blx	r3
  400958:	e7f0      	b.n	40093c <vPortValidateInterruptPriority+0x18>
		configASSERT( ( portAIRCR_REG & portPRIORITY_GROUP_MASK ) <= ulMaxPRIGROUPValue );
  40095a:	f240 3102 	movw	r1, #770	; 0x302
  40095e:	4806      	ldr	r0, [pc, #24]	; (400978 <vPortValidateInterruptPriority+0x54>)
  400960:	4b06      	ldr	r3, [pc, #24]	; (40097c <vPortValidateInterruptPriority+0x58>)
  400962:	4798      	blx	r3
	}
  400964:	e7f2      	b.n	40094c <vPortValidateInterruptPriority+0x28>
  400966:	bf00      	nop
  400968:	e000e3f0 	.word	0xe000e3f0
  40096c:	200004e0 	.word	0x200004e0
  400970:	e000ed0c 	.word	0xe000ed0c
  400974:	200004e4 	.word	0x200004e4
  400978:	004033b4 	.word	0x004033b4
  40097c:	00403021 	.word	0x00403021

00400980 <prvInsertBlockIntoFreeList>:
	return xMinimumEverFreeBytesRemaining;
}
/*-----------------------------------------------------------*/

static void prvInsertBlockIntoFreeList( BlockLink_t *pxBlockToInsert )
{
  400980:	b410      	push	{r4}
BlockLink_t *pxIterator;
uint8_t *puc;

	/* Iterate through the list until a block is found that has a higher address
	than the block being inserted. */
	for( pxIterator = &xStart; pxIterator->pxNextFreeBlock < pxBlockToInsert; pxIterator = pxIterator->pxNextFreeBlock )
  400982:	4a13      	ldr	r2, [pc, #76]	; (4009d0 <prvInsertBlockIntoFreeList+0x50>)
  400984:	e000      	b.n	400988 <prvInsertBlockIntoFreeList+0x8>
  400986:	461a      	mov	r2, r3
  400988:	6813      	ldr	r3, [r2, #0]
  40098a:	4283      	cmp	r3, r0
  40098c:	d3fb      	bcc.n	400986 <prvInsertBlockIntoFreeList+0x6>
	}

	/* Do the block being inserted, and the block it is being inserted after
	make a contiguous block of memory? */
	puc = ( uint8_t * ) pxIterator;
	if( ( puc + pxIterator->xBlockSize ) == ( uint8_t * ) pxBlockToInsert )
  40098e:	6851      	ldr	r1, [r2, #4]
  400990:	1854      	adds	r4, r2, r1
  400992:	42a0      	cmp	r0, r4
  400994:	d00a      	beq.n	4009ac <prvInsertBlockIntoFreeList+0x2c>
	}

	/* Do the block being inserted, and the block it is being inserted before
	make a contiguous block of memory? */
	puc = ( uint8_t * ) pxBlockToInsert;
	if( ( puc + pxBlockToInsert->xBlockSize ) == ( uint8_t * ) pxIterator->pxNextFreeBlock )
  400996:	6841      	ldr	r1, [r0, #4]
  400998:	1844      	adds	r4, r0, r1
  40099a:	42a3      	cmp	r3, r4
  40099c:	d00b      	beq.n	4009b6 <prvInsertBlockIntoFreeList+0x36>
			pxBlockToInsert->pxNextFreeBlock = pxEnd;
		}
	}
	else
	{
		pxBlockToInsert->pxNextFreeBlock = pxIterator->pxNextFreeBlock;
  40099e:	6003      	str	r3, [r0, #0]

	/* If the block being inserted plugged a gab, so was merged with the block
	before and the block after, then it's pxNextFreeBlock pointer will have
	already been set, and should not be set here as that would make it point
	to itself. */
	if( pxIterator != pxBlockToInsert )
  4009a0:	4290      	cmp	r0, r2
  4009a2:	d000      	beq.n	4009a6 <prvInsertBlockIntoFreeList+0x26>
	{
		pxIterator->pxNextFreeBlock = pxBlockToInsert;
  4009a4:	6010      	str	r0, [r2, #0]
	}
	else
	{
		mtCOVERAGE_TEST_MARKER();
	}
}
  4009a6:	f85d 4b04 	ldr.w	r4, [sp], #4
  4009aa:	4770      	bx	lr
		pxIterator->xBlockSize += pxBlockToInsert->xBlockSize;
  4009ac:	6840      	ldr	r0, [r0, #4]
  4009ae:	4401      	add	r1, r0
  4009b0:	6051      	str	r1, [r2, #4]
		pxBlockToInsert = pxIterator;
  4009b2:	4610      	mov	r0, r2
  4009b4:	e7ef      	b.n	400996 <prvInsertBlockIntoFreeList+0x16>
		if( pxIterator->pxNextFreeBlock != pxEnd )
  4009b6:	4c07      	ldr	r4, [pc, #28]	; (4009d4 <prvInsertBlockIntoFreeList+0x54>)
  4009b8:	6824      	ldr	r4, [r4, #0]
  4009ba:	42a3      	cmp	r3, r4
  4009bc:	d006      	beq.n	4009cc <prvInsertBlockIntoFreeList+0x4c>
			pxBlockToInsert->xBlockSize += pxIterator->pxNextFreeBlock->xBlockSize;
  4009be:	685b      	ldr	r3, [r3, #4]
  4009c0:	4419      	add	r1, r3
  4009c2:	6041      	str	r1, [r0, #4]
			pxBlockToInsert->pxNextFreeBlock = pxIterator->pxNextFreeBlock->pxNextFreeBlock;
  4009c4:	6813      	ldr	r3, [r2, #0]
  4009c6:	681b      	ldr	r3, [r3, #0]
  4009c8:	6003      	str	r3, [r0, #0]
  4009ca:	e7e9      	b.n	4009a0 <prvInsertBlockIntoFreeList+0x20>
			pxBlockToInsert->pxNextFreeBlock = pxEnd;
  4009cc:	6004      	str	r4, [r0, #0]
  4009ce:	e7e7      	b.n	4009a0 <prvInsertBlockIntoFreeList+0x20>
  4009d0:	200004f8 	.word	0x200004f8
  4009d4:	200004e8 	.word	0x200004e8

004009d8 <pvPortMalloc>:
{
  4009d8:	b570      	push	{r4, r5, r6, lr}
  4009da:	4605      	mov	r5, r0
	configASSERT( pxEnd );
  4009dc:	4b2c      	ldr	r3, [pc, #176]	; (400a90 <pvPortMalloc+0xb8>)
  4009de:	681b      	ldr	r3, [r3, #0]
  4009e0:	b1b3      	cbz	r3, 400a10 <pvPortMalloc+0x38>
	vTaskSuspendAll();
  4009e2:	4b2c      	ldr	r3, [pc, #176]	; (400a94 <pvPortMalloc+0xbc>)
  4009e4:	4798      	blx	r3
		if( ( xWantedSize & xBlockAllocatedBit ) == 0 )
  4009e6:	4b2c      	ldr	r3, [pc, #176]	; (400a98 <pvPortMalloc+0xc0>)
  4009e8:	681b      	ldr	r3, [r3, #0]
  4009ea:	421d      	tst	r5, r3
  4009ec:	d145      	bne.n	400a7a <pvPortMalloc+0xa2>
			if( xWantedSize > 0 )
  4009ee:	b135      	cbz	r5, 4009fe <pvPortMalloc+0x26>
				xWantedSize += xHeapStructSize;
  4009f0:	3508      	adds	r5, #8
				if( ( xWantedSize & portBYTE_ALIGNMENT_MASK ) != 0x00 )
  4009f2:	f015 0f07 	tst.w	r5, #7
  4009f6:	d002      	beq.n	4009fe <pvPortMalloc+0x26>
					xWantedSize += ( portBYTE_ALIGNMENT - ( xWantedSize & portBYTE_ALIGNMENT_MASK ) );
  4009f8:	f025 0507 	bic.w	r5, r5, #7
  4009fc:	3508      	adds	r5, #8
			if( ( xWantedSize > 0 ) && ( xWantedSize <= xFreeBytesRemaining ) )
  4009fe:	2d00      	cmp	r5, #0
  400a00:	d03d      	beq.n	400a7e <pvPortMalloc+0xa6>
  400a02:	4b26      	ldr	r3, [pc, #152]	; (400a9c <pvPortMalloc+0xc4>)
  400a04:	681b      	ldr	r3, [r3, #0]
  400a06:	429d      	cmp	r5, r3
  400a08:	d83b      	bhi.n	400a82 <pvPortMalloc+0xaa>
				pxBlock = xStart.pxNextFreeBlock;
  400a0a:	4a25      	ldr	r2, [pc, #148]	; (400aa0 <pvPortMalloc+0xc8>)
  400a0c:	6814      	ldr	r4, [r2, #0]
				while( ( pxBlock->xBlockSize < xWantedSize ) && ( pxBlock->pxNextFreeBlock != NULL ) )
  400a0e:	e006      	b.n	400a1e <pvPortMalloc+0x46>
	configASSERT( pxEnd );
  400a10:	218b      	movs	r1, #139	; 0x8b
  400a12:	4824      	ldr	r0, [pc, #144]	; (400aa4 <pvPortMalloc+0xcc>)
  400a14:	4b24      	ldr	r3, [pc, #144]	; (400aa8 <pvPortMalloc+0xd0>)
  400a16:	4798      	blx	r3
  400a18:	e7e3      	b.n	4009e2 <pvPortMalloc+0xa>
					pxPreviousBlock = pxBlock;
  400a1a:	4622      	mov	r2, r4
					pxBlock = pxBlock->pxNextFreeBlock;
  400a1c:	461c      	mov	r4, r3
				while( ( pxBlock->xBlockSize < xWantedSize ) && ( pxBlock->pxNextFreeBlock != NULL ) )
  400a1e:	6863      	ldr	r3, [r4, #4]
  400a20:	429d      	cmp	r5, r3
  400a22:	d902      	bls.n	400a2a <pvPortMalloc+0x52>
  400a24:	6823      	ldr	r3, [r4, #0]
  400a26:	2b00      	cmp	r3, #0
  400a28:	d1f7      	bne.n	400a1a <pvPortMalloc+0x42>
				if( pxBlock != pxEnd )
  400a2a:	4b19      	ldr	r3, [pc, #100]	; (400a90 <pvPortMalloc+0xb8>)
  400a2c:	681b      	ldr	r3, [r3, #0]
  400a2e:	429c      	cmp	r4, r3
  400a30:	d029      	beq.n	400a86 <pvPortMalloc+0xae>
					pvReturn = ( void * ) ( ( ( uint8_t * ) pxPreviousBlock->pxNextFreeBlock ) + xHeapStructSize );
  400a32:	6816      	ldr	r6, [r2, #0]
  400a34:	3608      	adds	r6, #8
					pxPreviousBlock->pxNextFreeBlock = pxBlock->pxNextFreeBlock;
  400a36:	6823      	ldr	r3, [r4, #0]
  400a38:	6013      	str	r3, [r2, #0]
					if( ( pxBlock->xBlockSize - xWantedSize ) > heapMINIMUM_BLOCK_SIZE )
  400a3a:	6863      	ldr	r3, [r4, #4]
  400a3c:	1b5b      	subs	r3, r3, r5
  400a3e:	2b10      	cmp	r3, #16
  400a40:	d815      	bhi.n	400a6e <pvPortMalloc+0x96>
					xFreeBytesRemaining -= pxBlock->xBlockSize;
  400a42:	6862      	ldr	r2, [r4, #4]
  400a44:	4915      	ldr	r1, [pc, #84]	; (400a9c <pvPortMalloc+0xc4>)
  400a46:	680b      	ldr	r3, [r1, #0]
  400a48:	1a9b      	subs	r3, r3, r2
  400a4a:	600b      	str	r3, [r1, #0]
					if( xFreeBytesRemaining < xMinimumEverFreeBytesRemaining )
  400a4c:	4917      	ldr	r1, [pc, #92]	; (400aac <pvPortMalloc+0xd4>)
  400a4e:	6809      	ldr	r1, [r1, #0]
  400a50:	428b      	cmp	r3, r1
  400a52:	d201      	bcs.n	400a58 <pvPortMalloc+0x80>
						xMinimumEverFreeBytesRemaining = xFreeBytesRemaining;
  400a54:	4915      	ldr	r1, [pc, #84]	; (400aac <pvPortMalloc+0xd4>)
  400a56:	600b      	str	r3, [r1, #0]
					pxBlock->xBlockSize |= xBlockAllocatedBit;
  400a58:	4b0f      	ldr	r3, [pc, #60]	; (400a98 <pvPortMalloc+0xc0>)
  400a5a:	681b      	ldr	r3, [r3, #0]
  400a5c:	4313      	orrs	r3, r2
  400a5e:	6063      	str	r3, [r4, #4]
					pxBlock->pxNextFreeBlock = NULL;
  400a60:	2300      	movs	r3, #0
  400a62:	6023      	str	r3, [r4, #0]
	( void ) xTaskResumeAll();
  400a64:	4b12      	ldr	r3, [pc, #72]	; (400ab0 <pvPortMalloc+0xd8>)
  400a66:	4798      	blx	r3
		if( pvReturn == NULL )
  400a68:	b17e      	cbz	r6, 400a8a <pvPortMalloc+0xb2>
}
  400a6a:	4630      	mov	r0, r6
  400a6c:	bd70      	pop	{r4, r5, r6, pc}
						pxNewBlockLink = ( void * ) ( ( ( uint8_t * ) pxBlock ) + xWantedSize );
  400a6e:	1960      	adds	r0, r4, r5
						pxNewBlockLink->xBlockSize = pxBlock->xBlockSize - xWantedSize;
  400a70:	6043      	str	r3, [r0, #4]
						pxBlock->xBlockSize = xWantedSize;
  400a72:	6065      	str	r5, [r4, #4]
						prvInsertBlockIntoFreeList( ( pxNewBlockLink ) );
  400a74:	4b0f      	ldr	r3, [pc, #60]	; (400ab4 <pvPortMalloc+0xdc>)
  400a76:	4798      	blx	r3
  400a78:	e7e3      	b.n	400a42 <pvPortMalloc+0x6a>
void *pvReturn = NULL;
  400a7a:	2600      	movs	r6, #0
  400a7c:	e7f2      	b.n	400a64 <pvPortMalloc+0x8c>
  400a7e:	2600      	movs	r6, #0
  400a80:	e7f0      	b.n	400a64 <pvPortMalloc+0x8c>
  400a82:	2600      	movs	r6, #0
  400a84:	e7ee      	b.n	400a64 <pvPortMalloc+0x8c>
  400a86:	2600      	movs	r6, #0
  400a88:	e7ec      	b.n	400a64 <pvPortMalloc+0x8c>
			vApplicationMallocFailedHook();
  400a8a:	4b0b      	ldr	r3, [pc, #44]	; (400ab8 <pvPortMalloc+0xe0>)
  400a8c:	4798      	blx	r3
	return pvReturn;
  400a8e:	e7ec      	b.n	400a6a <pvPortMalloc+0x92>
  400a90:	200004e8 	.word	0x200004e8
  400a94:	004018a5 	.word	0x004018a5
  400a98:	200004ec 	.word	0x200004ec
  400a9c:	200004f0 	.word	0x200004f0
  400aa0:	200004f8 	.word	0x200004f8
  400aa4:	004033e4 	.word	0x004033e4
  400aa8:	00403021 	.word	0x00403021
  400aac:	200004f4 	.word	0x200004f4
  400ab0:	004019e5 	.word	0x004019e5
  400ab4:	00400981 	.word	0x00400981
  400ab8:	0040304d 	.word	0x0040304d

00400abc <vPortFree>:
	if( pv != NULL )
  400abc:	2800      	cmp	r0, #0
  400abe:	d033      	beq.n	400b28 <vPortFree+0x6c>
{
  400ac0:	b538      	push	{r3, r4, r5, lr}
  400ac2:	4604      	mov	r4, r0
		puc -= xHeapStructSize;
  400ac4:	f1a0 0508 	sub.w	r5, r0, #8
		configASSERT( ( pxLink->xBlockSize & xBlockAllocatedBit ) != 0 );
  400ac8:	f850 2c04 	ldr.w	r2, [r0, #-4]
  400acc:	4b17      	ldr	r3, [pc, #92]	; (400b2c <vPortFree+0x70>)
  400ace:	681b      	ldr	r3, [r3, #0]
  400ad0:	421a      	tst	r2, r3
  400ad2:	d011      	beq.n	400af8 <vPortFree+0x3c>
		configASSERT( pxLink->pxNextFreeBlock == NULL );
  400ad4:	f854 3c08 	ldr.w	r3, [r4, #-8]
  400ad8:	b123      	cbz	r3, 400ae4 <vPortFree+0x28>
  400ada:	f44f 7190 	mov.w	r1, #288	; 0x120
  400ade:	4814      	ldr	r0, [pc, #80]	; (400b30 <vPortFree+0x74>)
  400ae0:	4b14      	ldr	r3, [pc, #80]	; (400b34 <vPortFree+0x78>)
  400ae2:	4798      	blx	r3
		if( ( pxLink->xBlockSize & xBlockAllocatedBit ) != 0 )
  400ae4:	f854 3c04 	ldr.w	r3, [r4, #-4]
  400ae8:	4a10      	ldr	r2, [pc, #64]	; (400b2c <vPortFree+0x70>)
  400aea:	6812      	ldr	r2, [r2, #0]
  400aec:	4213      	tst	r3, r2
  400aee:	d002      	beq.n	400af6 <vPortFree+0x3a>
			if( pxLink->pxNextFreeBlock == NULL )
  400af0:	f854 1c08 	ldr.w	r1, [r4, #-8]
  400af4:	b131      	cbz	r1, 400b04 <vPortFree+0x48>
  400af6:	bd38      	pop	{r3, r4, r5, pc}
		configASSERT( ( pxLink->xBlockSize & xBlockAllocatedBit ) != 0 );
  400af8:	f240 111f 	movw	r1, #287	; 0x11f
  400afc:	480c      	ldr	r0, [pc, #48]	; (400b30 <vPortFree+0x74>)
  400afe:	4b0d      	ldr	r3, [pc, #52]	; (400b34 <vPortFree+0x78>)
  400b00:	4798      	blx	r3
  400b02:	e7e7      	b.n	400ad4 <vPortFree+0x18>
				pxLink->xBlockSize &= ~xBlockAllocatedBit;
  400b04:	ea23 0302 	bic.w	r3, r3, r2
  400b08:	f844 3c04 	str.w	r3, [r4, #-4]
				vTaskSuspendAll();
  400b0c:	4b0a      	ldr	r3, [pc, #40]	; (400b38 <vPortFree+0x7c>)
  400b0e:	4798      	blx	r3
					xFreeBytesRemaining += pxLink->xBlockSize;
  400b10:	f854 1c04 	ldr.w	r1, [r4, #-4]
  400b14:	4a09      	ldr	r2, [pc, #36]	; (400b3c <vPortFree+0x80>)
  400b16:	6813      	ldr	r3, [r2, #0]
  400b18:	440b      	add	r3, r1
  400b1a:	6013      	str	r3, [r2, #0]
					prvInsertBlockIntoFreeList( ( ( BlockLink_t * ) pxLink ) );
  400b1c:	4628      	mov	r0, r5
  400b1e:	4b08      	ldr	r3, [pc, #32]	; (400b40 <vPortFree+0x84>)
  400b20:	4798      	blx	r3
				( void ) xTaskResumeAll();
  400b22:	4b08      	ldr	r3, [pc, #32]	; (400b44 <vPortFree+0x88>)
  400b24:	4798      	blx	r3
}
  400b26:	e7e6      	b.n	400af6 <vPortFree+0x3a>
  400b28:	4770      	bx	lr
  400b2a:	bf00      	nop
  400b2c:	200004ec 	.word	0x200004ec
  400b30:	004033e4 	.word	0x004033e4
  400b34:	00403021 	.word	0x00403021
  400b38:	004018a5 	.word	0x004018a5
  400b3c:	200004f0 	.word	0x200004f0
  400b40:	00400981 	.word	0x00400981
  400b44:	004019e5 	.word	0x004019e5

00400b48 <vPortDefineHeapRegions>:
/*-----------------------------------------------------------*/

void vPortDefineHeapRegions( const HeapRegion_t * const pxHeapRegions )
{
  400b48:	e92d 41f0 	stmdb	sp!, {r4, r5, r6, r7, r8, lr}
  400b4c:	4680      	mov	r8, r0
BaseType_t xDefinedRegions = 0;
size_t xAddress;
const HeapRegion_t *pxHeapRegion;

	/* Can only call once! */
	configASSERT( pxEnd == NULL );
  400b4e:	4b2c      	ldr	r3, [pc, #176]	; (400c00 <vPortDefineHeapRegions+0xb8>)
  400b50:	681b      	ldr	r3, [r3, #0]
  400b52:	b123      	cbz	r3, 400b5e <vPortDefineHeapRegions+0x16>
  400b54:	f240 1193 	movw	r1, #403	; 0x193
  400b58:	482a      	ldr	r0, [pc, #168]	; (400c04 <vPortDefineHeapRegions+0xbc>)
  400b5a:	4b2b      	ldr	r3, [pc, #172]	; (400c08 <vPortDefineHeapRegions+0xc0>)
  400b5c:	4798      	blx	r3
		/* Ensure the heap region starts on a correctly aligned boundary. */
		xAddress = ( size_t ) pxHeapRegion->pucStartAddress;
		if( ( xAddress & portBYTE_ALIGNMENT_MASK ) != 0 )
		{
			xAddress += ( portBYTE_ALIGNMENT - 1 );
			xAddress &= ~portBYTE_ALIGNMENT_MASK;
  400b5e:	4643      	mov	r3, r8
  400b60:	2600      	movs	r6, #0
  400b62:	4637      	mov	r7, r6
  400b64:	e01b      	b.n	400b9e <vPortDefineHeapRegions+0x56>
		}
		else
		{
			/* Should only get here if one region has already been added to the
			heap. */
			configASSERT( pxEnd != NULL );
  400b66:	4b26      	ldr	r3, [pc, #152]	; (400c00 <vPortDefineHeapRegions+0xb8>)
  400b68:	681b      	ldr	r3, [r3, #0]
  400b6a:	b35b      	cbz	r3, 400bc4 <vPortDefineHeapRegions+0x7c>

			/* Check blocks are passed in with increasing start addresses. */
			configASSERT( xAddress > ( size_t ) pxEnd );
  400b6c:	4b24      	ldr	r3, [pc, #144]	; (400c00 <vPortDefineHeapRegions+0xb8>)
  400b6e:	681b      	ldr	r3, [r3, #0]
  400b70:	429d      	cmp	r5, r3
  400b72:	d92d      	bls.n	400bd0 <vPortDefineHeapRegions+0x88>
		}

		/* Remember the location of the end marker in the previous region, if
		any. */
		pxPreviousFreeBlock = pxEnd;
  400b74:	4a22      	ldr	r2, [pc, #136]	; (400c00 <vPortDefineHeapRegions+0xb8>)
  400b76:	6811      	ldr	r1, [r2, #0]

		/* pxEnd is used to mark the end of the list of free blocks and is
		inserted at the end of the region space. */
		xAddress = xAlignedHeap + xTotalRegionSize;
  400b78:	1963      	adds	r3, r4, r5
		xAddress -= xHeapStructSize;
  400b7a:	3b08      	subs	r3, #8
		xAddress &= ~portBYTE_ALIGNMENT_MASK;
  400b7c:	f023 0307 	bic.w	r3, r3, #7
		pxEnd = ( BlockLink_t * ) xAddress;
  400b80:	6013      	str	r3, [r2, #0]
		pxEnd->xBlockSize = 0;
  400b82:	2200      	movs	r2, #0
  400b84:	605a      	str	r2, [r3, #4]
		pxEnd->pxNextFreeBlock = NULL;
  400b86:	601a      	str	r2, [r3, #0]

		/* To start with there is a single free block in this region that is
		sized to take up the entire heap region minus the space taken by the
		free block structure. */
		pxFirstFreeBlockInRegion = ( BlockLink_t * ) xAlignedHeap;
  400b88:	462a      	mov	r2, r5
		pxFirstFreeBlockInRegion->xBlockSize = xAddress - ( size_t ) pxFirstFreeBlockInRegion;
  400b8a:	1b58      	subs	r0, r3, r5
  400b8c:	6068      	str	r0, [r5, #4]
		pxFirstFreeBlockInRegion->pxNextFreeBlock = pxEnd;
  400b8e:	602b      	str	r3, [r5, #0]

		/* If this is not the first region that makes up the entire heap space
		then link the previous region to this region. */
		if( pxPreviousFreeBlock != NULL )
  400b90:	b101      	cbz	r1, 400b94 <vPortDefineHeapRegions+0x4c>
		{
			pxPreviousFreeBlock->pxNextFreeBlock = pxFirstFreeBlockInRegion;
  400b92:	600d      	str	r5, [r1, #0]
		}

		xTotalHeapSize += pxFirstFreeBlockInRegion->xBlockSize;
  400b94:	6853      	ldr	r3, [r2, #4]
  400b96:	441f      	add	r7, r3

		/* Move onto the next HeapRegion_t structure. */
		xDefinedRegions++;
  400b98:	3601      	adds	r6, #1
		pxHeapRegion = &( pxHeapRegions[ xDefinedRegions ] );
  400b9a:	eb08 03c6 	add.w	r3, r8, r6, lsl #3
	while( pxHeapRegion->xSizeInBytes > 0 )
  400b9e:	685c      	ldr	r4, [r3, #4]
  400ba0:	b1e4      	cbz	r4, 400bdc <vPortDefineHeapRegions+0x94>
		xAddress = ( size_t ) pxHeapRegion->pucStartAddress;
  400ba2:	681d      	ldr	r5, [r3, #0]
		if( ( xAddress & portBYTE_ALIGNMENT_MASK ) != 0 )
  400ba4:	f015 0f07 	tst.w	r5, #7
  400ba8:	d005      	beq.n	400bb6 <vPortDefineHeapRegions+0x6e>
			xAddress += ( portBYTE_ALIGNMENT - 1 );
  400baa:	1deb      	adds	r3, r5, #7
			xAddress &= ~portBYTE_ALIGNMENT_MASK;
  400bac:	f023 0307 	bic.w	r3, r3, #7
			xTotalRegionSize -= xAddress - ( size_t ) pxHeapRegion->pucStartAddress;
  400bb0:	1aed      	subs	r5, r5, r3
  400bb2:	442c      	add	r4, r5
			xAddress &= ~portBYTE_ALIGNMENT_MASK;
  400bb4:	461d      	mov	r5, r3
		if( xDefinedRegions == 0 )
  400bb6:	2e00      	cmp	r6, #0
  400bb8:	d1d5      	bne.n	400b66 <vPortDefineHeapRegions+0x1e>
			xStart.pxNextFreeBlock = ( BlockLink_t * ) xAlignedHeap;
  400bba:	4b14      	ldr	r3, [pc, #80]	; (400c0c <vPortDefineHeapRegions+0xc4>)
  400bbc:	601d      	str	r5, [r3, #0]
			xStart.xBlockSize = ( size_t ) 0;
  400bbe:	2200      	movs	r2, #0
  400bc0:	605a      	str	r2, [r3, #4]
  400bc2:	e7d7      	b.n	400b74 <vPortDefineHeapRegions+0x2c>
			configASSERT( pxEnd != NULL );
  400bc4:	f44f 71da 	mov.w	r1, #436	; 0x1b4
  400bc8:	480e      	ldr	r0, [pc, #56]	; (400c04 <vPortDefineHeapRegions+0xbc>)
  400bca:	4b0f      	ldr	r3, [pc, #60]	; (400c08 <vPortDefineHeapRegions+0xc0>)
  400bcc:	4798      	blx	r3
  400bce:	e7cd      	b.n	400b6c <vPortDefineHeapRegions+0x24>
			configASSERT( xAddress > ( size_t ) pxEnd );
  400bd0:	f240 11b7 	movw	r1, #439	; 0x1b7
  400bd4:	480b      	ldr	r0, [pc, #44]	; (400c04 <vPortDefineHeapRegions+0xbc>)
  400bd6:	4b0c      	ldr	r3, [pc, #48]	; (400c08 <vPortDefineHeapRegions+0xc0>)
  400bd8:	4798      	blx	r3
  400bda:	e7cb      	b.n	400b74 <vPortDefineHeapRegions+0x2c>
	}

	xMinimumEverFreeBytesRemaining = xTotalHeapSize;
  400bdc:	4b0c      	ldr	r3, [pc, #48]	; (400c10 <vPortDefineHeapRegions+0xc8>)
  400bde:	601f      	str	r7, [r3, #0]
	xFreeBytesRemaining = xTotalHeapSize;
  400be0:	4b0c      	ldr	r3, [pc, #48]	; (400c14 <vPortDefineHeapRegions+0xcc>)
  400be2:	601f      	str	r7, [r3, #0]

	/* Check something was actually defined before it is accessed. */
	configASSERT( xTotalHeapSize );
  400be4:	b12f      	cbz	r7, 400bf2 <vPortDefineHeapRegions+0xaa>

	/* Work out the position of the top bit in a size_t variable. */
	xBlockAllocatedBit = ( ( size_t ) 1 ) << ( ( sizeof( size_t ) * heapBITS_PER_BYTE ) - 1 );
  400be6:	f04f 4200 	mov.w	r2, #2147483648	; 0x80000000
  400bea:	4b0b      	ldr	r3, [pc, #44]	; (400c18 <vPortDefineHeapRegions+0xd0>)
  400bec:	601a      	str	r2, [r3, #0]
  400bee:	e8bd 81f0 	ldmia.w	sp!, {r4, r5, r6, r7, r8, pc}
	configASSERT( xTotalHeapSize );
  400bf2:	f44f 71f0 	mov.w	r1, #480	; 0x1e0
  400bf6:	4803      	ldr	r0, [pc, #12]	; (400c04 <vPortDefineHeapRegions+0xbc>)
  400bf8:	4b03      	ldr	r3, [pc, #12]	; (400c08 <vPortDefineHeapRegions+0xc0>)
  400bfa:	4798      	blx	r3
  400bfc:	e7f3      	b.n	400be6 <vPortDefineHeapRegions+0x9e>
  400bfe:	bf00      	nop
  400c00:	200004e8 	.word	0x200004e8
  400c04:	004033e4 	.word	0x004033e4
  400c08:	00403021 	.word	0x00403021
  400c0c:	200004f8 	.word	0x200004f8
  400c10:	200004f4 	.word	0x200004f4
  400c14:	200004f0 	.word	0x200004f0
  400c18:	200004ec 	.word	0x200004ec

00400c1c <prvIsQueueFull>:
	return xReturn;
} /*lint !e818 xQueue could not be pointer to const because it is a typedef. */
/*-----------------------------------------------------------*/

static BaseType_t prvIsQueueFull( const Queue_t *pxQueue )
{
  400c1c:	b510      	push	{r4, lr}
  400c1e:	4604      	mov	r4, r0
BaseType_t xReturn;

	taskENTER_CRITICAL();
  400c20:	4b06      	ldr	r3, [pc, #24]	; (400c3c <prvIsQueueFull+0x20>)
  400c22:	4798      	blx	r3
	{
		if( pxQueue->uxMessagesWaiting == pxQueue->uxLength )
  400c24:	6ba2      	ldr	r2, [r4, #56]	; 0x38
  400c26:	6be3      	ldr	r3, [r4, #60]	; 0x3c
  400c28:	429a      	cmp	r2, r3
  400c2a:	d004      	beq.n	400c36 <prvIsQueueFull+0x1a>
		{
			xReturn = pdTRUE;
		}
		else
		{
			xReturn = pdFALSE;
  400c2c:	2400      	movs	r4, #0
		}
	}
	taskEXIT_CRITICAL();
  400c2e:	4b04      	ldr	r3, [pc, #16]	; (400c40 <prvIsQueueFull+0x24>)
  400c30:	4798      	blx	r3

	return xReturn;
}
  400c32:	4620      	mov	r0, r4
  400c34:	bd10      	pop	{r4, pc}
			xReturn = pdTRUE;
  400c36:	2401      	movs	r4, #1
  400c38:	e7f9      	b.n	400c2e <prvIsQueueFull+0x12>
  400c3a:	bf00      	nop
  400c3c:	004006c5 	.word	0x004006c5
  400c40:	0040070d 	.word	0x0040070d

00400c44 <prvIsQueueEmpty>:
{
  400c44:	b510      	push	{r4, lr}
  400c46:	4604      	mov	r4, r0
	taskENTER_CRITICAL();
  400c48:	4b05      	ldr	r3, [pc, #20]	; (400c60 <prvIsQueueEmpty+0x1c>)
  400c4a:	4798      	blx	r3
		if( pxQueue->uxMessagesWaiting == ( UBaseType_t )  0 )
  400c4c:	6ba3      	ldr	r3, [r4, #56]	; 0x38
  400c4e:	b123      	cbz	r3, 400c5a <prvIsQueueEmpty+0x16>
			xReturn = pdFALSE;
  400c50:	2400      	movs	r4, #0
	taskEXIT_CRITICAL();
  400c52:	4b04      	ldr	r3, [pc, #16]	; (400c64 <prvIsQueueEmpty+0x20>)
  400c54:	4798      	blx	r3
}
  400c56:	4620      	mov	r0, r4
  400c58:	bd10      	pop	{r4, pc}
			xReturn = pdTRUE;
  400c5a:	2401      	movs	r4, #1
  400c5c:	e7f9      	b.n	400c52 <prvIsQueueEmpty+0xe>
  400c5e:	bf00      	nop
  400c60:	004006c5 	.word	0x004006c5
  400c64:	0040070d 	.word	0x0040070d

00400c68 <prvCopyDataToQueue>:
{
  400c68:	b570      	push	{r4, r5, r6, lr}
  400c6a:	4604      	mov	r4, r0
  400c6c:	4616      	mov	r6, r2
	uxMessagesWaiting = pxQueue->uxMessagesWaiting;
  400c6e:	6b85      	ldr	r5, [r0, #56]	; 0x38
	if( pxQueue->uxItemSize == ( UBaseType_t ) 0 )
  400c70:	6c02      	ldr	r2, [r0, #64]	; 0x40
  400c72:	b95a      	cbnz	r2, 400c8c <prvCopyDataToQueue+0x24>
			if( pxQueue->uxQueueType == queueQUEUE_IS_MUTEX )
  400c74:	6803      	ldr	r3, [r0, #0]
  400c76:	b11b      	cbz	r3, 400c80 <prvCopyDataToQueue+0x18>
BaseType_t xReturn = pdFALSE;
  400c78:	2000      	movs	r0, #0
	pxQueue->uxMessagesWaiting = uxMessagesWaiting + ( UBaseType_t ) 1;
  400c7a:	3501      	adds	r5, #1
  400c7c:	63a5      	str	r5, [r4, #56]	; 0x38
}
  400c7e:	bd70      	pop	{r4, r5, r6, pc}
				xReturn = xTaskPriorityDisinherit( pxQueue->u.xSemaphore.xMutexHolder );
  400c80:	6880      	ldr	r0, [r0, #8]
  400c82:	4b17      	ldr	r3, [pc, #92]	; (400ce0 <prvCopyDataToQueue+0x78>)
  400c84:	4798      	blx	r3
				pxQueue->u.xSemaphore.xMutexHolder = NULL;
  400c86:	2300      	movs	r3, #0
  400c88:	60a3      	str	r3, [r4, #8]
  400c8a:	e7f6      	b.n	400c7a <prvCopyDataToQueue+0x12>
	else if( xPosition == queueSEND_TO_BACK )
  400c8c:	b96e      	cbnz	r6, 400caa <prvCopyDataToQueue+0x42>
		( void ) memcpy( ( void * ) pxQueue->pcWriteTo, pvItemToQueue, ( size_t ) pxQueue->uxItemSize ); /*lint !e961 !e418 !e9087 MISRA exception as the casts are only redundant for some ports, plus previous logic ensures a null pointer can only be passed to memcpy() if the copy size is 0.  Cast to void required by function signature and safe as no alignment requirement and copy length specified in bytes. */
  400c8e:	6840      	ldr	r0, [r0, #4]
  400c90:	4b14      	ldr	r3, [pc, #80]	; (400ce4 <prvCopyDataToQueue+0x7c>)
  400c92:	4798      	blx	r3
		pxQueue->pcWriteTo += pxQueue->uxItemSize; /*lint !e9016 Pointer arithmetic on char types ok, especially in this use case where it is the clearest way of conveying intent. */
  400c94:	6c22      	ldr	r2, [r4, #64]	; 0x40
  400c96:	6863      	ldr	r3, [r4, #4]
  400c98:	4413      	add	r3, r2
  400c9a:	6063      	str	r3, [r4, #4]
		if( pxQueue->pcWriteTo >= pxQueue->u.xQueue.pcTail ) /*lint !e946 MISRA exception justified as comparison of pointers is the cleanest solution. */
  400c9c:	68a2      	ldr	r2, [r4, #8]
  400c9e:	4293      	cmp	r3, r2
  400ca0:	d319      	bcc.n	400cd6 <prvCopyDataToQueue+0x6e>
			pxQueue->pcWriteTo = pxQueue->pcHead;
  400ca2:	6823      	ldr	r3, [r4, #0]
  400ca4:	6063      	str	r3, [r4, #4]
BaseType_t xReturn = pdFALSE;
  400ca6:	2000      	movs	r0, #0
  400ca8:	e7e7      	b.n	400c7a <prvCopyDataToQueue+0x12>
		( void ) memcpy( ( void * ) pxQueue->u.xQueue.pcReadFrom, pvItemToQueue, ( size_t ) pxQueue->uxItemSize ); /*lint !e961 !e9087 !e418 MISRA exception as the casts are only redundant for some ports.  Cast to void required by function signature and safe as no alignment requirement and copy length specified in bytes.  Assert checks null pointer only used when length is 0. */
  400caa:	68c0      	ldr	r0, [r0, #12]
  400cac:	4b0d      	ldr	r3, [pc, #52]	; (400ce4 <prvCopyDataToQueue+0x7c>)
  400cae:	4798      	blx	r3
		pxQueue->u.xQueue.pcReadFrom -= pxQueue->uxItemSize;
  400cb0:	6c22      	ldr	r2, [r4, #64]	; 0x40
  400cb2:	4252      	negs	r2, r2
  400cb4:	68e3      	ldr	r3, [r4, #12]
  400cb6:	4413      	add	r3, r2
  400cb8:	60e3      	str	r3, [r4, #12]
		if( pxQueue->u.xQueue.pcReadFrom < pxQueue->pcHead ) /*lint !e946 MISRA exception justified as comparison of pointers is the cleanest solution. */
  400cba:	6821      	ldr	r1, [r4, #0]
  400cbc:	428b      	cmp	r3, r1
  400cbe:	d202      	bcs.n	400cc6 <prvCopyDataToQueue+0x5e>
			pxQueue->u.xQueue.pcReadFrom = ( pxQueue->u.xQueue.pcTail - pxQueue->uxItemSize );
  400cc0:	68a3      	ldr	r3, [r4, #8]
  400cc2:	441a      	add	r2, r3
  400cc4:	60e2      	str	r2, [r4, #12]
		if( xPosition == queueOVERWRITE )
  400cc6:	2e02      	cmp	r6, #2
  400cc8:	d001      	beq.n	400cce <prvCopyDataToQueue+0x66>
BaseType_t xReturn = pdFALSE;
  400cca:	2000      	movs	r0, #0
  400ccc:	e7d5      	b.n	400c7a <prvCopyDataToQueue+0x12>
			if( uxMessagesWaiting > ( UBaseType_t ) 0 )
  400cce:	b125      	cbz	r5, 400cda <prvCopyDataToQueue+0x72>
				--uxMessagesWaiting;
  400cd0:	3d01      	subs	r5, #1
BaseType_t xReturn = pdFALSE;
  400cd2:	2000      	movs	r0, #0
  400cd4:	e7d1      	b.n	400c7a <prvCopyDataToQueue+0x12>
  400cd6:	2000      	movs	r0, #0
  400cd8:	e7cf      	b.n	400c7a <prvCopyDataToQueue+0x12>
  400cda:	2000      	movs	r0, #0
  400cdc:	e7cd      	b.n	400c7a <prvCopyDataToQueue+0x12>
  400cde:	bf00      	nop
  400ce0:	00401e15 	.word	0x00401e15
  400ce4:	004030c5 	.word	0x004030c5

00400ce8 <prvNotifyQueueSetContainer>:
/*-----------------------------------------------------------*/

#if ( configUSE_QUEUE_SETS == 1 )

	static BaseType_t prvNotifyQueueSetContainer( const Queue_t * const pxQueue, const BaseType_t xCopyPosition )
	{
  400ce8:	b570      	push	{r4, r5, r6, lr}
  400cea:	b082      	sub	sp, #8
  400cec:	9001      	str	r0, [sp, #4]
  400cee:	460e      	mov	r6, r1
	Queue_t *pxQueueSetContainer = pxQueue->pxQueueSetContainer;
  400cf0:	6c84      	ldr	r4, [r0, #72]	; 0x48
	BaseType_t xReturn = pdFALSE;

		/* This function must be called form a critical section. */

		configASSERT( pxQueueSetContainer );
  400cf2:	b15c      	cbz	r4, 400d0c <prvNotifyQueueSetContainer+0x24>
		configASSERT( pxQueueSetContainer->uxMessagesWaiting < pxQueueSetContainer->uxLength );
  400cf4:	6ba2      	ldr	r2, [r4, #56]	; 0x38
  400cf6:	6be3      	ldr	r3, [r4, #60]	; 0x3c
  400cf8:	429a      	cmp	r2, r3
  400cfa:	d20d      	bcs.n	400d18 <prvNotifyQueueSetContainer+0x30>

		if( pxQueueSetContainer->uxMessagesWaiting < pxQueueSetContainer->uxLength )
  400cfc:	6ba2      	ldr	r2, [r4, #56]	; 0x38
  400cfe:	6be3      	ldr	r3, [r4, #60]	; 0x3c
  400d00:	429a      	cmp	r2, r3
  400d02:	d30f      	bcc.n	400d24 <prvNotifyQueueSetContainer+0x3c>
	BaseType_t xReturn = pdFALSE;
  400d04:	2600      	movs	r6, #0
		{
			mtCOVERAGE_TEST_MARKER();
		}

		return xReturn;
	}
  400d06:	4630      	mov	r0, r6
  400d08:	b002      	add	sp, #8
  400d0a:	bd70      	pop	{r4, r5, r6, pc}
		configASSERT( pxQueueSetContainer );
  400d0c:	f640 3145 	movw	r1, #2885	; 0xb45
  400d10:	4812      	ldr	r0, [pc, #72]	; (400d5c <prvNotifyQueueSetContainer+0x74>)
  400d12:	4b13      	ldr	r3, [pc, #76]	; (400d60 <prvNotifyQueueSetContainer+0x78>)
  400d14:	4798      	blx	r3
  400d16:	e7ed      	b.n	400cf4 <prvNotifyQueueSetContainer+0xc>
		configASSERT( pxQueueSetContainer->uxMessagesWaiting < pxQueueSetContainer->uxLength );
  400d18:	f640 3146 	movw	r1, #2886	; 0xb46
  400d1c:	480f      	ldr	r0, [pc, #60]	; (400d5c <prvNotifyQueueSetContainer+0x74>)
  400d1e:	4b10      	ldr	r3, [pc, #64]	; (400d60 <prvNotifyQueueSetContainer+0x78>)
  400d20:	4798      	blx	r3
  400d22:	e7eb      	b.n	400cfc <prvNotifyQueueSetContainer+0x14>
			const int8_t cTxLock = pxQueueSetContainer->cTxLock;
  400d24:	f894 5045 	ldrb.w	r5, [r4, #69]	; 0x45
  400d28:	b26d      	sxtb	r5, r5
			xReturn = prvCopyDataToQueue( pxQueueSetContainer, &pxQueue, xCopyPosition );
  400d2a:	4632      	mov	r2, r6
  400d2c:	a901      	add	r1, sp, #4
  400d2e:	4620      	mov	r0, r4
  400d30:	4b0c      	ldr	r3, [pc, #48]	; (400d64 <prvNotifyQueueSetContainer+0x7c>)
  400d32:	4798      	blx	r3
  400d34:	4606      	mov	r6, r0
			if( cTxLock == queueUNLOCKED )
  400d36:	f1b5 3fff 	cmp.w	r5, #4294967295
  400d3a:	d004      	beq.n	400d46 <prvNotifyQueueSetContainer+0x5e>
				pxQueueSetContainer->cTxLock = ( int8_t ) ( cTxLock + 1 );
  400d3c:	3501      	adds	r5, #1
  400d3e:	b26d      	sxtb	r5, r5
  400d40:	f884 5045 	strb.w	r5, [r4, #69]	; 0x45
  400d44:	e7df      	b.n	400d06 <prvNotifyQueueSetContainer+0x1e>
				if( listLIST_IS_EMPTY( &( pxQueueSetContainer->xTasksWaitingToReceive ) ) == pdFALSE )
  400d46:	6a63      	ldr	r3, [r4, #36]	; 0x24
  400d48:	2b00      	cmp	r3, #0
  400d4a:	d0dc      	beq.n	400d06 <prvNotifyQueueSetContainer+0x1e>
					if( xTaskRemoveFromEventList( &( pxQueueSetContainer->xTasksWaitingToReceive ) ) != pdFALSE )
  400d4c:	f104 0024 	add.w	r0, r4, #36	; 0x24
  400d50:	4b05      	ldr	r3, [pc, #20]	; (400d68 <prvNotifyQueueSetContainer+0x80>)
  400d52:	4798      	blx	r3
  400d54:	2800      	cmp	r0, #0
  400d56:	d0d6      	beq.n	400d06 <prvNotifyQueueSetContainer+0x1e>
						xReturn = pdTRUE;
  400d58:	2601      	movs	r6, #1
		return xReturn;
  400d5a:	e7d4      	b.n	400d06 <prvNotifyQueueSetContainer+0x1e>
  400d5c:	00403410 	.word	0x00403410
  400d60:	00403021 	.word	0x00403021
  400d64:	00400c69 	.word	0x00400c69
  400d68:	00401cb5 	.word	0x00401cb5

00400d6c <prvCopyDataFromQueue>:
	if( pxQueue->uxItemSize != ( UBaseType_t ) 0 )
  400d6c:	6c02      	ldr	r2, [r0, #64]	; 0x40
  400d6e:	b172      	cbz	r2, 400d8e <prvCopyDataFromQueue+0x22>
{
  400d70:	b510      	push	{r4, lr}
		pxQueue->u.xQueue.pcReadFrom += pxQueue->uxItemSize; /*lint !e9016 Pointer arithmetic on char types ok, especially in this use case where it is the clearest way of conveying intent. */
  400d72:	68c3      	ldr	r3, [r0, #12]
  400d74:	4413      	add	r3, r2
  400d76:	60c3      	str	r3, [r0, #12]
		if( pxQueue->u.xQueue.pcReadFrom >= pxQueue->u.xQueue.pcTail ) /*lint !e946 MISRA exception justified as use of the relational operator is the cleanest solutions. */
  400d78:	6884      	ldr	r4, [r0, #8]
  400d7a:	42a3      	cmp	r3, r4
  400d7c:	d301      	bcc.n	400d82 <prvCopyDataFromQueue+0x16>
			pxQueue->u.xQueue.pcReadFrom = pxQueue->pcHead;
  400d7e:	6803      	ldr	r3, [r0, #0]
  400d80:	60c3      	str	r3, [r0, #12]
  400d82:	460c      	mov	r4, r1
		( void ) memcpy( ( void * ) pvBuffer, ( void * ) pxQueue->u.xQueue.pcReadFrom, ( size_t ) pxQueue->uxItemSize ); /*lint !e961 !e418 !e9087 MISRA exception as the casts are only redundant for some ports.  Also previous logic ensures a null pointer can only be passed to memcpy() when the count is 0.  Cast to void required by function signature and safe as no alignment requirement and copy length specified in bytes. */
  400d84:	68c1      	ldr	r1, [r0, #12]
  400d86:	4620      	mov	r0, r4
  400d88:	4b01      	ldr	r3, [pc, #4]	; (400d90 <prvCopyDataFromQueue+0x24>)
  400d8a:	4798      	blx	r3
  400d8c:	bd10      	pop	{r4, pc}
  400d8e:	4770      	bx	lr
  400d90:	004030c5 	.word	0x004030c5

00400d94 <prvUnlockQueue>:
{
  400d94:	b538      	push	{r3, r4, r5, lr}
  400d96:	4605      	mov	r5, r0
	taskENTER_CRITICAL();
  400d98:	4b1f      	ldr	r3, [pc, #124]	; (400e18 <prvUnlockQueue+0x84>)
  400d9a:	4798      	blx	r3
		int8_t cTxLock = pxQueue->cTxLock;
  400d9c:	f895 4045 	ldrb.w	r4, [r5, #69]	; 0x45
  400da0:	b264      	sxtb	r4, r4
		while( cTxLock > queueLOCKED_UNMODIFIED )
  400da2:	e008      	b.n	400db6 <prvUnlockQueue+0x22>
					if( listLIST_IS_EMPTY( &( pxQueue->xTasksWaitingToReceive ) ) == pdFALSE )
  400da4:	6a6b      	ldr	r3, [r5, #36]	; 0x24
  400da6:	b1bb      	cbz	r3, 400dd8 <prvUnlockQueue+0x44>
						if( xTaskRemoveFromEventList( &( pxQueue->xTasksWaitingToReceive ) ) != pdFALSE )
  400da8:	f105 0024 	add.w	r0, r5, #36	; 0x24
  400dac:	4b1b      	ldr	r3, [pc, #108]	; (400e1c <prvUnlockQueue+0x88>)
  400dae:	4798      	blx	r3
  400db0:	b978      	cbnz	r0, 400dd2 <prvUnlockQueue+0x3e>
			--cTxLock;
  400db2:	3c01      	subs	r4, #1
  400db4:	b264      	sxtb	r4, r4
		while( cTxLock > queueLOCKED_UNMODIFIED )
  400db6:	2c00      	cmp	r4, #0
  400db8:	dd0e      	ble.n	400dd8 <prvUnlockQueue+0x44>
				if( pxQueue->pxQueueSetContainer != NULL )
  400dba:	6cab      	ldr	r3, [r5, #72]	; 0x48
  400dbc:	2b00      	cmp	r3, #0
  400dbe:	d0f1      	beq.n	400da4 <prvUnlockQueue+0x10>
					if( prvNotifyQueueSetContainer( pxQueue, queueSEND_TO_BACK ) != pdFALSE )
  400dc0:	2100      	movs	r1, #0
  400dc2:	4628      	mov	r0, r5
  400dc4:	4b16      	ldr	r3, [pc, #88]	; (400e20 <prvUnlockQueue+0x8c>)
  400dc6:	4798      	blx	r3
  400dc8:	2800      	cmp	r0, #0
  400dca:	d0f2      	beq.n	400db2 <prvUnlockQueue+0x1e>
						vTaskMissedYield();
  400dcc:	4b15      	ldr	r3, [pc, #84]	; (400e24 <prvUnlockQueue+0x90>)
  400dce:	4798      	blx	r3
  400dd0:	e7ef      	b.n	400db2 <prvUnlockQueue+0x1e>
							vTaskMissedYield();
  400dd2:	4b14      	ldr	r3, [pc, #80]	; (400e24 <prvUnlockQueue+0x90>)
  400dd4:	4798      	blx	r3
  400dd6:	e7ec      	b.n	400db2 <prvUnlockQueue+0x1e>
		pxQueue->cTxLock = queueUNLOCKED;
  400dd8:	23ff      	movs	r3, #255	; 0xff
  400dda:	f885 3045 	strb.w	r3, [r5, #69]	; 0x45
	taskEXIT_CRITICAL();
  400dde:	4b12      	ldr	r3, [pc, #72]	; (400e28 <prvUnlockQueue+0x94>)
  400de0:	4798      	blx	r3
	taskENTER_CRITICAL();
  400de2:	4b0d      	ldr	r3, [pc, #52]	; (400e18 <prvUnlockQueue+0x84>)
  400de4:	4798      	blx	r3
		int8_t cRxLock = pxQueue->cRxLock;
  400de6:	f895 4044 	ldrb.w	r4, [r5, #68]	; 0x44
  400dea:	b264      	sxtb	r4, r4
		while( cRxLock > queueLOCKED_UNMODIFIED )
  400dec:	e001      	b.n	400df2 <prvUnlockQueue+0x5e>
				--cRxLock;
  400dee:	3c01      	subs	r4, #1
  400df0:	b264      	sxtb	r4, r4
		while( cRxLock > queueLOCKED_UNMODIFIED )
  400df2:	2c00      	cmp	r4, #0
  400df4:	dd0a      	ble.n	400e0c <prvUnlockQueue+0x78>
			if( listLIST_IS_EMPTY( &( pxQueue->xTasksWaitingToSend ) ) == pdFALSE )
  400df6:	692b      	ldr	r3, [r5, #16]
  400df8:	b143      	cbz	r3, 400e0c <prvUnlockQueue+0x78>
				if( xTaskRemoveFromEventList( &( pxQueue->xTasksWaitingToSend ) ) != pdFALSE )
  400dfa:	f105 0010 	add.w	r0, r5, #16
  400dfe:	4b07      	ldr	r3, [pc, #28]	; (400e1c <prvUnlockQueue+0x88>)
  400e00:	4798      	blx	r3
  400e02:	2800      	cmp	r0, #0
  400e04:	d0f3      	beq.n	400dee <prvUnlockQueue+0x5a>
					vTaskMissedYield();
  400e06:	4b07      	ldr	r3, [pc, #28]	; (400e24 <prvUnlockQueue+0x90>)
  400e08:	4798      	blx	r3
  400e0a:	e7f0      	b.n	400dee <prvUnlockQueue+0x5a>
		pxQueue->cRxLock = queueUNLOCKED;
  400e0c:	23ff      	movs	r3, #255	; 0xff
  400e0e:	f885 3044 	strb.w	r3, [r5, #68]	; 0x44
	taskEXIT_CRITICAL();
  400e12:	4b05      	ldr	r3, [pc, #20]	; (400e28 <prvUnlockQueue+0x94>)
  400e14:	4798      	blx	r3
  400e16:	bd38      	pop	{r3, r4, r5, pc}
  400e18:	004006c5 	.word	0x004006c5
  400e1c:	00401cb5 	.word	0x00401cb5
  400e20:	00400ce9 	.word	0x00400ce9
  400e24:	00401de9 	.word	0x00401de9
  400e28:	0040070d 	.word	0x0040070d

00400e2c <xQueueGenericReset>:
{
  400e2c:	b538      	push	{r3, r4, r5, lr}
  400e2e:	460d      	mov	r5, r1
	configASSERT( pxQueue );
  400e30:	4604      	mov	r4, r0
  400e32:	b1d0      	cbz	r0, 400e6a <xQueueGenericReset+0x3e>
	taskENTER_CRITICAL();
  400e34:	4b1b      	ldr	r3, [pc, #108]	; (400ea4 <xQueueGenericReset+0x78>)
  400e36:	4798      	blx	r3
		pxQueue->u.xQueue.pcTail = pxQueue->pcHead + ( pxQueue->uxLength * pxQueue->uxItemSize ); /*lint !e9016 Pointer arithmetic allowed on char types, especially when it assists conveying intent. */
  400e38:	6821      	ldr	r1, [r4, #0]
  400e3a:	6be2      	ldr	r2, [r4, #60]	; 0x3c
  400e3c:	6c23      	ldr	r3, [r4, #64]	; 0x40
  400e3e:	fb03 1002 	mla	r0, r3, r2, r1
  400e42:	60a0      	str	r0, [r4, #8]
		pxQueue->uxMessagesWaiting = ( UBaseType_t ) 0U;
  400e44:	2000      	movs	r0, #0
  400e46:	63a0      	str	r0, [r4, #56]	; 0x38
		pxQueue->pcWriteTo = pxQueue->pcHead;
  400e48:	6061      	str	r1, [r4, #4]
		pxQueue->u.xQueue.pcReadFrom = pxQueue->pcHead + ( ( pxQueue->uxLength - 1U ) * pxQueue->uxItemSize ); /*lint !e9016 Pointer arithmetic allowed on char types, especially when it assists conveying intent. */
  400e4a:	3a01      	subs	r2, #1
  400e4c:	fb02 1303 	mla	r3, r2, r3, r1
  400e50:	60e3      	str	r3, [r4, #12]
		pxQueue->cRxLock = queueUNLOCKED;
  400e52:	23ff      	movs	r3, #255	; 0xff
  400e54:	f884 3044 	strb.w	r3, [r4, #68]	; 0x44
		pxQueue->cTxLock = queueUNLOCKED;
  400e58:	f884 3045 	strb.w	r3, [r4, #69]	; 0x45
		if( xNewQueue == pdFALSE )
  400e5c:	b9d5      	cbnz	r5, 400e94 <xQueueGenericReset+0x68>
			if( listLIST_IS_EMPTY( &( pxQueue->xTasksWaitingToSend ) ) == pdFALSE )
  400e5e:	6923      	ldr	r3, [r4, #16]
  400e60:	b94b      	cbnz	r3, 400e76 <xQueueGenericReset+0x4a>
	taskEXIT_CRITICAL();
  400e62:	4b11      	ldr	r3, [pc, #68]	; (400ea8 <xQueueGenericReset+0x7c>)
  400e64:	4798      	blx	r3
}
  400e66:	2001      	movs	r0, #1
  400e68:	bd38      	pop	{r3, r4, r5, pc}
	configASSERT( pxQueue );
  400e6a:	f240 1103 	movw	r1, #259	; 0x103
  400e6e:	480f      	ldr	r0, [pc, #60]	; (400eac <xQueueGenericReset+0x80>)
  400e70:	4b0f      	ldr	r3, [pc, #60]	; (400eb0 <xQueueGenericReset+0x84>)
  400e72:	4798      	blx	r3
  400e74:	e7de      	b.n	400e34 <xQueueGenericReset+0x8>
				if( xTaskRemoveFromEventList( &( pxQueue->xTasksWaitingToSend ) ) != pdFALSE )
  400e76:	f104 0010 	add.w	r0, r4, #16
  400e7a:	4b0e      	ldr	r3, [pc, #56]	; (400eb4 <xQueueGenericReset+0x88>)
  400e7c:	4798      	blx	r3
  400e7e:	2800      	cmp	r0, #0
  400e80:	d0ef      	beq.n	400e62 <xQueueGenericReset+0x36>
					queueYIELD_IF_USING_PREEMPTION();
  400e82:	f04f 5280 	mov.w	r2, #268435456	; 0x10000000
  400e86:	4b0c      	ldr	r3, [pc, #48]	; (400eb8 <xQueueGenericReset+0x8c>)
  400e88:	601a      	str	r2, [r3, #0]
  400e8a:	f3bf 8f4f 	dsb	sy
  400e8e:	f3bf 8f6f 	isb	sy
  400e92:	e7e6      	b.n	400e62 <xQueueGenericReset+0x36>
			vListInitialise( &( pxQueue->xTasksWaitingToSend ) );
  400e94:	f104 0010 	add.w	r0, r4, #16
  400e98:	4d08      	ldr	r5, [pc, #32]	; (400ebc <xQueueGenericReset+0x90>)
  400e9a:	47a8      	blx	r5
			vListInitialise( &( pxQueue->xTasksWaitingToReceive ) );
  400e9c:	f104 0024 	add.w	r0, r4, #36	; 0x24
  400ea0:	47a8      	blx	r5
  400ea2:	e7de      	b.n	400e62 <xQueueGenericReset+0x36>
  400ea4:	004006c5 	.word	0x004006c5
  400ea8:	0040070d 	.word	0x0040070d
  400eac:	00403410 	.word	0x00403410
  400eb0:	00403021 	.word	0x00403021
  400eb4:	00401cb5 	.word	0x00401cb5
  400eb8:	e000ed04 	.word	0xe000ed04
  400ebc:	0040055d 	.word	0x0040055d

00400ec0 <prvInitialiseNewQueue>:
{
  400ec0:	b538      	push	{r3, r4, r5, lr}
  400ec2:	461d      	mov	r5, r3
  400ec4:	9c04      	ldr	r4, [sp, #16]
	if( uxItemSize == ( UBaseType_t ) 0 )
  400ec6:	460b      	mov	r3, r1
  400ec8:	b159      	cbz	r1, 400ee2 <prvInitialiseNewQueue+0x22>
		pxNewQueue->pcHead = ( int8_t * ) pucQueueStorage;
  400eca:	6022      	str	r2, [r4, #0]
	pxNewQueue->uxLength = uxQueueLength;
  400ecc:	63e0      	str	r0, [r4, #60]	; 0x3c
	pxNewQueue->uxItemSize = uxItemSize;
  400ece:	6423      	str	r3, [r4, #64]	; 0x40
	( void ) xQueueGenericReset( pxNewQueue, pdTRUE );
  400ed0:	2101      	movs	r1, #1
  400ed2:	4620      	mov	r0, r4
  400ed4:	4b04      	ldr	r3, [pc, #16]	; (400ee8 <prvInitialiseNewQueue+0x28>)
  400ed6:	4798      	blx	r3
		pxNewQueue->ucQueueType = ucQueueType;
  400ed8:	f884 5050 	strb.w	r5, [r4, #80]	; 0x50
		pxNewQueue->pxQueueSetContainer = NULL;
  400edc:	2300      	movs	r3, #0
  400ede:	64a3      	str	r3, [r4, #72]	; 0x48
  400ee0:	bd38      	pop	{r3, r4, r5, pc}
		pxNewQueue->pcHead = ( int8_t * ) pxNewQueue;
  400ee2:	6024      	str	r4, [r4, #0]
  400ee4:	e7f2      	b.n	400ecc <prvInitialiseNewQueue+0xc>
  400ee6:	bf00      	nop
  400ee8:	00400e2d 	.word	0x00400e2d

00400eec <xQueueGenericCreate>:
	{
  400eec:	b5f0      	push	{r4, r5, r6, r7, lr}
  400eee:	b083      	sub	sp, #12
  400ef0:	460d      	mov	r5, r1
  400ef2:	4617      	mov	r7, r2
		configASSERT( uxQueueLength > ( UBaseType_t ) 0 );
  400ef4:	4606      	mov	r6, r0
  400ef6:	b190      	cbz	r0, 400f1e <xQueueGenericCreate+0x32>
		if( uxItemSize == ( UBaseType_t ) 0 )
  400ef8:	b1bd      	cbz	r5, 400f2a <xQueueGenericCreate+0x3e>
			xQueueSizeInBytes = ( size_t ) ( uxQueueLength * uxItemSize ); /*lint !e961 MISRA exception as the casts are only redundant for some ports. */
  400efa:	fb05 f006 	mul.w	r0, r5, r6
		pxNewQueue = ( Queue_t * ) pvPortMalloc( sizeof( Queue_t ) + xQueueSizeInBytes ); /*lint !e9087 !e9079 see comment above. */
  400efe:	3054      	adds	r0, #84	; 0x54
  400f00:	4b0b      	ldr	r3, [pc, #44]	; (400f30 <xQueueGenericCreate+0x44>)
  400f02:	4798      	blx	r3
		if( pxNewQueue != NULL )
  400f04:	4604      	mov	r4, r0
  400f06:	b138      	cbz	r0, 400f18 <xQueueGenericCreate+0x2c>
			prvInitialiseNewQueue( uxQueueLength, uxItemSize, pucQueueStorage, ucQueueType, pxNewQueue );
  400f08:	9000      	str	r0, [sp, #0]
  400f0a:	463b      	mov	r3, r7
  400f0c:	f100 0254 	add.w	r2, r0, #84	; 0x54
  400f10:	4629      	mov	r1, r5
  400f12:	4630      	mov	r0, r6
  400f14:	4d07      	ldr	r5, [pc, #28]	; (400f34 <xQueueGenericCreate+0x48>)
  400f16:	47a8      	blx	r5
	}
  400f18:	4620      	mov	r0, r4
  400f1a:	b003      	add	sp, #12
  400f1c:	bdf0      	pop	{r4, r5, r6, r7, pc}
		configASSERT( uxQueueLength > ( UBaseType_t ) 0 );
  400f1e:	f44f 71bb 	mov.w	r1, #374	; 0x176
  400f22:	4805      	ldr	r0, [pc, #20]	; (400f38 <xQueueGenericCreate+0x4c>)
  400f24:	4b05      	ldr	r3, [pc, #20]	; (400f3c <xQueueGenericCreate+0x50>)
  400f26:	4798      	blx	r3
  400f28:	e7e6      	b.n	400ef8 <xQueueGenericCreate+0xc>
			xQueueSizeInBytes = ( size_t ) 0;
  400f2a:	2000      	movs	r0, #0
  400f2c:	e7e7      	b.n	400efe <xQueueGenericCreate+0x12>
  400f2e:	bf00      	nop
  400f30:	004009d9 	.word	0x004009d9
  400f34:	00400ec1 	.word	0x00400ec1
  400f38:	00403410 	.word	0x00403410
  400f3c:	00403021 	.word	0x00403021

00400f40 <xQueueGenericSend>:
{
  400f40:	b5f0      	push	{r4, r5, r6, r7, lr}
  400f42:	b085      	sub	sp, #20
  400f44:	460f      	mov	r7, r1
  400f46:	9201      	str	r2, [sp, #4]
  400f48:	461e      	mov	r6, r3
	configASSERT( pxQueue );
  400f4a:	4604      	mov	r4, r0
  400f4c:	b168      	cbz	r0, 400f6a <xQueueGenericSend+0x2a>
	configASSERT( !( ( pvItemToQueue == NULL ) && ( pxQueue->uxItemSize != ( UBaseType_t ) 0U ) ) );
  400f4e:	b197      	cbz	r7, 400f76 <xQueueGenericSend+0x36>
  400f50:	2301      	movs	r3, #1
  400f52:	b1b3      	cbz	r3, 400f82 <xQueueGenericSend+0x42>
	configASSERT( !( ( xCopyPosition == queueOVERWRITE ) && ( pxQueue->uxLength != 1 ) ) );
  400f54:	2e02      	cmp	r6, #2
  400f56:	d01a      	beq.n	400f8e <xQueueGenericSend+0x4e>
  400f58:	2301      	movs	r3, #1
  400f5a:	b1eb      	cbz	r3, 400f98 <xQueueGenericSend+0x58>
		configASSERT( !( ( xTaskGetSchedulerState() == taskSCHEDULER_SUSPENDED ) && ( xTicksToWait != 0 ) ) );
  400f5c:	4b63      	ldr	r3, [pc, #396]	; (4010ec <xQueueGenericSend+0x1ac>)
  400f5e:	4798      	blx	r3
  400f60:	bb00      	cbnz	r0, 400fa4 <xQueueGenericSend+0x64>
  400f62:	9b01      	ldr	r3, [sp, #4]
  400f64:	bb13      	cbnz	r3, 400fac <xQueueGenericSend+0x6c>
  400f66:	2301      	movs	r3, #1
  400f68:	e01d      	b.n	400fa6 <xQueueGenericSend+0x66>
	configASSERT( pxQueue );
  400f6a:	f240 21f1 	movw	r1, #753	; 0x2f1
  400f6e:	4860      	ldr	r0, [pc, #384]	; (4010f0 <xQueueGenericSend+0x1b0>)
  400f70:	4b60      	ldr	r3, [pc, #384]	; (4010f4 <xQueueGenericSend+0x1b4>)
  400f72:	4798      	blx	r3
  400f74:	e7eb      	b.n	400f4e <xQueueGenericSend+0xe>
	configASSERT( !( ( pvItemToQueue == NULL ) && ( pxQueue->uxItemSize != ( UBaseType_t ) 0U ) ) );
  400f76:	6c23      	ldr	r3, [r4, #64]	; 0x40
  400f78:	b90b      	cbnz	r3, 400f7e <xQueueGenericSend+0x3e>
  400f7a:	2301      	movs	r3, #1
  400f7c:	e7e9      	b.n	400f52 <xQueueGenericSend+0x12>
  400f7e:	2300      	movs	r3, #0
  400f80:	e7e7      	b.n	400f52 <xQueueGenericSend+0x12>
  400f82:	f240 21f2 	movw	r1, #754	; 0x2f2
  400f86:	485a      	ldr	r0, [pc, #360]	; (4010f0 <xQueueGenericSend+0x1b0>)
  400f88:	4b5a      	ldr	r3, [pc, #360]	; (4010f4 <xQueueGenericSend+0x1b4>)
  400f8a:	4798      	blx	r3
  400f8c:	e7e2      	b.n	400f54 <xQueueGenericSend+0x14>
	configASSERT( !( ( xCopyPosition == queueOVERWRITE ) && ( pxQueue->uxLength != 1 ) ) );
  400f8e:	6be3      	ldr	r3, [r4, #60]	; 0x3c
  400f90:	2b01      	cmp	r3, #1
  400f92:	d0e2      	beq.n	400f5a <xQueueGenericSend+0x1a>
  400f94:	2300      	movs	r3, #0
  400f96:	e7e0      	b.n	400f5a <xQueueGenericSend+0x1a>
  400f98:	f240 21f3 	movw	r1, #755	; 0x2f3
  400f9c:	4854      	ldr	r0, [pc, #336]	; (4010f0 <xQueueGenericSend+0x1b0>)
  400f9e:	4b55      	ldr	r3, [pc, #340]	; (4010f4 <xQueueGenericSend+0x1b4>)
  400fa0:	4798      	blx	r3
  400fa2:	e7db      	b.n	400f5c <xQueueGenericSend+0x1c>
		configASSERT( !( ( xTaskGetSchedulerState() == taskSCHEDULER_SUSPENDED ) && ( xTicksToWait != 0 ) ) );
  400fa4:	2301      	movs	r3, #1
  400fa6:	b11b      	cbz	r3, 400fb0 <xQueueGenericSend+0x70>
  400fa8:	2500      	movs	r5, #0
  400faa:	e058      	b.n	40105e <xQueueGenericSend+0x11e>
  400fac:	2300      	movs	r3, #0
  400fae:	e7fa      	b.n	400fa6 <xQueueGenericSend+0x66>
  400fb0:	f240 21f6 	movw	r1, #758	; 0x2f6
  400fb4:	484e      	ldr	r0, [pc, #312]	; (4010f0 <xQueueGenericSend+0x1b0>)
  400fb6:	4b4f      	ldr	r3, [pc, #316]	; (4010f4 <xQueueGenericSend+0x1b4>)
  400fb8:	4798      	blx	r3
  400fba:	e7f5      	b.n	400fa8 <xQueueGenericSend+0x68>
				UBaseType_t uxPreviousMessagesWaiting = pxQueue->uxMessagesWaiting;
  400fbc:	6ba5      	ldr	r5, [r4, #56]	; 0x38
					xYieldRequired = prvCopyDataToQueue( pxQueue, pvItemToQueue, xCopyPosition );
  400fbe:	4632      	mov	r2, r6
  400fc0:	4639      	mov	r1, r7
  400fc2:	4620      	mov	r0, r4
  400fc4:	4b4c      	ldr	r3, [pc, #304]	; (4010f8 <xQueueGenericSend+0x1b8>)
  400fc6:	4798      	blx	r3
					if( pxQueue->pxQueueSetContainer != NULL )
  400fc8:	6ca3      	ldr	r3, [r4, #72]	; 0x48
  400fca:	b1b3      	cbz	r3, 400ffa <xQueueGenericSend+0xba>
						if( ( xCopyPosition == queueOVERWRITE ) && ( uxPreviousMessagesWaiting != ( UBaseType_t ) 0 ) )
  400fcc:	2e02      	cmp	r6, #2
  400fce:	d011      	beq.n	400ff4 <xQueueGenericSend+0xb4>
						else if( prvNotifyQueueSetContainer( pxQueue, xCopyPosition ) != pdFALSE )
  400fd0:	4631      	mov	r1, r6
  400fd2:	4620      	mov	r0, r4
  400fd4:	4b49      	ldr	r3, [pc, #292]	; (4010fc <xQueueGenericSend+0x1bc>)
  400fd6:	4798      	blx	r3
  400fd8:	b138      	cbz	r0, 400fea <xQueueGenericSend+0xaa>
							queueYIELD_IF_USING_PREEMPTION();
  400fda:	f04f 5280 	mov.w	r2, #268435456	; 0x10000000
  400fde:	4b48      	ldr	r3, [pc, #288]	; (401100 <xQueueGenericSend+0x1c0>)
  400fe0:	601a      	str	r2, [r3, #0]
  400fe2:	f3bf 8f4f 	dsb	sy
  400fe6:	f3bf 8f6f 	isb	sy
				taskEXIT_CRITICAL();
  400fea:	4b46      	ldr	r3, [pc, #280]	; (401104 <xQueueGenericSend+0x1c4>)
  400fec:	4798      	blx	r3
				return pdPASS;
  400fee:	2001      	movs	r0, #1
}
  400ff0:	b005      	add	sp, #20
  400ff2:	bdf0      	pop	{r4, r5, r6, r7, pc}
						if( ( xCopyPosition == queueOVERWRITE ) && ( uxPreviousMessagesWaiting != ( UBaseType_t ) 0 ) )
  400ff4:	2d00      	cmp	r5, #0
  400ff6:	d0eb      	beq.n	400fd0 <xQueueGenericSend+0x90>
  400ff8:	e7f7      	b.n	400fea <xQueueGenericSend+0xaa>
						if( listLIST_IS_EMPTY( &( pxQueue->xTasksWaitingToReceive ) ) == pdFALSE )
  400ffa:	6a63      	ldr	r3, [r4, #36]	; 0x24
  400ffc:	b953      	cbnz	r3, 401014 <xQueueGenericSend+0xd4>
						else if( xYieldRequired != pdFALSE )
  400ffe:	2800      	cmp	r0, #0
  401000:	d0f3      	beq.n	400fea <xQueueGenericSend+0xaa>
							queueYIELD_IF_USING_PREEMPTION();
  401002:	f04f 5280 	mov.w	r2, #268435456	; 0x10000000
  401006:	4b3e      	ldr	r3, [pc, #248]	; (401100 <xQueueGenericSend+0x1c0>)
  401008:	601a      	str	r2, [r3, #0]
  40100a:	f3bf 8f4f 	dsb	sy
  40100e:	f3bf 8f6f 	isb	sy
  401012:	e7ea      	b.n	400fea <xQueueGenericSend+0xaa>
							if( xTaskRemoveFromEventList( &( pxQueue->xTasksWaitingToReceive ) ) != pdFALSE )
  401014:	f104 0024 	add.w	r0, r4, #36	; 0x24
  401018:	4b3b      	ldr	r3, [pc, #236]	; (401108 <xQueueGenericSend+0x1c8>)
  40101a:	4798      	blx	r3
  40101c:	2800      	cmp	r0, #0
  40101e:	d0e4      	beq.n	400fea <xQueueGenericSend+0xaa>
								queueYIELD_IF_USING_PREEMPTION();
  401020:	f04f 5280 	mov.w	r2, #268435456	; 0x10000000
  401024:	4b36      	ldr	r3, [pc, #216]	; (401100 <xQueueGenericSend+0x1c0>)
  401026:	601a      	str	r2, [r3, #0]
  401028:	f3bf 8f4f 	dsb	sy
  40102c:	f3bf 8f6f 	isb	sy
  401030:	e7db      	b.n	400fea <xQueueGenericSend+0xaa>
					taskEXIT_CRITICAL();
  401032:	4b34      	ldr	r3, [pc, #208]	; (401104 <xQueueGenericSend+0x1c4>)
  401034:	4798      	blx	r3
					return errQUEUE_FULL;
  401036:	2000      	movs	r0, #0
  401038:	e7da      	b.n	400ff0 <xQueueGenericSend+0xb0>
					vTaskInternalSetTimeOutState( &xTimeOut );
  40103a:	a802      	add	r0, sp, #8
  40103c:	4b33      	ldr	r3, [pc, #204]	; (40110c <xQueueGenericSend+0x1cc>)
  40103e:	4798      	blx	r3
					xEntryTimeSet = pdTRUE;
  401040:	2501      	movs	r5, #1
  401042:	e019      	b.n	401078 <xQueueGenericSend+0x138>
		prvLockQueue( pxQueue );
  401044:	2300      	movs	r3, #0
  401046:	f884 3044 	strb.w	r3, [r4, #68]	; 0x44
  40104a:	e021      	b.n	401090 <xQueueGenericSend+0x150>
  40104c:	2300      	movs	r3, #0
  40104e:	f884 3045 	strb.w	r3, [r4, #69]	; 0x45
  401052:	e023      	b.n	40109c <xQueueGenericSend+0x15c>
				prvUnlockQueue( pxQueue );
  401054:	4620      	mov	r0, r4
  401056:	4b2e      	ldr	r3, [pc, #184]	; (401110 <xQueueGenericSend+0x1d0>)
  401058:	4798      	blx	r3
				( void ) xTaskResumeAll();
  40105a:	4b2e      	ldr	r3, [pc, #184]	; (401114 <xQueueGenericSend+0x1d4>)
  40105c:	4798      	blx	r3
		taskENTER_CRITICAL();
  40105e:	4b2e      	ldr	r3, [pc, #184]	; (401118 <xQueueGenericSend+0x1d8>)
  401060:	4798      	blx	r3
			if( ( pxQueue->uxMessagesWaiting < pxQueue->uxLength ) || ( xCopyPosition == queueOVERWRITE ) )
  401062:	6ba2      	ldr	r2, [r4, #56]	; 0x38
  401064:	6be3      	ldr	r3, [r4, #60]	; 0x3c
  401066:	429a      	cmp	r2, r3
  401068:	d3a8      	bcc.n	400fbc <xQueueGenericSend+0x7c>
  40106a:	2e02      	cmp	r6, #2
  40106c:	d0a6      	beq.n	400fbc <xQueueGenericSend+0x7c>
				if( xTicksToWait == ( TickType_t ) 0 )
  40106e:	9b01      	ldr	r3, [sp, #4]
  401070:	2b00      	cmp	r3, #0
  401072:	d0de      	beq.n	401032 <xQueueGenericSend+0xf2>
				else if( xEntryTimeSet == pdFALSE )
  401074:	2d00      	cmp	r5, #0
  401076:	d0e0      	beq.n	40103a <xQueueGenericSend+0xfa>
		taskEXIT_CRITICAL();
  401078:	4b22      	ldr	r3, [pc, #136]	; (401104 <xQueueGenericSend+0x1c4>)
  40107a:	4798      	blx	r3
		vTaskSuspendAll();
  40107c:	4b27      	ldr	r3, [pc, #156]	; (40111c <xQueueGenericSend+0x1dc>)
  40107e:	4798      	blx	r3
		prvLockQueue( pxQueue );
  401080:	4b25      	ldr	r3, [pc, #148]	; (401118 <xQueueGenericSend+0x1d8>)
  401082:	4798      	blx	r3
  401084:	f894 3044 	ldrb.w	r3, [r4, #68]	; 0x44
  401088:	b25b      	sxtb	r3, r3
  40108a:	f1b3 3fff 	cmp.w	r3, #4294967295
  40108e:	d0d9      	beq.n	401044 <xQueueGenericSend+0x104>
  401090:	f894 3045 	ldrb.w	r3, [r4, #69]	; 0x45
  401094:	b25b      	sxtb	r3, r3
  401096:	f1b3 3fff 	cmp.w	r3, #4294967295
  40109a:	d0d7      	beq.n	40104c <xQueueGenericSend+0x10c>
  40109c:	4b19      	ldr	r3, [pc, #100]	; (401104 <xQueueGenericSend+0x1c4>)
  40109e:	4798      	blx	r3
		if( xTaskCheckForTimeOut( &xTimeOut, &xTicksToWait ) == pdFALSE )
  4010a0:	a901      	add	r1, sp, #4
  4010a2:	a802      	add	r0, sp, #8
  4010a4:	4b1e      	ldr	r3, [pc, #120]	; (401120 <xQueueGenericSend+0x1e0>)
  4010a6:	4798      	blx	r3
  4010a8:	b9c8      	cbnz	r0, 4010de <xQueueGenericSend+0x19e>
			if( prvIsQueueFull( pxQueue ) != pdFALSE )
  4010aa:	4620      	mov	r0, r4
  4010ac:	4b1d      	ldr	r3, [pc, #116]	; (401124 <xQueueGenericSend+0x1e4>)
  4010ae:	4798      	blx	r3
  4010b0:	2800      	cmp	r0, #0
  4010b2:	d0cf      	beq.n	401054 <xQueueGenericSend+0x114>
				vTaskPlaceOnEventList( &( pxQueue->xTasksWaitingToSend ), xTicksToWait );
  4010b4:	9901      	ldr	r1, [sp, #4]
  4010b6:	f104 0010 	add.w	r0, r4, #16
  4010ba:	4b1b      	ldr	r3, [pc, #108]	; (401128 <xQueueGenericSend+0x1e8>)
  4010bc:	4798      	blx	r3
				prvUnlockQueue( pxQueue );
  4010be:	4620      	mov	r0, r4
  4010c0:	4b13      	ldr	r3, [pc, #76]	; (401110 <xQueueGenericSend+0x1d0>)
  4010c2:	4798      	blx	r3
				if( xTaskResumeAll() == pdFALSE )
  4010c4:	4b13      	ldr	r3, [pc, #76]	; (401114 <xQueueGenericSend+0x1d4>)
  4010c6:	4798      	blx	r3
  4010c8:	2800      	cmp	r0, #0
  4010ca:	d1c8      	bne.n	40105e <xQueueGenericSend+0x11e>
					portYIELD_WITHIN_API();
  4010cc:	f04f 5280 	mov.w	r2, #268435456	; 0x10000000
  4010d0:	4b0b      	ldr	r3, [pc, #44]	; (401100 <xQueueGenericSend+0x1c0>)
  4010d2:	601a      	str	r2, [r3, #0]
  4010d4:	f3bf 8f4f 	dsb	sy
  4010d8:	f3bf 8f6f 	isb	sy
  4010dc:	e7bf      	b.n	40105e <xQueueGenericSend+0x11e>
			prvUnlockQueue( pxQueue );
  4010de:	4620      	mov	r0, r4
  4010e0:	4b0b      	ldr	r3, [pc, #44]	; (401110 <xQueueGenericSend+0x1d0>)
  4010e2:	4798      	blx	r3
			( void ) xTaskResumeAll();
  4010e4:	4b0b      	ldr	r3, [pc, #44]	; (401114 <xQueueGenericSend+0x1d4>)
  4010e6:	4798      	blx	r3
			return errQUEUE_FULL;
  4010e8:	2000      	movs	r0, #0
  4010ea:	e781      	b.n	400ff0 <xQueueGenericSend+0xb0>
  4010ec:	00401df5 	.word	0x00401df5
  4010f0:	00403410 	.word	0x00403410
  4010f4:	00403021 	.word	0x00403021
  4010f8:	00400c69 	.word	0x00400c69
  4010fc:	00400ce9 	.word	0x00400ce9
  401100:	e000ed04 	.word	0xe000ed04
  401104:	0040070d 	.word	0x0040070d
  401108:	00401cb5 	.word	0x00401cb5
  40110c:	00401d49 	.word	0x00401d49
  401110:	00400d95 	.word	0x00400d95
  401114:	004019e5 	.word	0x004019e5
  401118:	004006c5 	.word	0x004006c5
  40111c:	004018a5 	.word	0x004018a5
  401120:	00401d61 	.word	0x00401d61
  401124:	00400c1d 	.word	0x00400c1d
  401128:	00401c2d 	.word	0x00401c2d

0040112c <xQueueGenericSendFromISR>:
{
  40112c:	e92d 43f8 	stmdb	sp!, {r3, r4, r5, r6, r7, r8, r9, lr}
  401130:	460f      	mov	r7, r1
  401132:	4691      	mov	r9, r2
  401134:	461e      	mov	r6, r3
	configASSERT( pxQueue );
  401136:	4604      	mov	r4, r0
  401138:	b1e8      	cbz	r0, 401176 <xQueueGenericSendFromISR+0x4a>
	configASSERT( !( ( pvItemToQueue == NULL ) && ( pxQueue->uxItemSize != ( UBaseType_t ) 0U ) ) );
  40113a:	b317      	cbz	r7, 401182 <xQueueGenericSendFromISR+0x56>
  40113c:	2301      	movs	r3, #1
  40113e:	b333      	cbz	r3, 40118e <xQueueGenericSendFromISR+0x62>
	configASSERT( !( ( xCopyPosition == queueOVERWRITE ) && ( pxQueue->uxLength != 1 ) ) );
  401140:	2e02      	cmp	r6, #2
  401142:	d02a      	beq.n	40119a <xQueueGenericSendFromISR+0x6e>
  401144:	2301      	movs	r3, #1
  401146:	b36b      	cbz	r3, 4011a4 <xQueueGenericSendFromISR+0x78>
	portASSERT_IF_INTERRUPT_PRIORITY_INVALID();
  401148:	4b35      	ldr	r3, [pc, #212]	; (401220 <xQueueGenericSendFromISR+0xf4>)
  40114a:	4798      	blx	r3
	__asm volatile
  40114c:	f3ef 8811 	mrs	r8, BASEPRI
  401150:	f04f 0350 	mov.w	r3, #80	; 0x50
  401154:	f383 8811 	msr	BASEPRI, r3
  401158:	f3bf 8f6f 	isb	sy
  40115c:	f3bf 8f4f 	dsb	sy
		if( ( pxQueue->uxMessagesWaiting < pxQueue->uxLength ) || ( xCopyPosition == queueOVERWRITE ) )
  401160:	6ba2      	ldr	r2, [r4, #56]	; 0x38
  401162:	6be3      	ldr	r3, [r4, #60]	; 0x3c
  401164:	429a      	cmp	r2, r3
  401166:	d323      	bcc.n	4011b0 <xQueueGenericSendFromISR+0x84>
  401168:	2e02      	cmp	r6, #2
  40116a:	d021      	beq.n	4011b0 <xQueueGenericSendFromISR+0x84>
			xReturn = errQUEUE_FULL;
  40116c:	2000      	movs	r0, #0
	__asm volatile
  40116e:	f388 8811 	msr	BASEPRI, r8
}
  401172:	e8bd 83f8 	ldmia.w	sp!, {r3, r4, r5, r6, r7, r8, r9, pc}
	configASSERT( pxQueue );
  401176:	f240 31c3 	movw	r1, #963	; 0x3c3
  40117a:	482a      	ldr	r0, [pc, #168]	; (401224 <xQueueGenericSendFromISR+0xf8>)
  40117c:	4b2a      	ldr	r3, [pc, #168]	; (401228 <xQueueGenericSendFromISR+0xfc>)
  40117e:	4798      	blx	r3
  401180:	e7db      	b.n	40113a <xQueueGenericSendFromISR+0xe>
	configASSERT( !( ( pvItemToQueue == NULL ) && ( pxQueue->uxItemSize != ( UBaseType_t ) 0U ) ) );
  401182:	6c23      	ldr	r3, [r4, #64]	; 0x40
  401184:	b90b      	cbnz	r3, 40118a <xQueueGenericSendFromISR+0x5e>
  401186:	2301      	movs	r3, #1
  401188:	e7d9      	b.n	40113e <xQueueGenericSendFromISR+0x12>
  40118a:	2300      	movs	r3, #0
  40118c:	e7d7      	b.n	40113e <xQueueGenericSendFromISR+0x12>
  40118e:	f44f 7171 	mov.w	r1, #964	; 0x3c4
  401192:	4824      	ldr	r0, [pc, #144]	; (401224 <xQueueGenericSendFromISR+0xf8>)
  401194:	4b24      	ldr	r3, [pc, #144]	; (401228 <xQueueGenericSendFromISR+0xfc>)
  401196:	4798      	blx	r3
  401198:	e7d2      	b.n	401140 <xQueueGenericSendFromISR+0x14>
	configASSERT( !( ( xCopyPosition == queueOVERWRITE ) && ( pxQueue->uxLength != 1 ) ) );
  40119a:	6be3      	ldr	r3, [r4, #60]	; 0x3c
  40119c:	2b01      	cmp	r3, #1
  40119e:	d0d2      	beq.n	401146 <xQueueGenericSendFromISR+0x1a>
  4011a0:	2300      	movs	r3, #0
  4011a2:	e7d0      	b.n	401146 <xQueueGenericSendFromISR+0x1a>
  4011a4:	f240 31c5 	movw	r1, #965	; 0x3c5
  4011a8:	481e      	ldr	r0, [pc, #120]	; (401224 <xQueueGenericSendFromISR+0xf8>)
  4011aa:	4b1f      	ldr	r3, [pc, #124]	; (401228 <xQueueGenericSendFromISR+0xfc>)
  4011ac:	4798      	blx	r3
  4011ae:	e7cb      	b.n	401148 <xQueueGenericSendFromISR+0x1c>
			const int8_t cTxLock = pxQueue->cTxLock;
  4011b0:	f894 5045 	ldrb.w	r5, [r4, #69]	; 0x45
  4011b4:	b26d      	sxtb	r5, r5
			( void ) prvCopyDataToQueue( pxQueue, pvItemToQueue, xCopyPosition );
  4011b6:	4632      	mov	r2, r6
  4011b8:	4639      	mov	r1, r7
  4011ba:	4620      	mov	r0, r4
  4011bc:	4b1b      	ldr	r3, [pc, #108]	; (40122c <xQueueGenericSendFromISR+0x100>)
  4011be:	4798      	blx	r3
			if( cTxLock == queueUNLOCKED )
  4011c0:	f1b5 3fff 	cmp.w	r5, #4294967295
  4011c4:	d005      	beq.n	4011d2 <xQueueGenericSendFromISR+0xa6>
				pxQueue->cTxLock = ( int8_t ) ( cTxLock + 1 );
  4011c6:	3501      	adds	r5, #1
  4011c8:	b26d      	sxtb	r5, r5
  4011ca:	f884 5045 	strb.w	r5, [r4, #69]	; 0x45
			xReturn = pdPASS;
  4011ce:	2001      	movs	r0, #1
  4011d0:	e7cd      	b.n	40116e <xQueueGenericSendFromISR+0x42>
					if( pxQueue->pxQueueSetContainer != NULL )
  4011d2:	6ca3      	ldr	r3, [r4, #72]	; 0x48
  4011d4:	b15b      	cbz	r3, 4011ee <xQueueGenericSendFromISR+0xc2>
						if( prvNotifyQueueSetContainer( pxQueue, xCopyPosition ) != pdFALSE )
  4011d6:	4631      	mov	r1, r6
  4011d8:	4620      	mov	r0, r4
  4011da:	4b15      	ldr	r3, [pc, #84]	; (401230 <xQueueGenericSendFromISR+0x104>)
  4011dc:	4798      	blx	r3
  4011de:	b1b0      	cbz	r0, 40120e <xQueueGenericSendFromISR+0xe2>
							if( pxHigherPriorityTaskWoken != NULL )
  4011e0:	f1b9 0f00 	cmp.w	r9, #0
  4011e4:	d015      	beq.n	401212 <xQueueGenericSendFromISR+0xe6>
								*pxHigherPriorityTaskWoken = pdTRUE;
  4011e6:	2001      	movs	r0, #1
  4011e8:	f8c9 0000 	str.w	r0, [r9]
  4011ec:	e7bf      	b.n	40116e <xQueueGenericSendFromISR+0x42>
						if( listLIST_IS_EMPTY( &( pxQueue->xTasksWaitingToReceive ) ) == pdFALSE )
  4011ee:	6a63      	ldr	r3, [r4, #36]	; 0x24
  4011f0:	b90b      	cbnz	r3, 4011f6 <xQueueGenericSendFromISR+0xca>
			xReturn = pdPASS;
  4011f2:	2001      	movs	r0, #1
  4011f4:	e7bb      	b.n	40116e <xQueueGenericSendFromISR+0x42>
							if( xTaskRemoveFromEventList( &( pxQueue->xTasksWaitingToReceive ) ) != pdFALSE )
  4011f6:	f104 0024 	add.w	r0, r4, #36	; 0x24
  4011fa:	4b0e      	ldr	r3, [pc, #56]	; (401234 <xQueueGenericSendFromISR+0x108>)
  4011fc:	4798      	blx	r3
  4011fe:	b150      	cbz	r0, 401216 <xQueueGenericSendFromISR+0xea>
								if( pxHigherPriorityTaskWoken != NULL )
  401200:	f1b9 0f00 	cmp.w	r9, #0
  401204:	d009      	beq.n	40121a <xQueueGenericSendFromISR+0xee>
									*pxHigherPriorityTaskWoken = pdTRUE;
  401206:	2001      	movs	r0, #1
  401208:	f8c9 0000 	str.w	r0, [r9]
  40120c:	e7af      	b.n	40116e <xQueueGenericSendFromISR+0x42>
			xReturn = pdPASS;
  40120e:	2001      	movs	r0, #1
  401210:	e7ad      	b.n	40116e <xQueueGenericSendFromISR+0x42>
  401212:	2001      	movs	r0, #1
  401214:	e7ab      	b.n	40116e <xQueueGenericSendFromISR+0x42>
  401216:	2001      	movs	r0, #1
  401218:	e7a9      	b.n	40116e <xQueueGenericSendFromISR+0x42>
  40121a:	2001      	movs	r0, #1
  40121c:	e7a7      	b.n	40116e <xQueueGenericSendFromISR+0x42>
  40121e:	bf00      	nop
  401220:	00400925 	.word	0x00400925
  401224:	00403410 	.word	0x00403410
  401228:	00403021 	.word	0x00403021
  40122c:	00400c69 	.word	0x00400c69
  401230:	00400ce9 	.word	0x00400ce9
  401234:	00401cb5 	.word	0x00401cb5

00401238 <xQueueReceive>:
{
  401238:	b5f0      	push	{r4, r5, r6, r7, lr}
  40123a:	b085      	sub	sp, #20
  40123c:	460f      	mov	r7, r1
  40123e:	9201      	str	r2, [sp, #4]
	configASSERT( ( pxQueue ) );
  401240:	4604      	mov	r4, r0
  401242:	b148      	cbz	r0, 401258 <xQueueReceive+0x20>
	configASSERT( !( ( ( pvBuffer ) == NULL ) && ( ( pxQueue )->uxItemSize != ( UBaseType_t ) 0U ) ) );
  401244:	b177      	cbz	r7, 401264 <xQueueReceive+0x2c>
  401246:	2301      	movs	r3, #1
  401248:	b193      	cbz	r3, 401270 <xQueueReceive+0x38>
		configASSERT( !( ( xTaskGetSchedulerState() == taskSCHEDULER_SUSPENDED ) && ( xTicksToWait != 0 ) ) );
  40124a:	4b51      	ldr	r3, [pc, #324]	; (401390 <xQueueReceive+0x158>)
  40124c:	4798      	blx	r3
  40124e:	b9a8      	cbnz	r0, 40127c <xQueueReceive+0x44>
  401250:	9b01      	ldr	r3, [sp, #4]
  401252:	b9bb      	cbnz	r3, 401284 <xQueueReceive+0x4c>
  401254:	2301      	movs	r3, #1
  401256:	e012      	b.n	40127e <xQueueReceive+0x46>
	configASSERT( ( pxQueue ) );
  401258:	f44f 61a0 	mov.w	r1, #1280	; 0x500
  40125c:	484d      	ldr	r0, [pc, #308]	; (401394 <xQueueReceive+0x15c>)
  40125e:	4b4e      	ldr	r3, [pc, #312]	; (401398 <xQueueReceive+0x160>)
  401260:	4798      	blx	r3
  401262:	e7ef      	b.n	401244 <xQueueReceive+0xc>
	configASSERT( !( ( ( pvBuffer ) == NULL ) && ( ( pxQueue )->uxItemSize != ( UBaseType_t ) 0U ) ) );
  401264:	6c23      	ldr	r3, [r4, #64]	; 0x40
  401266:	b90b      	cbnz	r3, 40126c <xQueueReceive+0x34>
  401268:	2301      	movs	r3, #1
  40126a:	e7ed      	b.n	401248 <xQueueReceive+0x10>
  40126c:	2300      	movs	r3, #0
  40126e:	e7eb      	b.n	401248 <xQueueReceive+0x10>
  401270:	f240 5104 	movw	r1, #1284	; 0x504
  401274:	4847      	ldr	r0, [pc, #284]	; (401394 <xQueueReceive+0x15c>)
  401276:	4b48      	ldr	r3, [pc, #288]	; (401398 <xQueueReceive+0x160>)
  401278:	4798      	blx	r3
  40127a:	e7e6      	b.n	40124a <xQueueReceive+0x12>
		configASSERT( !( ( xTaskGetSchedulerState() == taskSCHEDULER_SUSPENDED ) && ( xTicksToWait != 0 ) ) );
  40127c:	2301      	movs	r3, #1
  40127e:	b11b      	cbz	r3, 401288 <xQueueReceive+0x50>
  401280:	2600      	movs	r6, #0
  401282:	e044      	b.n	40130e <xQueueReceive+0xd6>
  401284:	2300      	movs	r3, #0
  401286:	e7fa      	b.n	40127e <xQueueReceive+0x46>
  401288:	f240 5109 	movw	r1, #1289	; 0x509
  40128c:	4841      	ldr	r0, [pc, #260]	; (401394 <xQueueReceive+0x15c>)
  40128e:	4b42      	ldr	r3, [pc, #264]	; (401398 <xQueueReceive+0x160>)
  401290:	4798      	blx	r3
  401292:	e7f5      	b.n	401280 <xQueueReceive+0x48>
				prvCopyDataFromQueue( pxQueue, pvBuffer );
  401294:	4639      	mov	r1, r7
  401296:	4620      	mov	r0, r4
  401298:	4b40      	ldr	r3, [pc, #256]	; (40139c <xQueueReceive+0x164>)
  40129a:	4798      	blx	r3
				pxQueue->uxMessagesWaiting = uxMessagesWaiting - ( UBaseType_t ) 1;
  40129c:	3d01      	subs	r5, #1
  40129e:	63a5      	str	r5, [r4, #56]	; 0x38
				if( listLIST_IS_EMPTY( &( pxQueue->xTasksWaitingToSend ) ) == pdFALSE )
  4012a0:	6923      	ldr	r3, [r4, #16]
  4012a2:	b923      	cbnz	r3, 4012ae <xQueueReceive+0x76>
				taskEXIT_CRITICAL();
  4012a4:	4b3e      	ldr	r3, [pc, #248]	; (4013a0 <xQueueReceive+0x168>)
  4012a6:	4798      	blx	r3
				return pdPASS;
  4012a8:	2001      	movs	r0, #1
}
  4012aa:	b005      	add	sp, #20
  4012ac:	bdf0      	pop	{r4, r5, r6, r7, pc}
					if( xTaskRemoveFromEventList( &( pxQueue->xTasksWaitingToSend ) ) != pdFALSE )
  4012ae:	f104 0010 	add.w	r0, r4, #16
  4012b2:	4b3c      	ldr	r3, [pc, #240]	; (4013a4 <xQueueReceive+0x16c>)
  4012b4:	4798      	blx	r3
  4012b6:	2800      	cmp	r0, #0
  4012b8:	d0f4      	beq.n	4012a4 <xQueueReceive+0x6c>
						queueYIELD_IF_USING_PREEMPTION();
  4012ba:	f04f 5280 	mov.w	r2, #268435456	; 0x10000000
  4012be:	4b3a      	ldr	r3, [pc, #232]	; (4013a8 <xQueueReceive+0x170>)
  4012c0:	601a      	str	r2, [r3, #0]
  4012c2:	f3bf 8f4f 	dsb	sy
  4012c6:	f3bf 8f6f 	isb	sy
  4012ca:	e7eb      	b.n	4012a4 <xQueueReceive+0x6c>
					taskEXIT_CRITICAL();
  4012cc:	4b34      	ldr	r3, [pc, #208]	; (4013a0 <xQueueReceive+0x168>)
  4012ce:	4798      	blx	r3
					return errQUEUE_EMPTY;
  4012d0:	2000      	movs	r0, #0
  4012d2:	e7ea      	b.n	4012aa <xQueueReceive+0x72>
					vTaskInternalSetTimeOutState( &xTimeOut );
  4012d4:	a802      	add	r0, sp, #8
  4012d6:	4b35      	ldr	r3, [pc, #212]	; (4013ac <xQueueReceive+0x174>)
  4012d8:	4798      	blx	r3
					xEntryTimeSet = pdTRUE;
  4012da:	2601      	movs	r6, #1
  4012dc:	e021      	b.n	401322 <xQueueReceive+0xea>
		prvLockQueue( pxQueue );
  4012de:	2300      	movs	r3, #0
  4012e0:	f884 3044 	strb.w	r3, [r4, #68]	; 0x44
  4012e4:	e029      	b.n	40133a <xQueueReceive+0x102>
  4012e6:	2300      	movs	r3, #0
  4012e8:	f884 3045 	strb.w	r3, [r4, #69]	; 0x45
  4012ec:	e02b      	b.n	401346 <xQueueReceive+0x10e>
				prvUnlockQueue( pxQueue );
  4012ee:	4620      	mov	r0, r4
  4012f0:	4b2f      	ldr	r3, [pc, #188]	; (4013b0 <xQueueReceive+0x178>)
  4012f2:	4798      	blx	r3
				( void ) xTaskResumeAll();
  4012f4:	4b2f      	ldr	r3, [pc, #188]	; (4013b4 <xQueueReceive+0x17c>)
  4012f6:	4798      	blx	r3
  4012f8:	e009      	b.n	40130e <xQueueReceive+0xd6>
			prvUnlockQueue( pxQueue );
  4012fa:	4620      	mov	r0, r4
  4012fc:	4b2c      	ldr	r3, [pc, #176]	; (4013b0 <xQueueReceive+0x178>)
  4012fe:	4798      	blx	r3
			( void ) xTaskResumeAll();
  401300:	4b2c      	ldr	r3, [pc, #176]	; (4013b4 <xQueueReceive+0x17c>)
  401302:	4798      	blx	r3
			if( prvIsQueueEmpty( pxQueue ) != pdFALSE )
  401304:	4620      	mov	r0, r4
  401306:	4b2c      	ldr	r3, [pc, #176]	; (4013b8 <xQueueReceive+0x180>)
  401308:	4798      	blx	r3
  40130a:	2800      	cmp	r0, #0
  40130c:	d13d      	bne.n	40138a <xQueueReceive+0x152>
		taskENTER_CRITICAL();
  40130e:	4b2b      	ldr	r3, [pc, #172]	; (4013bc <xQueueReceive+0x184>)
  401310:	4798      	blx	r3
			const UBaseType_t uxMessagesWaiting = pxQueue->uxMessagesWaiting;
  401312:	6ba5      	ldr	r5, [r4, #56]	; 0x38
			if( uxMessagesWaiting > ( UBaseType_t ) 0 )
  401314:	2d00      	cmp	r5, #0
  401316:	d1bd      	bne.n	401294 <xQueueReceive+0x5c>
				if( xTicksToWait == ( TickType_t ) 0 )
  401318:	9b01      	ldr	r3, [sp, #4]
  40131a:	2b00      	cmp	r3, #0
  40131c:	d0d6      	beq.n	4012cc <xQueueReceive+0x94>
				else if( xEntryTimeSet == pdFALSE )
  40131e:	2e00      	cmp	r6, #0
  401320:	d0d8      	beq.n	4012d4 <xQueueReceive+0x9c>
		taskEXIT_CRITICAL();
  401322:	4b1f      	ldr	r3, [pc, #124]	; (4013a0 <xQueueReceive+0x168>)
  401324:	4798      	blx	r3
		vTaskSuspendAll();
  401326:	4b26      	ldr	r3, [pc, #152]	; (4013c0 <xQueueReceive+0x188>)
  401328:	4798      	blx	r3
		prvLockQueue( pxQueue );
  40132a:	4b24      	ldr	r3, [pc, #144]	; (4013bc <xQueueReceive+0x184>)
  40132c:	4798      	blx	r3
  40132e:	f894 3044 	ldrb.w	r3, [r4, #68]	; 0x44
  401332:	b25b      	sxtb	r3, r3
  401334:	f1b3 3fff 	cmp.w	r3, #4294967295
  401338:	d0d1      	beq.n	4012de <xQueueReceive+0xa6>
  40133a:	f894 3045 	ldrb.w	r3, [r4, #69]	; 0x45
  40133e:	b25b      	sxtb	r3, r3
  401340:	f1b3 3fff 	cmp.w	r3, #4294967295
  401344:	d0cf      	beq.n	4012e6 <xQueueReceive+0xae>
  401346:	4b16      	ldr	r3, [pc, #88]	; (4013a0 <xQueueReceive+0x168>)
  401348:	4798      	blx	r3
		if( xTaskCheckForTimeOut( &xTimeOut, &xTicksToWait ) == pdFALSE )
  40134a:	a901      	add	r1, sp, #4
  40134c:	a802      	add	r0, sp, #8
  40134e:	4b1d      	ldr	r3, [pc, #116]	; (4013c4 <xQueueReceive+0x18c>)
  401350:	4798      	blx	r3
  401352:	2800      	cmp	r0, #0
  401354:	d1d1      	bne.n	4012fa <xQueueReceive+0xc2>
			if( prvIsQueueEmpty( pxQueue ) != pdFALSE )
  401356:	4620      	mov	r0, r4
  401358:	4b17      	ldr	r3, [pc, #92]	; (4013b8 <xQueueReceive+0x180>)
  40135a:	4798      	blx	r3
  40135c:	2800      	cmp	r0, #0
  40135e:	d0c6      	beq.n	4012ee <xQueueReceive+0xb6>
				vTaskPlaceOnEventList( &( pxQueue->xTasksWaitingToReceive ), xTicksToWait );
  401360:	9901      	ldr	r1, [sp, #4]
  401362:	f104 0024 	add.w	r0, r4, #36	; 0x24
  401366:	4b18      	ldr	r3, [pc, #96]	; (4013c8 <xQueueReceive+0x190>)
  401368:	4798      	blx	r3
				prvUnlockQueue( pxQueue );
  40136a:	4620      	mov	r0, r4
  40136c:	4b10      	ldr	r3, [pc, #64]	; (4013b0 <xQueueReceive+0x178>)
  40136e:	4798      	blx	r3
				if( xTaskResumeAll() == pdFALSE )
  401370:	4b10      	ldr	r3, [pc, #64]	; (4013b4 <xQueueReceive+0x17c>)
  401372:	4798      	blx	r3
  401374:	2800      	cmp	r0, #0
  401376:	d1ca      	bne.n	40130e <xQueueReceive+0xd6>
					portYIELD_WITHIN_API();
  401378:	f04f 5280 	mov.w	r2, #268435456	; 0x10000000
  40137c:	4b0a      	ldr	r3, [pc, #40]	; (4013a8 <xQueueReceive+0x170>)
  40137e:	601a      	str	r2, [r3, #0]
  401380:	f3bf 8f4f 	dsb	sy
  401384:	f3bf 8f6f 	isb	sy
  401388:	e7c1      	b.n	40130e <xQueueReceive+0xd6>
				return errQUEUE_EMPTY;
  40138a:	2000      	movs	r0, #0
  40138c:	e78d      	b.n	4012aa <xQueueReceive+0x72>
  40138e:	bf00      	nop
  401390:	00401df5 	.word	0x00401df5
  401394:	00403410 	.word	0x00403410
  401398:	00403021 	.word	0x00403021
  40139c:	00400d6d 	.word	0x00400d6d
  4013a0:	0040070d 	.word	0x0040070d
  4013a4:	00401cb5 	.word	0x00401cb5
  4013a8:	e000ed04 	.word	0xe000ed04
  4013ac:	00401d49 	.word	0x00401d49
  4013b0:	00400d95 	.word	0x00400d95
  4013b4:	004019e5 	.word	0x004019e5
  4013b8:	00400c45 	.word	0x00400c45
  4013bc:	004006c5 	.word	0x004006c5
  4013c0:	004018a5 	.word	0x004018a5
  4013c4:	00401d61 	.word	0x00401d61
  4013c8:	00401c2d 	.word	0x00401c2d

004013cc <vQueueAddToRegistry>:
		for( ux = ( UBaseType_t ) 0U; ux < ( UBaseType_t ) configQUEUE_REGISTRY_SIZE; ux++ )
  4013cc:	2300      	movs	r3, #0
  4013ce:	2b07      	cmp	r3, #7
  4013d0:	d80c      	bhi.n	4013ec <vQueueAddToRegistry+0x20>
			if( xQueueRegistry[ ux ].pcQueueName == NULL )
  4013d2:	4a07      	ldr	r2, [pc, #28]	; (4013f0 <vQueueAddToRegistry+0x24>)
  4013d4:	f852 2033 	ldr.w	r2, [r2, r3, lsl #3]
  4013d8:	b10a      	cbz	r2, 4013de <vQueueAddToRegistry+0x12>
		for( ux = ( UBaseType_t ) 0U; ux < ( UBaseType_t ) configQUEUE_REGISTRY_SIZE; ux++ )
  4013da:	3301      	adds	r3, #1
  4013dc:	e7f7      	b.n	4013ce <vQueueAddToRegistry+0x2>
				xQueueRegistry[ ux ].pcQueueName = pcQueueName;
  4013de:	4a04      	ldr	r2, [pc, #16]	; (4013f0 <vQueueAddToRegistry+0x24>)
  4013e0:	f842 1033 	str.w	r1, [r2, r3, lsl #3]
				xQueueRegistry[ ux ].xHandle = xQueue;
  4013e4:	eb02 03c3 	add.w	r3, r2, r3, lsl #3
  4013e8:	6058      	str	r0, [r3, #4]
				break;
  4013ea:	4770      	bx	lr
  4013ec:	4770      	bx	lr
  4013ee:	bf00      	nop
  4013f0:	2000069c 	.word	0x2000069c

004013f4 <vQueueWaitForMessageRestricted>:
	{
  4013f4:	b570      	push	{r4, r5, r6, lr}
  4013f6:	4604      	mov	r4, r0
  4013f8:	460d      	mov	r5, r1
  4013fa:	4616      	mov	r6, r2
		prvLockQueue( pxQueue );
  4013fc:	4b12      	ldr	r3, [pc, #72]	; (401448 <vQueueWaitForMessageRestricted+0x54>)
  4013fe:	4798      	blx	r3
  401400:	f894 3044 	ldrb.w	r3, [r4, #68]	; 0x44
  401404:	b25b      	sxtb	r3, r3
  401406:	f1b3 3fff 	cmp.w	r3, #4294967295
  40140a:	d00d      	beq.n	401428 <vQueueWaitForMessageRestricted+0x34>
  40140c:	f894 3045 	ldrb.w	r3, [r4, #69]	; 0x45
  401410:	b25b      	sxtb	r3, r3
  401412:	f1b3 3fff 	cmp.w	r3, #4294967295
  401416:	d00b      	beq.n	401430 <vQueueWaitForMessageRestricted+0x3c>
  401418:	4b0c      	ldr	r3, [pc, #48]	; (40144c <vQueueWaitForMessageRestricted+0x58>)
  40141a:	4798      	blx	r3
		if( pxQueue->uxMessagesWaiting == ( UBaseType_t ) 0U )
  40141c:	6ba3      	ldr	r3, [r4, #56]	; 0x38
  40141e:	b15b      	cbz	r3, 401438 <vQueueWaitForMessageRestricted+0x44>
		prvUnlockQueue( pxQueue );
  401420:	4620      	mov	r0, r4
  401422:	4b0b      	ldr	r3, [pc, #44]	; (401450 <vQueueWaitForMessageRestricted+0x5c>)
  401424:	4798      	blx	r3
  401426:	bd70      	pop	{r4, r5, r6, pc}
		prvLockQueue( pxQueue );
  401428:	2300      	movs	r3, #0
  40142a:	f884 3044 	strb.w	r3, [r4, #68]	; 0x44
  40142e:	e7ed      	b.n	40140c <vQueueWaitForMessageRestricted+0x18>
  401430:	2300      	movs	r3, #0
  401432:	f884 3045 	strb.w	r3, [r4, #69]	; 0x45
  401436:	e7ef      	b.n	401418 <vQueueWaitForMessageRestricted+0x24>
			vTaskPlaceOnEventListRestricted( &( pxQueue->xTasksWaitingToReceive ), xTicksToWait, xWaitIndefinitely );
  401438:	4632      	mov	r2, r6
  40143a:	4629      	mov	r1, r5
  40143c:	f104 0024 	add.w	r0, r4, #36	; 0x24
  401440:	4b04      	ldr	r3, [pc, #16]	; (401454 <vQueueWaitForMessageRestricted+0x60>)
  401442:	4798      	blx	r3
  401444:	e7ec      	b.n	401420 <vQueueWaitForMessageRestricted+0x2c>
  401446:	bf00      	nop
  401448:	004006c5 	.word	0x004006c5
  40144c:	0040070d 	.word	0x0040070d
  401450:	00400d95 	.word	0x00400d95
  401454:	00401c6d 	.word	0x00401c6d

00401458 <prvResetNextTaskUnblockTime>:

static void prvResetNextTaskUnblockTime( void )
{
TCB_t *pxTCB;

	if( listLIST_IS_EMPTY( pxDelayedTaskList ) != pdFALSE )
  401458:	4b08      	ldr	r3, [pc, #32]	; (40147c <prvResetNextTaskUnblockTime+0x24>)
  40145a:	681b      	ldr	r3, [r3, #0]
  40145c:	681b      	ldr	r3, [r3, #0]
  40145e:	b13b      	cbz	r3, 401470 <prvResetNextTaskUnblockTime+0x18>
	{
		/* The new current delayed list is not empty, get the value of
		the item at the head of the delayed list.  This is the time at
		which the task at the head of the delayed list should be removed
		from the Blocked state. */
		( pxTCB ) = listGET_OWNER_OF_HEAD_ENTRY( pxDelayedTaskList ); /*lint !e9079 void * is used as this macro is used with timers and co-routines too.  Alignment is known to be fine as the type of the pointer stored and retrieved is the same. */
  401460:	4b06      	ldr	r3, [pc, #24]	; (40147c <prvResetNextTaskUnblockTime+0x24>)
  401462:	681b      	ldr	r3, [r3, #0]
  401464:	68db      	ldr	r3, [r3, #12]
  401466:	68db      	ldr	r3, [r3, #12]
		xNextTaskUnblockTime = listGET_LIST_ITEM_VALUE( &( ( pxTCB )->xStateListItem ) );
  401468:	685a      	ldr	r2, [r3, #4]
  40146a:	4b05      	ldr	r3, [pc, #20]	; (401480 <prvResetNextTaskUnblockTime+0x28>)
  40146c:	601a      	str	r2, [r3, #0]
  40146e:	4770      	bx	lr
		xNextTaskUnblockTime = portMAX_DELAY;
  401470:	f04f 32ff 	mov.w	r2, #4294967295
  401474:	4b02      	ldr	r3, [pc, #8]	; (401480 <prvResetNextTaskUnblockTime+0x28>)
  401476:	601a      	str	r2, [r3, #0]
  401478:	4770      	bx	lr
  40147a:	bf00      	nop
  40147c:	20000504 	.word	0x20000504
  401480:	200005f0 	.word	0x200005f0

00401484 <prvDeleteTCB>:
	{
  401484:	b538      	push	{r3, r4, r5, lr}
  401486:	4605      	mov	r5, r0
			vPortFree( pxTCB->pxStack );
  401488:	6b00      	ldr	r0, [r0, #48]	; 0x30
  40148a:	4c02      	ldr	r4, [pc, #8]	; (401494 <prvDeleteTCB+0x10>)
  40148c:	47a0      	blx	r4
			vPortFree( pxTCB );
  40148e:	4628      	mov	r0, r5
  401490:	47a0      	blx	r4
  401492:	bd38      	pop	{r3, r4, r5, pc}
  401494:	00400abd 	.word	0x00400abd

00401498 <prvInitialiseNewTask>:
{
  401498:	e92d 4ff8 	stmdb	sp!, {r3, r4, r5, r6, r7, r8, r9, sl, fp, lr}
  40149c:	4681      	mov	r9, r0
  40149e:	460d      	mov	r5, r1
  4014a0:	4617      	mov	r7, r2
  4014a2:	469a      	mov	sl, r3
  4014a4:	9e0a      	ldr	r6, [sp, #40]	; 0x28
  4014a6:	f8dd 802c 	ldr.w	r8, [sp, #44]	; 0x2c
  4014aa:	9c0c      	ldr	r4, [sp, #48]	; 0x30
		( void ) memset( pxNewTCB->pxStack, ( int ) tskSTACK_FILL_BYTE, ( size_t ) ulStackDepth * sizeof( StackType_t ) );
  4014ac:	0092      	lsls	r2, r2, #2
  4014ae:	21a5      	movs	r1, #165	; 0xa5
  4014b0:	6b20      	ldr	r0, [r4, #48]	; 0x30
  4014b2:	4b25      	ldr	r3, [pc, #148]	; (401548 <prvInitialiseNewTask+0xb0>)
  4014b4:	4798      	blx	r3
		pxTopOfStack = &( pxNewTCB->pxStack[ ulStackDepth - ( uint32_t ) 1 ] );
  4014b6:	6b23      	ldr	r3, [r4, #48]	; 0x30
  4014b8:	f107 4280 	add.w	r2, r7, #1073741824	; 0x40000000
  4014bc:	3a01      	subs	r2, #1
  4014be:	eb03 0782 	add.w	r7, r3, r2, lsl #2
		pxTopOfStack = ( StackType_t * ) ( ( ( portPOINTER_SIZE_TYPE ) pxTopOfStack ) & ( ~( ( portPOINTER_SIZE_TYPE ) portBYTE_ALIGNMENT_MASK ) ) ); /*lint !e923 !e9033 !e9078 MISRA exception.  Avoiding casts between pointers and integers is not practical.  Size differences accounted for using portPOINTER_SIZE_TYPE type.  Checked by assert(). */
  4014c2:	f027 0707 	bic.w	r7, r7, #7
	if( pcName != NULL )
  4014c6:	b315      	cbz	r5, 40150e <prvInitialiseNewTask+0x76>
  4014c8:	2300      	movs	r3, #0
		for( x = ( UBaseType_t ) 0; x < ( UBaseType_t ) configMAX_TASK_NAME_LEN; x++ )
  4014ca:	2b13      	cmp	r3, #19
  4014cc:	d807      	bhi.n	4014de <prvInitialiseNewTask+0x46>
			pxNewTCB->pcTaskName[ x ] = pcName[ x ];
  4014ce:	5ce9      	ldrb	r1, [r5, r3]
  4014d0:	18e2      	adds	r2, r4, r3
  4014d2:	f882 1034 	strb.w	r1, [r2, #52]	; 0x34
			if( pcName[ x ] == ( char ) 0x00 )
  4014d6:	5cea      	ldrb	r2, [r5, r3]
  4014d8:	b10a      	cbz	r2, 4014de <prvInitialiseNewTask+0x46>
		for( x = ( UBaseType_t ) 0; x < ( UBaseType_t ) configMAX_TASK_NAME_LEN; x++ )
  4014da:	3301      	adds	r3, #1
  4014dc:	e7f5      	b.n	4014ca <prvInitialiseNewTask+0x32>
		pxNewTCB->pcTaskName[ configMAX_TASK_NAME_LEN - 1 ] = '\0';
  4014de:	2300      	movs	r3, #0
  4014e0:	f884 3047 	strb.w	r3, [r4, #71]	; 0x47
	if( uxPriority >= ( UBaseType_t ) configMAX_PRIORITIES )
  4014e4:	2e07      	cmp	r6, #7
  4014e6:	d900      	bls.n	4014ea <prvInitialiseNewTask+0x52>
		uxPriority = ( UBaseType_t ) configMAX_PRIORITIES - ( UBaseType_t ) 1U;
  4014e8:	2607      	movs	r6, #7
	pxNewTCB->uxPriority = uxPriority;
  4014ea:	62e6      	str	r6, [r4, #44]	; 0x2c
		pxNewTCB->uxBasePriority = uxPriority;
  4014ec:	6526      	str	r6, [r4, #80]	; 0x50
		pxNewTCB->uxMutexesHeld = 0;
  4014ee:	2500      	movs	r5, #0
  4014f0:	6565      	str	r5, [r4, #84]	; 0x54
	vListInitialiseItem( &( pxNewTCB->xStateListItem ) );
  4014f2:	1d20      	adds	r0, r4, #4
  4014f4:	f8df b058 	ldr.w	fp, [pc, #88]	; 401550 <prvInitialiseNewTask+0xb8>
  4014f8:	47d8      	blx	fp
	vListInitialiseItem( &( pxNewTCB->xEventListItem ) );
  4014fa:	f104 0018 	add.w	r0, r4, #24
  4014fe:	47d8      	blx	fp
	listSET_LIST_ITEM_OWNER( &( pxNewTCB->xStateListItem ), pxNewTCB );
  401500:	6124      	str	r4, [r4, #16]
	listSET_LIST_ITEM_VALUE( &( pxNewTCB->xEventListItem ), ( TickType_t ) configMAX_PRIORITIES - ( TickType_t ) uxPriority ); /*lint !e961 MISRA exception as the casts are only redundant for some ports. */
  401502:	f1c6 0608 	rsb	r6, r6, #8
  401506:	61a6      	str	r6, [r4, #24]
	listSET_LIST_ITEM_OWNER( &( pxNewTCB->xEventListItem ), pxNewTCB );
  401508:	6264      	str	r4, [r4, #36]	; 0x24
		for( x = 0; x < ( UBaseType_t ) configNUM_THREAD_LOCAL_STORAGE_POINTERS; x++ )
  40150a:	462b      	mov	r3, r5
  40150c:	e009      	b.n	401522 <prvInitialiseNewTask+0x8a>
		pxNewTCB->pcTaskName[ 0 ] = 0x00;
  40150e:	2300      	movs	r3, #0
  401510:	f884 3034 	strb.w	r3, [r4, #52]	; 0x34
  401514:	e7e6      	b.n	4014e4 <prvInitialiseNewTask+0x4c>
			pxNewTCB->pvThreadLocalStoragePointers[ x ] = NULL;
  401516:	f103 0216 	add.w	r2, r3, #22
  40151a:	2100      	movs	r1, #0
  40151c:	f844 1022 	str.w	r1, [r4, r2, lsl #2]
		for( x = 0; x < ( UBaseType_t ) configNUM_THREAD_LOCAL_STORAGE_POINTERS; x++ )
  401520:	3301      	adds	r3, #1
  401522:	2b02      	cmp	r3, #2
  401524:	d9f7      	bls.n	401516 <prvInitialiseNewTask+0x7e>
		pxNewTCB->ulNotifiedValue = 0;
  401526:	2300      	movs	r3, #0
  401528:	6663      	str	r3, [r4, #100]	; 0x64
		pxNewTCB->ucNotifyState = taskNOT_WAITING_NOTIFICATION;
  40152a:	f884 3068 	strb.w	r3, [r4, #104]	; 0x68
			pxNewTCB->pxTopOfStack = pxPortInitialiseStack( pxTopOfStack, pxTaskCode, pvParameters );
  40152e:	4652      	mov	r2, sl
  401530:	4649      	mov	r1, r9
  401532:	4638      	mov	r0, r7
  401534:	4b05      	ldr	r3, [pc, #20]	; (40154c <prvInitialiseNewTask+0xb4>)
  401536:	4798      	blx	r3
  401538:	6020      	str	r0, [r4, #0]
	if( pxCreatedTask != NULL )
  40153a:	f1b8 0f00 	cmp.w	r8, #0
  40153e:	d001      	beq.n	401544 <prvInitialiseNewTask+0xac>
		*pxCreatedTask = ( TaskHandle_t ) pxNewTCB;
  401540:	f8c8 4000 	str.w	r4, [r8]
  401544:	e8bd 8ff8 	ldmia.w	sp!, {r3, r4, r5, r6, r7, r8, r9, sl, fp, pc}
  401548:	004031f9 	.word	0x004031f9
  40154c:	0040066d 	.word	0x0040066d
  401550:	00400573 	.word	0x00400573

00401554 <prvInitialiseTaskLists>:
{
  401554:	b570      	push	{r4, r5, r6, lr}
	for( uxPriority = ( UBaseType_t ) 0U; uxPriority < ( UBaseType_t ) configMAX_PRIORITIES; uxPriority++ )
  401556:	2400      	movs	r4, #0
  401558:	e007      	b.n	40156a <prvInitialiseTaskLists+0x16>
		vListInitialise( &( pxReadyTasksLists[ uxPriority ] ) );
  40155a:	eb04 0284 	add.w	r2, r4, r4, lsl #2
  40155e:	0093      	lsls	r3, r2, #2
  401560:	480c      	ldr	r0, [pc, #48]	; (401594 <prvInitialiseTaskLists+0x40>)
  401562:	4418      	add	r0, r3
  401564:	4b0c      	ldr	r3, [pc, #48]	; (401598 <prvInitialiseTaskLists+0x44>)
  401566:	4798      	blx	r3
	for( uxPriority = ( UBaseType_t ) 0U; uxPriority < ( UBaseType_t ) configMAX_PRIORITIES; uxPriority++ )
  401568:	3401      	adds	r4, #1
  40156a:	2c07      	cmp	r4, #7
  40156c:	d9f5      	bls.n	40155a <prvInitialiseTaskLists+0x6>
	vListInitialise( &xDelayedTaskList1 );
  40156e:	4e0b      	ldr	r6, [pc, #44]	; (40159c <prvInitialiseTaskLists+0x48>)
  401570:	4630      	mov	r0, r6
  401572:	4c09      	ldr	r4, [pc, #36]	; (401598 <prvInitialiseTaskLists+0x44>)
  401574:	47a0      	blx	r4
	vListInitialise( &xDelayedTaskList2 );
  401576:	4d0a      	ldr	r5, [pc, #40]	; (4015a0 <prvInitialiseTaskLists+0x4c>)
  401578:	4628      	mov	r0, r5
  40157a:	47a0      	blx	r4
	vListInitialise( &xPendingReadyList );
  40157c:	4809      	ldr	r0, [pc, #36]	; (4015a4 <prvInitialiseTaskLists+0x50>)
  40157e:	47a0      	blx	r4
		vListInitialise( &xTasksWaitingTermination );
  401580:	4809      	ldr	r0, [pc, #36]	; (4015a8 <prvInitialiseTaskLists+0x54>)
  401582:	47a0      	blx	r4
		vListInitialise( &xSuspendedTaskList );
  401584:	4809      	ldr	r0, [pc, #36]	; (4015ac <prvInitialiseTaskLists+0x58>)
  401586:	47a0      	blx	r4
	pxDelayedTaskList = &xDelayedTaskList1;
  401588:	4b09      	ldr	r3, [pc, #36]	; (4015b0 <prvInitialiseTaskLists+0x5c>)
  40158a:	601e      	str	r6, [r3, #0]
	pxOverflowDelayedTaskList = &xDelayedTaskList2;
  40158c:	4b09      	ldr	r3, [pc, #36]	; (4015b4 <prvInitialiseTaskLists+0x60>)
  40158e:	601d      	str	r5, [r3, #0]
  401590:	bd70      	pop	{r4, r5, r6, pc}
  401592:	bf00      	nop
  401594:	2000050c 	.word	0x2000050c
  401598:	0040055d 	.word	0x0040055d
  40159c:	200005c4 	.word	0x200005c4
  4015a0:	200005d8 	.word	0x200005d8
  4015a4:	200005f8 	.word	0x200005f8
  4015a8:	20000624 	.word	0x20000624
  4015ac:	20000610 	.word	0x20000610
  4015b0:	20000504 	.word	0x20000504
  4015b4:	20000508 	.word	0x20000508

004015b8 <prvAddNewTaskToReadyList>:
{
  4015b8:	b510      	push	{r4, lr}
  4015ba:	4604      	mov	r4, r0
	taskENTER_CRITICAL();
  4015bc:	4b22      	ldr	r3, [pc, #136]	; (401648 <prvAddNewTaskToReadyList+0x90>)
  4015be:	4798      	blx	r3
		uxCurrentNumberOfTasks++;
  4015c0:	4a22      	ldr	r2, [pc, #136]	; (40164c <prvAddNewTaskToReadyList+0x94>)
  4015c2:	6813      	ldr	r3, [r2, #0]
  4015c4:	3301      	adds	r3, #1
  4015c6:	6013      	str	r3, [r2, #0]
		if( pxCurrentTCB == NULL )
  4015c8:	4b21      	ldr	r3, [pc, #132]	; (401650 <prvAddNewTaskToReadyList+0x98>)
  4015ca:	681b      	ldr	r3, [r3, #0]
  4015cc:	2b00      	cmp	r3, #0
  4015ce:	d032      	beq.n	401636 <prvAddNewTaskToReadyList+0x7e>
			if( xSchedulerRunning == pdFALSE )
  4015d0:	4b20      	ldr	r3, [pc, #128]	; (401654 <prvAddNewTaskToReadyList+0x9c>)
  4015d2:	681b      	ldr	r3, [r3, #0]
  4015d4:	b93b      	cbnz	r3, 4015e6 <prvAddNewTaskToReadyList+0x2e>
				if( pxCurrentTCB->uxPriority <= pxNewTCB->uxPriority )
  4015d6:	4b1e      	ldr	r3, [pc, #120]	; (401650 <prvAddNewTaskToReadyList+0x98>)
  4015d8:	681b      	ldr	r3, [r3, #0]
  4015da:	6ada      	ldr	r2, [r3, #44]	; 0x2c
  4015dc:	6ae3      	ldr	r3, [r4, #44]	; 0x2c
  4015de:	429a      	cmp	r2, r3
  4015e0:	d801      	bhi.n	4015e6 <prvAddNewTaskToReadyList+0x2e>
					pxCurrentTCB = pxNewTCB;
  4015e2:	4b1b      	ldr	r3, [pc, #108]	; (401650 <prvAddNewTaskToReadyList+0x98>)
  4015e4:	601c      	str	r4, [r3, #0]
		uxTaskNumber++;
  4015e6:	4a1c      	ldr	r2, [pc, #112]	; (401658 <prvAddNewTaskToReadyList+0xa0>)
  4015e8:	6813      	ldr	r3, [r2, #0]
  4015ea:	3301      	adds	r3, #1
  4015ec:	6013      	str	r3, [r2, #0]
			pxNewTCB->uxTCBNumber = uxTaskNumber;
  4015ee:	64a3      	str	r3, [r4, #72]	; 0x48
		prvAddTaskToReadyList( pxNewTCB );
  4015f0:	6ae3      	ldr	r3, [r4, #44]	; 0x2c
  4015f2:	2201      	movs	r2, #1
  4015f4:	409a      	lsls	r2, r3
  4015f6:	4919      	ldr	r1, [pc, #100]	; (40165c <prvAddNewTaskToReadyList+0xa4>)
  4015f8:	6808      	ldr	r0, [r1, #0]
  4015fa:	4302      	orrs	r2, r0
  4015fc:	600a      	str	r2, [r1, #0]
  4015fe:	eb03 0383 	add.w	r3, r3, r3, lsl #2
  401602:	009a      	lsls	r2, r3, #2
  401604:	1d21      	adds	r1, r4, #4
  401606:	4816      	ldr	r0, [pc, #88]	; (401660 <prvAddNewTaskToReadyList+0xa8>)
  401608:	4410      	add	r0, r2
  40160a:	4b16      	ldr	r3, [pc, #88]	; (401664 <prvAddNewTaskToReadyList+0xac>)
  40160c:	4798      	blx	r3
	taskEXIT_CRITICAL();
  40160e:	4b16      	ldr	r3, [pc, #88]	; (401668 <prvAddNewTaskToReadyList+0xb0>)
  401610:	4798      	blx	r3
	if( xSchedulerRunning != pdFALSE )
  401612:	4b10      	ldr	r3, [pc, #64]	; (401654 <prvAddNewTaskToReadyList+0x9c>)
  401614:	681b      	ldr	r3, [r3, #0]
  401616:	b16b      	cbz	r3, 401634 <prvAddNewTaskToReadyList+0x7c>
		if( pxCurrentTCB->uxPriority < pxNewTCB->uxPriority )
  401618:	4b0d      	ldr	r3, [pc, #52]	; (401650 <prvAddNewTaskToReadyList+0x98>)
  40161a:	681b      	ldr	r3, [r3, #0]
  40161c:	6ada      	ldr	r2, [r3, #44]	; 0x2c
  40161e:	6ae3      	ldr	r3, [r4, #44]	; 0x2c
  401620:	429a      	cmp	r2, r3
  401622:	d207      	bcs.n	401634 <prvAddNewTaskToReadyList+0x7c>
			taskYIELD_IF_USING_PREEMPTION();
  401624:	f04f 5280 	mov.w	r2, #268435456	; 0x10000000
  401628:	4b10      	ldr	r3, [pc, #64]	; (40166c <prvAddNewTaskToReadyList+0xb4>)
  40162a:	601a      	str	r2, [r3, #0]
  40162c:	f3bf 8f4f 	dsb	sy
  401630:	f3bf 8f6f 	isb	sy
  401634:	bd10      	pop	{r4, pc}
			pxCurrentTCB = pxNewTCB;
  401636:	4b06      	ldr	r3, [pc, #24]	; (401650 <prvAddNewTaskToReadyList+0x98>)
  401638:	601c      	str	r4, [r3, #0]
			if( uxCurrentNumberOfTasks == ( UBaseType_t ) 1 )
  40163a:	6813      	ldr	r3, [r2, #0]
  40163c:	2b01      	cmp	r3, #1
  40163e:	d1d2      	bne.n	4015e6 <prvAddNewTaskToReadyList+0x2e>
				prvInitialiseTaskLists();
  401640:	4b0b      	ldr	r3, [pc, #44]	; (401670 <prvAddNewTaskToReadyList+0xb8>)
  401642:	4798      	blx	r3
  401644:	e7cf      	b.n	4015e6 <prvAddNewTaskToReadyList+0x2e>
  401646:	bf00      	nop
  401648:	004006c5 	.word	0x004006c5
  40164c:	200005ac 	.word	0x200005ac
  401650:	20000500 	.word	0x20000500
  401654:	2000060c 	.word	0x2000060c
  401658:	200005bc 	.word	0x200005bc
  40165c:	200005c0 	.word	0x200005c0
  401660:	2000050c 	.word	0x2000050c
  401664:	00400579 	.word	0x00400579
  401668:	0040070d 	.word	0x0040070d
  40166c:	e000ed04 	.word	0xe000ed04
  401670:	00401555 	.word	0x00401555

00401674 <prvCheckTasksWaitingTermination>:
		while( uxDeletedTasksWaitingCleanUp > ( UBaseType_t ) 0U )
  401674:	4b0f      	ldr	r3, [pc, #60]	; (4016b4 <prvCheckTasksWaitingTermination+0x40>)
  401676:	681b      	ldr	r3, [r3, #0]
  401678:	b1d3      	cbz	r3, 4016b0 <prvCheckTasksWaitingTermination+0x3c>
{
  40167a:	b510      	push	{r4, lr}
			taskENTER_CRITICAL();
  40167c:	4b0e      	ldr	r3, [pc, #56]	; (4016b8 <prvCheckTasksWaitingTermination+0x44>)
  40167e:	4798      	blx	r3
				pxTCB = listGET_OWNER_OF_HEAD_ENTRY( ( &xTasksWaitingTermination ) ); /*lint !e9079 void * is used as this macro is used with timers and co-routines too.  Alignment is known to be fine as the type of the pointer stored and retrieved is the same. */
  401680:	4b0e      	ldr	r3, [pc, #56]	; (4016bc <prvCheckTasksWaitingTermination+0x48>)
  401682:	68db      	ldr	r3, [r3, #12]
  401684:	68dc      	ldr	r4, [r3, #12]
				( void ) uxListRemove( &( pxTCB->xStateListItem ) );
  401686:	1d20      	adds	r0, r4, #4
  401688:	4b0d      	ldr	r3, [pc, #52]	; (4016c0 <prvCheckTasksWaitingTermination+0x4c>)
  40168a:	4798      	blx	r3
				--uxCurrentNumberOfTasks;
  40168c:	4a0d      	ldr	r2, [pc, #52]	; (4016c4 <prvCheckTasksWaitingTermination+0x50>)
  40168e:	6813      	ldr	r3, [r2, #0]
  401690:	3b01      	subs	r3, #1
  401692:	6013      	str	r3, [r2, #0]
				--uxDeletedTasksWaitingCleanUp;
  401694:	4a07      	ldr	r2, [pc, #28]	; (4016b4 <prvCheckTasksWaitingTermination+0x40>)
  401696:	6813      	ldr	r3, [r2, #0]
  401698:	3b01      	subs	r3, #1
  40169a:	6013      	str	r3, [r2, #0]
			taskEXIT_CRITICAL();
  40169c:	4b0a      	ldr	r3, [pc, #40]	; (4016c8 <prvCheckTasksWaitingTermination+0x54>)
  40169e:	4798      	blx	r3
			prvDeleteTCB( pxTCB );
  4016a0:	4620      	mov	r0, r4
  4016a2:	4b0a      	ldr	r3, [pc, #40]	; (4016cc <prvCheckTasksWaitingTermination+0x58>)
  4016a4:	4798      	blx	r3
		while( uxDeletedTasksWaitingCleanUp > ( UBaseType_t ) 0U )
  4016a6:	4b03      	ldr	r3, [pc, #12]	; (4016b4 <prvCheckTasksWaitingTermination+0x40>)
  4016a8:	681b      	ldr	r3, [r3, #0]
  4016aa:	2b00      	cmp	r3, #0
  4016ac:	d1e6      	bne.n	40167c <prvCheckTasksWaitingTermination+0x8>
}
  4016ae:	bd10      	pop	{r4, pc}
  4016b0:	4770      	bx	lr
  4016b2:	bf00      	nop
  4016b4:	200005b0 	.word	0x200005b0
  4016b8:	004006c5 	.word	0x004006c5
  4016bc:	20000624 	.word	0x20000624
  4016c0:	004005c5 	.word	0x004005c5
  4016c4:	200005ac 	.word	0x200005ac
  4016c8:	0040070d 	.word	0x0040070d
  4016cc:	00401485 	.word	0x00401485

004016d0 <prvIdleTask>:
{
  4016d0:	b508      	push	{r3, lr}
		prvCheckTasksWaitingTermination();
  4016d2:	4b07      	ldr	r3, [pc, #28]	; (4016f0 <prvIdleTask+0x20>)
  4016d4:	4798      	blx	r3
			if( listCURRENT_LIST_LENGTH( &( pxReadyTasksLists[ tskIDLE_PRIORITY ] ) ) > ( UBaseType_t ) 1 )
  4016d6:	4b07      	ldr	r3, [pc, #28]	; (4016f4 <prvIdleTask+0x24>)
  4016d8:	681b      	ldr	r3, [r3, #0]
  4016da:	2b01      	cmp	r3, #1
  4016dc:	d9f9      	bls.n	4016d2 <prvIdleTask+0x2>
				taskYIELD();
  4016de:	f04f 5280 	mov.w	r2, #268435456	; 0x10000000
  4016e2:	4b05      	ldr	r3, [pc, #20]	; (4016f8 <prvIdleTask+0x28>)
  4016e4:	601a      	str	r2, [r3, #0]
  4016e6:	f3bf 8f4f 	dsb	sy
  4016ea:	f3bf 8f6f 	isb	sy
  4016ee:	e7f0      	b.n	4016d2 <prvIdleTask+0x2>
  4016f0:	00401675 	.word	0x00401675
  4016f4:	2000050c 	.word	0x2000050c
  4016f8:	e000ed04 	.word	0xe000ed04

004016fc <prvAddCurrentTaskToDelayedList>:
	}
#endif
/*-----------------------------------------------------------*/

static void prvAddCurrentTaskToDelayedList( TickType_t xTicksToWait, const BaseType_t xCanBlockIndefinitely )
{
  4016fc:	b570      	push	{r4, r5, r6, lr}
  4016fe:	4604      	mov	r4, r0
  401700:	460e      	mov	r6, r1
TickType_t xTimeToWake;
const TickType_t xConstTickCount = xTickCount;
  401702:	4b1d      	ldr	r3, [pc, #116]	; (401778 <prvAddCurrentTaskToDelayedList+0x7c>)
  401704:	681d      	ldr	r5, [r3, #0]
	}
	#endif

	/* Remove the task from the ready list before adding it to the blocked list
	as the same list item is used for both lists. */
	if( uxListRemove( &( pxCurrentTCB->xStateListItem ) ) == ( UBaseType_t ) 0 )
  401706:	4b1d      	ldr	r3, [pc, #116]	; (40177c <prvAddCurrentTaskToDelayedList+0x80>)
  401708:	6818      	ldr	r0, [r3, #0]
  40170a:	3004      	adds	r0, #4
  40170c:	4b1c      	ldr	r3, [pc, #112]	; (401780 <prvAddCurrentTaskToDelayedList+0x84>)
  40170e:	4798      	blx	r3
  401710:	b950      	cbnz	r0, 401728 <prvAddCurrentTaskToDelayedList+0x2c>
	{
		/* The current task must be in a ready list, so there is no need to
		check, and the port reset macro can be called directly. */
		portRESET_READY_PRIORITY( pxCurrentTCB->uxPriority, uxTopReadyPriority ); /*lint !e931 pxCurrentTCB cannot change as it is the calling task.  pxCurrentTCB->uxPriority and uxTopReadyPriority cannot change as called with scheduler suspended or in a critical section. */
  401712:	4b1a      	ldr	r3, [pc, #104]	; (40177c <prvAddCurrentTaskToDelayedList+0x80>)
  401714:	681b      	ldr	r3, [r3, #0]
  401716:	6ada      	ldr	r2, [r3, #44]	; 0x2c
  401718:	2301      	movs	r3, #1
  40171a:	fa03 f202 	lsl.w	r2, r3, r2
  40171e:	4919      	ldr	r1, [pc, #100]	; (401784 <prvAddCurrentTaskToDelayedList+0x88>)
  401720:	680b      	ldr	r3, [r1, #0]
  401722:	ea23 0302 	bic.w	r3, r3, r2
  401726:	600b      	str	r3, [r1, #0]
		mtCOVERAGE_TEST_MARKER();
	}

	#if ( INCLUDE_vTaskSuspend == 1 )
	{
		if( ( xTicksToWait == portMAX_DELAY ) && ( xCanBlockIndefinitely != pdFALSE ) )
  401728:	f1b4 3fff 	cmp.w	r4, #4294967295
  40172c:	d013      	beq.n	401756 <prvAddCurrentTaskToDelayedList+0x5a>
		else
		{
			/* Calculate the time at which the task should be woken if the event
			does not occur.  This may overflow but this doesn't matter, the
			kernel will manage it correctly. */
			xTimeToWake = xConstTickCount + xTicksToWait;
  40172e:	442c      	add	r4, r5

			/* The list item will be inserted in wake time order. */
			listSET_LIST_ITEM_VALUE( &( pxCurrentTCB->xStateListItem ), xTimeToWake );
  401730:	4b12      	ldr	r3, [pc, #72]	; (40177c <prvAddCurrentTaskToDelayedList+0x80>)
  401732:	681b      	ldr	r3, [r3, #0]
  401734:	605c      	str	r4, [r3, #4]

			if( xTimeToWake < xConstTickCount )
  401736:	42a5      	cmp	r5, r4
  401738:	d816      	bhi.n	401768 <prvAddCurrentTaskToDelayedList+0x6c>
			}
			else
			{
				/* The wake time has not overflowed, so the current block list
				is used. */
				vListInsert( pxDelayedTaskList, &( pxCurrentTCB->xStateListItem ) );
  40173a:	4b13      	ldr	r3, [pc, #76]	; (401788 <prvAddCurrentTaskToDelayedList+0x8c>)
  40173c:	6818      	ldr	r0, [r3, #0]
  40173e:	4b0f      	ldr	r3, [pc, #60]	; (40177c <prvAddCurrentTaskToDelayedList+0x80>)
  401740:	6819      	ldr	r1, [r3, #0]
  401742:	3104      	adds	r1, #4
  401744:	4b11      	ldr	r3, [pc, #68]	; (40178c <prvAddCurrentTaskToDelayedList+0x90>)
  401746:	4798      	blx	r3

				/* If the task entering the blocked state was placed at the
				head of the list of blocked tasks then xNextTaskUnblockTime
				needs to be updated too. */
				if( xTimeToWake < xNextTaskUnblockTime )
  401748:	4b11      	ldr	r3, [pc, #68]	; (401790 <prvAddCurrentTaskToDelayedList+0x94>)
  40174a:	681b      	ldr	r3, [r3, #0]
  40174c:	429c      	cmp	r4, r3
  40174e:	d201      	bcs.n	401754 <prvAddCurrentTaskToDelayedList+0x58>
				{
					xNextTaskUnblockTime = xTimeToWake;
  401750:	4b0f      	ldr	r3, [pc, #60]	; (401790 <prvAddCurrentTaskToDelayedList+0x94>)
  401752:	601c      	str	r4, [r3, #0]
  401754:	bd70      	pop	{r4, r5, r6, pc}
		if( ( xTicksToWait == portMAX_DELAY ) && ( xCanBlockIndefinitely != pdFALSE ) )
  401756:	2e00      	cmp	r6, #0
  401758:	d0e9      	beq.n	40172e <prvAddCurrentTaskToDelayedList+0x32>
			vListInsertEnd( &xSuspendedTaskList, &( pxCurrentTCB->xStateListItem ) );
  40175a:	4b08      	ldr	r3, [pc, #32]	; (40177c <prvAddCurrentTaskToDelayedList+0x80>)
  40175c:	6819      	ldr	r1, [r3, #0]
  40175e:	3104      	adds	r1, #4
  401760:	480c      	ldr	r0, [pc, #48]	; (401794 <prvAddCurrentTaskToDelayedList+0x98>)
  401762:	4b0d      	ldr	r3, [pc, #52]	; (401798 <prvAddCurrentTaskToDelayedList+0x9c>)
  401764:	4798      	blx	r3
  401766:	bd70      	pop	{r4, r5, r6, pc}
				vListInsert( pxOverflowDelayedTaskList, &( pxCurrentTCB->xStateListItem ) );
  401768:	4b0c      	ldr	r3, [pc, #48]	; (40179c <prvAddCurrentTaskToDelayedList+0xa0>)
  40176a:	6818      	ldr	r0, [r3, #0]
  40176c:	4b03      	ldr	r3, [pc, #12]	; (40177c <prvAddCurrentTaskToDelayedList+0x80>)
  40176e:	6819      	ldr	r1, [r3, #0]
  401770:	3104      	adds	r1, #4
  401772:	4b06      	ldr	r3, [pc, #24]	; (40178c <prvAddCurrentTaskToDelayedList+0x90>)
  401774:	4798      	blx	r3
  401776:	bd70      	pop	{r4, r5, r6, pc}
  401778:	20000638 	.word	0x20000638
  40177c:	20000500 	.word	0x20000500
  401780:	004005c5 	.word	0x004005c5
  401784:	200005c0 	.word	0x200005c0
  401788:	20000504 	.word	0x20000504
  40178c:	00400591 	.word	0x00400591
  401790:	200005f0 	.word	0x200005f0
  401794:	20000610 	.word	0x20000610
  401798:	00400579 	.word	0x00400579
  40179c:	20000508 	.word	0x20000508

004017a0 <xTaskCreate>:
	{
  4017a0:	e92d 43f0 	stmdb	sp!, {r4, r5, r6, r7, r8, r9, lr}
  4017a4:	b085      	sub	sp, #20
  4017a6:	4606      	mov	r6, r0
  4017a8:	460f      	mov	r7, r1
  4017aa:	4615      	mov	r5, r2
  4017ac:	4698      	mov	r8, r3
			pxStack = pvPortMalloc( ( ( ( size_t ) usStackDepth ) * sizeof( StackType_t ) ) ); /*lint !e9079 All values returned by pvPortMalloc() have at least the alignment required by the MCU's stack and this allocation is the stack. */
  4017ae:	0090      	lsls	r0, r2, #2
  4017b0:	4b14      	ldr	r3, [pc, #80]	; (401804 <xTaskCreate+0x64>)
  4017b2:	4798      	blx	r3
			if( pxStack != NULL )
  4017b4:	b300      	cbz	r0, 4017f8 <xTaskCreate+0x58>
  4017b6:	4681      	mov	r9, r0
				pxNewTCB = ( TCB_t * ) pvPortMalloc( sizeof( TCB_t ) ); /*lint !e9087 !e9079 All values returned by pvPortMalloc() have at least the alignment required by the MCU's stack, and the first member of TCB_t is always a pointer to the task's stack. */
  4017b8:	206c      	movs	r0, #108	; 0x6c
  4017ba:	4b12      	ldr	r3, [pc, #72]	; (401804 <xTaskCreate+0x64>)
  4017bc:	4798      	blx	r3
				if( pxNewTCB != NULL )
  4017be:	4604      	mov	r4, r0
  4017c0:	b1b0      	cbz	r0, 4017f0 <xTaskCreate+0x50>
					pxNewTCB->pxStack = pxStack;
  4017c2:	f8c0 9030 	str.w	r9, [r0, #48]	; 0x30
		if( pxNewTCB != NULL )
  4017c6:	b1cc      	cbz	r4, 4017fc <xTaskCreate+0x5c>
			prvInitialiseNewTask( pxTaskCode, pcName, ( uint32_t ) usStackDepth, pvParameters, uxPriority, pxCreatedTask, pxNewTCB, NULL );
  4017c8:	2300      	movs	r3, #0
  4017ca:	9303      	str	r3, [sp, #12]
  4017cc:	9402      	str	r4, [sp, #8]
  4017ce:	9b0d      	ldr	r3, [sp, #52]	; 0x34
  4017d0:	9301      	str	r3, [sp, #4]
  4017d2:	9b0c      	ldr	r3, [sp, #48]	; 0x30
  4017d4:	9300      	str	r3, [sp, #0]
  4017d6:	4643      	mov	r3, r8
  4017d8:	462a      	mov	r2, r5
  4017da:	4639      	mov	r1, r7
  4017dc:	4630      	mov	r0, r6
  4017de:	4d0a      	ldr	r5, [pc, #40]	; (401808 <xTaskCreate+0x68>)
  4017e0:	47a8      	blx	r5
			prvAddNewTaskToReadyList( pxNewTCB );
  4017e2:	4620      	mov	r0, r4
  4017e4:	4b09      	ldr	r3, [pc, #36]	; (40180c <xTaskCreate+0x6c>)
  4017e6:	4798      	blx	r3
			xReturn = pdPASS;
  4017e8:	2001      	movs	r0, #1
	}
  4017ea:	b005      	add	sp, #20
  4017ec:	e8bd 83f0 	ldmia.w	sp!, {r4, r5, r6, r7, r8, r9, pc}
					vPortFree( pxStack );
  4017f0:	4648      	mov	r0, r9
  4017f2:	4b07      	ldr	r3, [pc, #28]	; (401810 <xTaskCreate+0x70>)
  4017f4:	4798      	blx	r3
  4017f6:	e7e6      	b.n	4017c6 <xTaskCreate+0x26>
				pxNewTCB = NULL;
  4017f8:	2400      	movs	r4, #0
  4017fa:	e7e4      	b.n	4017c6 <xTaskCreate+0x26>
			xReturn = errCOULD_NOT_ALLOCATE_REQUIRED_MEMORY;
  4017fc:	f04f 30ff 	mov.w	r0, #4294967295
		return xReturn;
  401800:	e7f3      	b.n	4017ea <xTaskCreate+0x4a>
  401802:	bf00      	nop
  401804:	004009d9 	.word	0x004009d9
  401808:	00401499 	.word	0x00401499
  40180c:	004015b9 	.word	0x004015b9
  401810:	00400abd 	.word	0x00400abd

00401814 <vTaskStartScheduler>:
{
  401814:	b510      	push	{r4, lr}
  401816:	b082      	sub	sp, #8
		xReturn = xTaskCreate(	prvIdleTask,
  401818:	4b17      	ldr	r3, [pc, #92]	; (401878 <vTaskStartScheduler+0x64>)
  40181a:	9301      	str	r3, [sp, #4]
  40181c:	2300      	movs	r3, #0
  40181e:	9300      	str	r3, [sp, #0]
  401820:	2282      	movs	r2, #130	; 0x82
  401822:	4916      	ldr	r1, [pc, #88]	; (40187c <vTaskStartScheduler+0x68>)
  401824:	4816      	ldr	r0, [pc, #88]	; (401880 <vTaskStartScheduler+0x6c>)
  401826:	4c17      	ldr	r4, [pc, #92]	; (401884 <vTaskStartScheduler+0x70>)
  401828:	47a0      	blx	r4
		if( xReturn == pdPASS )
  40182a:	2801      	cmp	r0, #1
  40182c:	d006      	beq.n	40183c <vTaskStartScheduler+0x28>
	if( xReturn == pdPASS )
  40182e:	2801      	cmp	r0, #1
  401830:	d007      	beq.n	401842 <vTaskStartScheduler+0x2e>
		configASSERT( xReturn != errCOULD_NOT_ALLOCATE_REQUIRED_MEMORY );
  401832:	f1b0 3fff 	cmp.w	r0, #4294967295
  401836:	d019      	beq.n	40186c <vTaskStartScheduler+0x58>
}
  401838:	b002      	add	sp, #8
  40183a:	bd10      	pop	{r4, pc}
			xReturn = xTimerCreateTimerTask();
  40183c:	4b12      	ldr	r3, [pc, #72]	; (401888 <vTaskStartScheduler+0x74>)
  40183e:	4798      	blx	r3
  401840:	e7f5      	b.n	40182e <vTaskStartScheduler+0x1a>
	__asm volatile
  401842:	f04f 0350 	mov.w	r3, #80	; 0x50
  401846:	f383 8811 	msr	BASEPRI, r3
  40184a:	f3bf 8f6f 	isb	sy
  40184e:	f3bf 8f4f 	dsb	sy
		xNextTaskUnblockTime = portMAX_DELAY;
  401852:	f04f 32ff 	mov.w	r2, #4294967295
  401856:	4b0d      	ldr	r3, [pc, #52]	; (40188c <vTaskStartScheduler+0x78>)
  401858:	601a      	str	r2, [r3, #0]
		xSchedulerRunning = pdTRUE;
  40185a:	2201      	movs	r2, #1
  40185c:	4b0c      	ldr	r3, [pc, #48]	; (401890 <vTaskStartScheduler+0x7c>)
  40185e:	601a      	str	r2, [r3, #0]
		xTickCount = ( TickType_t ) configINITIAL_TICK_COUNT;
  401860:	2200      	movs	r2, #0
  401862:	4b0c      	ldr	r3, [pc, #48]	; (401894 <vTaskStartScheduler+0x80>)
  401864:	601a      	str	r2, [r3, #0]
		if( xPortStartScheduler() != pdFALSE )
  401866:	4b0c      	ldr	r3, [pc, #48]	; (401898 <vTaskStartScheduler+0x84>)
  401868:	4798      	blx	r3
  40186a:	e7e5      	b.n	401838 <vTaskStartScheduler+0x24>
		configASSERT( xReturn != errCOULD_NOT_ALLOCATE_REQUIRED_MEMORY );
  40186c:	f44f 6102 	mov.w	r1, #2080	; 0x820
  401870:	480a      	ldr	r0, [pc, #40]	; (40189c <vTaskStartScheduler+0x88>)
  401872:	4b0b      	ldr	r3, [pc, #44]	; (4018a0 <vTaskStartScheduler+0x8c>)
  401874:	4798      	blx	r3
}
  401876:	e7df      	b.n	401838 <vTaskStartScheduler+0x24>
  401878:	200005ec 	.word	0x200005ec
  40187c:	00403440 	.word	0x00403440
  401880:	004016d1 	.word	0x004016d1
  401884:	004017a1 	.word	0x004017a1
  401888:	00402079 	.word	0x00402079
  40188c:	200005f0 	.word	0x200005f0
  401890:	2000060c 	.word	0x2000060c
  401894:	20000638 	.word	0x20000638
  401898:	0040080d 	.word	0x0040080d
  40189c:	00403428 	.word	0x00403428
  4018a0:	00403021 	.word	0x00403021

004018a4 <vTaskSuspendAll>:
	++uxSchedulerSuspended;
  4018a4:	4a02      	ldr	r2, [pc, #8]	; (4018b0 <vTaskSuspendAll+0xc>)
  4018a6:	6813      	ldr	r3, [r2, #0]
  4018a8:	3301      	adds	r3, #1
  4018aa:	6013      	str	r3, [r2, #0]
	portMEMORY_BARRIER();
  4018ac:	4770      	bx	lr
  4018ae:	bf00      	nop
  4018b0:	200005b8 	.word	0x200005b8

004018b4 <xTaskGetTickCount>:
		xTicks = xTickCount;
  4018b4:	4b01      	ldr	r3, [pc, #4]	; (4018bc <xTaskGetTickCount+0x8>)
  4018b6:	6818      	ldr	r0, [r3, #0]
}
  4018b8:	4770      	bx	lr
  4018ba:	bf00      	nop
  4018bc:	20000638 	.word	0x20000638

004018c0 <xTaskIncrementTick>:
{
  4018c0:	b5f8      	push	{r3, r4, r5, r6, r7, lr}
	if( uxSchedulerSuspended == ( UBaseType_t ) pdFALSE )
  4018c2:	4b38      	ldr	r3, [pc, #224]	; (4019a4 <xTaskIncrementTick+0xe4>)
  4018c4:	681b      	ldr	r3, [r3, #0]
  4018c6:	2b00      	cmp	r3, #0
  4018c8:	d161      	bne.n	40198e <xTaskIncrementTick+0xce>
		const TickType_t xConstTickCount = xTickCount + ( TickType_t ) 1;
  4018ca:	4b37      	ldr	r3, [pc, #220]	; (4019a8 <xTaskIncrementTick+0xe8>)
  4018cc:	681e      	ldr	r6, [r3, #0]
  4018ce:	3601      	adds	r6, #1
		xTickCount = xConstTickCount;
  4018d0:	601e      	str	r6, [r3, #0]
		if( xConstTickCount == ( TickType_t ) 0U ) /*lint !e774 'if' does not always evaluate to false as it is looking for an overflow. */
  4018d2:	b97e      	cbnz	r6, 4018f4 <xTaskIncrementTick+0x34>
			taskSWITCH_DELAYED_LISTS();
  4018d4:	4b35      	ldr	r3, [pc, #212]	; (4019ac <xTaskIncrementTick+0xec>)
  4018d6:	681b      	ldr	r3, [r3, #0]
  4018d8:	681b      	ldr	r3, [r3, #0]
  4018da:	b9e3      	cbnz	r3, 401916 <xTaskIncrementTick+0x56>
  4018dc:	4a33      	ldr	r2, [pc, #204]	; (4019ac <xTaskIncrementTick+0xec>)
  4018de:	6811      	ldr	r1, [r2, #0]
  4018e0:	4b33      	ldr	r3, [pc, #204]	; (4019b0 <xTaskIncrementTick+0xf0>)
  4018e2:	6818      	ldr	r0, [r3, #0]
  4018e4:	6010      	str	r0, [r2, #0]
  4018e6:	6019      	str	r1, [r3, #0]
  4018e8:	4a32      	ldr	r2, [pc, #200]	; (4019b4 <xTaskIncrementTick+0xf4>)
  4018ea:	6813      	ldr	r3, [r2, #0]
  4018ec:	3301      	adds	r3, #1
  4018ee:	6013      	str	r3, [r2, #0]
  4018f0:	4b31      	ldr	r3, [pc, #196]	; (4019b8 <xTaskIncrementTick+0xf8>)
  4018f2:	4798      	blx	r3
		if( xConstTickCount >= xNextTaskUnblockTime )
  4018f4:	4b31      	ldr	r3, [pc, #196]	; (4019bc <xTaskIncrementTick+0xfc>)
  4018f6:	681b      	ldr	r3, [r3, #0]
  4018f8:	429e      	cmp	r6, r3
  4018fa:	d23e      	bcs.n	40197a <xTaskIncrementTick+0xba>
BaseType_t xSwitchRequired = pdFALSE;
  4018fc:	2700      	movs	r7, #0
			if( listCURRENT_LIST_LENGTH( &( pxReadyTasksLists[ pxCurrentTCB->uxPriority ] ) ) > ( UBaseType_t ) 1 )
  4018fe:	4b30      	ldr	r3, [pc, #192]	; (4019c0 <xTaskIncrementTick+0x100>)
  401900:	681b      	ldr	r3, [r3, #0]
  401902:	6adb      	ldr	r3, [r3, #44]	; 0x2c
  401904:	eb03 0383 	add.w	r3, r3, r3, lsl #2
  401908:	009a      	lsls	r2, r3, #2
  40190a:	4b2e      	ldr	r3, [pc, #184]	; (4019c4 <xTaskIncrementTick+0x104>)
  40190c:	589b      	ldr	r3, [r3, r2]
  40190e:	2b01      	cmp	r3, #1
  401910:	d942      	bls.n	401998 <xTaskIncrementTick+0xd8>
				xSwitchRequired = pdTRUE;
  401912:	2701      	movs	r7, #1
  401914:	e040      	b.n	401998 <xTaskIncrementTick+0xd8>
			taskSWITCH_DELAYED_LISTS();
  401916:	f640 217f 	movw	r1, #2687	; 0xa7f
  40191a:	482b      	ldr	r0, [pc, #172]	; (4019c8 <xTaskIncrementTick+0x108>)
  40191c:	4b2b      	ldr	r3, [pc, #172]	; (4019cc <xTaskIncrementTick+0x10c>)
  40191e:	4798      	blx	r3
  401920:	e7dc      	b.n	4018dc <xTaskIncrementTick+0x1c>
							xSwitchRequired = pdTRUE;
  401922:	2701      	movs	r7, #1
				if( listLIST_IS_EMPTY( pxDelayedTaskList ) != pdFALSE )
  401924:	4b21      	ldr	r3, [pc, #132]	; (4019ac <xTaskIncrementTick+0xec>)
  401926:	681b      	ldr	r3, [r3, #0]
  401928:	681b      	ldr	r3, [r3, #0]
  40192a:	b343      	cbz	r3, 40197e <xTaskIncrementTick+0xbe>
					pxTCB = listGET_OWNER_OF_HEAD_ENTRY( pxDelayedTaskList ); /*lint !e9079 void * is used as this macro is used with timers and co-routines too.  Alignment is known to be fine as the type of the pointer stored and retrieved is the same. */
  40192c:	4b1f      	ldr	r3, [pc, #124]	; (4019ac <xTaskIncrementTick+0xec>)
  40192e:	681b      	ldr	r3, [r3, #0]
  401930:	68db      	ldr	r3, [r3, #12]
  401932:	68dc      	ldr	r4, [r3, #12]
					xItemValue = listGET_LIST_ITEM_VALUE( &( pxTCB->xStateListItem ) );
  401934:	6863      	ldr	r3, [r4, #4]
					if( xConstTickCount < xItemValue )
  401936:	429e      	cmp	r6, r3
  401938:	d326      	bcc.n	401988 <xTaskIncrementTick+0xc8>
					( void ) uxListRemove( &( pxTCB->xStateListItem ) );
  40193a:	1d25      	adds	r5, r4, #4
  40193c:	4628      	mov	r0, r5
  40193e:	4b24      	ldr	r3, [pc, #144]	; (4019d0 <xTaskIncrementTick+0x110>)
  401940:	4798      	blx	r3
					if( listLIST_ITEM_CONTAINER( &( pxTCB->xEventListItem ) ) != NULL )
  401942:	6aa3      	ldr	r3, [r4, #40]	; 0x28
  401944:	b11b      	cbz	r3, 40194e <xTaskIncrementTick+0x8e>
						( void ) uxListRemove( &( pxTCB->xEventListItem ) );
  401946:	f104 0018 	add.w	r0, r4, #24
  40194a:	4b21      	ldr	r3, [pc, #132]	; (4019d0 <xTaskIncrementTick+0x110>)
  40194c:	4798      	blx	r3
					prvAddTaskToReadyList( pxTCB );
  40194e:	6ae3      	ldr	r3, [r4, #44]	; 0x2c
  401950:	2201      	movs	r2, #1
  401952:	409a      	lsls	r2, r3
  401954:	491f      	ldr	r1, [pc, #124]	; (4019d4 <xTaskIncrementTick+0x114>)
  401956:	6808      	ldr	r0, [r1, #0]
  401958:	4302      	orrs	r2, r0
  40195a:	600a      	str	r2, [r1, #0]
  40195c:	eb03 0383 	add.w	r3, r3, r3, lsl #2
  401960:	009a      	lsls	r2, r3, #2
  401962:	4629      	mov	r1, r5
  401964:	4817      	ldr	r0, [pc, #92]	; (4019c4 <xTaskIncrementTick+0x104>)
  401966:	4410      	add	r0, r2
  401968:	4b1b      	ldr	r3, [pc, #108]	; (4019d8 <xTaskIncrementTick+0x118>)
  40196a:	4798      	blx	r3
						if( pxTCB->uxPriority >= pxCurrentTCB->uxPriority )
  40196c:	6ae2      	ldr	r2, [r4, #44]	; 0x2c
  40196e:	4b14      	ldr	r3, [pc, #80]	; (4019c0 <xTaskIncrementTick+0x100>)
  401970:	681b      	ldr	r3, [r3, #0]
  401972:	6adb      	ldr	r3, [r3, #44]	; 0x2c
  401974:	429a      	cmp	r2, r3
  401976:	d2d4      	bcs.n	401922 <xTaskIncrementTick+0x62>
  401978:	e7d4      	b.n	401924 <xTaskIncrementTick+0x64>
  40197a:	2700      	movs	r7, #0
  40197c:	e7d2      	b.n	401924 <xTaskIncrementTick+0x64>
					xNextTaskUnblockTime = portMAX_DELAY; /*lint !e961 MISRA exception as the casts are only redundant for some ports. */
  40197e:	f04f 32ff 	mov.w	r2, #4294967295
  401982:	4b0e      	ldr	r3, [pc, #56]	; (4019bc <xTaskIncrementTick+0xfc>)
  401984:	601a      	str	r2, [r3, #0]
					break;
  401986:	e7ba      	b.n	4018fe <xTaskIncrementTick+0x3e>
						xNextTaskUnblockTime = xItemValue;
  401988:	4a0c      	ldr	r2, [pc, #48]	; (4019bc <xTaskIncrementTick+0xfc>)
  40198a:	6013      	str	r3, [r2, #0]
						break; /*lint !e9011 Code structure here is deedmed easier to understand with multiple breaks. */
  40198c:	e7b7      	b.n	4018fe <xTaskIncrementTick+0x3e>
		++uxPendedTicks;
  40198e:	4a13      	ldr	r2, [pc, #76]	; (4019dc <xTaskIncrementTick+0x11c>)
  401990:	6813      	ldr	r3, [r2, #0]
  401992:	3301      	adds	r3, #1
  401994:	6013      	str	r3, [r2, #0]
BaseType_t xSwitchRequired = pdFALSE;
  401996:	2700      	movs	r7, #0
		if( xYieldPending != pdFALSE )
  401998:	4b11      	ldr	r3, [pc, #68]	; (4019e0 <xTaskIncrementTick+0x120>)
  40199a:	681b      	ldr	r3, [r3, #0]
  40199c:	b103      	cbz	r3, 4019a0 <xTaskIncrementTick+0xe0>
			xSwitchRequired = pdTRUE;
  40199e:	2701      	movs	r7, #1
}
  4019a0:	4638      	mov	r0, r7
  4019a2:	bdf8      	pop	{r3, r4, r5, r6, r7, pc}
  4019a4:	200005b8 	.word	0x200005b8
  4019a8:	20000638 	.word	0x20000638
  4019ac:	20000504 	.word	0x20000504
  4019b0:	20000508 	.word	0x20000508
  4019b4:	200005f4 	.word	0x200005f4
  4019b8:	00401459 	.word	0x00401459
  4019bc:	200005f0 	.word	0x200005f0
  4019c0:	20000500 	.word	0x20000500
  4019c4:	2000050c 	.word	0x2000050c
  4019c8:	00403428 	.word	0x00403428
  4019cc:	00403021 	.word	0x00403021
  4019d0:	004005c5 	.word	0x004005c5
  4019d4:	200005c0 	.word	0x200005c0
  4019d8:	00400579 	.word	0x00400579
  4019dc:	200005b4 	.word	0x200005b4
  4019e0:	2000063c 	.word	0x2000063c

004019e4 <xTaskResumeAll>:
{
  4019e4:	b570      	push	{r4, r5, r6, lr}
	configASSERT( uxSchedulerSuspended );
  4019e6:	4b34      	ldr	r3, [pc, #208]	; (401ab8 <xTaskResumeAll+0xd4>)
  4019e8:	681b      	ldr	r3, [r3, #0]
  4019ea:	2b00      	cmp	r3, #0
  4019ec:	d034      	beq.n	401a58 <xTaskResumeAll+0x74>
	taskENTER_CRITICAL();
  4019ee:	4b33      	ldr	r3, [pc, #204]	; (401abc <xTaskResumeAll+0xd8>)
  4019f0:	4798      	blx	r3
		--uxSchedulerSuspended;
  4019f2:	4b31      	ldr	r3, [pc, #196]	; (401ab8 <xTaskResumeAll+0xd4>)
  4019f4:	681a      	ldr	r2, [r3, #0]
  4019f6:	3a01      	subs	r2, #1
  4019f8:	601a      	str	r2, [r3, #0]
		if( uxSchedulerSuspended == ( UBaseType_t ) pdFALSE )
  4019fa:	681b      	ldr	r3, [r3, #0]
  4019fc:	2b00      	cmp	r3, #0
  4019fe:	d154      	bne.n	401aaa <xTaskResumeAll+0xc6>
			if( uxCurrentNumberOfTasks > ( UBaseType_t ) 0U )
  401a00:	4b2f      	ldr	r3, [pc, #188]	; (401ac0 <xTaskResumeAll+0xdc>)
  401a02:	681b      	ldr	r3, [r3, #0]
  401a04:	2b00      	cmp	r3, #0
  401a06:	d02d      	beq.n	401a64 <xTaskResumeAll+0x80>
  401a08:	2400      	movs	r4, #0
				while( listLIST_IS_EMPTY( &xPendingReadyList ) == pdFALSE )
  401a0a:	4b2e      	ldr	r3, [pc, #184]	; (401ac4 <xTaskResumeAll+0xe0>)
  401a0c:	681b      	ldr	r3, [r3, #0]
  401a0e:	2b00      	cmp	r3, #0
  401a10:	d02a      	beq.n	401a68 <xTaskResumeAll+0x84>
					pxTCB = listGET_OWNER_OF_HEAD_ENTRY( ( &xPendingReadyList ) ); /*lint !e9079 void * is used as this macro is used with timers and co-routines too.  Alignment is known to be fine as the type of the pointer stored and retrieved is the same. */
  401a12:	4b2c      	ldr	r3, [pc, #176]	; (401ac4 <xTaskResumeAll+0xe0>)
  401a14:	68db      	ldr	r3, [r3, #12]
  401a16:	68dc      	ldr	r4, [r3, #12]
					( void ) uxListRemove( &( pxTCB->xEventListItem ) );
  401a18:	f104 0018 	add.w	r0, r4, #24
  401a1c:	4e2a      	ldr	r6, [pc, #168]	; (401ac8 <xTaskResumeAll+0xe4>)
  401a1e:	47b0      	blx	r6
					( void ) uxListRemove( &( pxTCB->xStateListItem ) );
  401a20:	1d25      	adds	r5, r4, #4
  401a22:	4628      	mov	r0, r5
  401a24:	47b0      	blx	r6
					prvAddTaskToReadyList( pxTCB );
  401a26:	6ae3      	ldr	r3, [r4, #44]	; 0x2c
  401a28:	2201      	movs	r2, #1
  401a2a:	409a      	lsls	r2, r3
  401a2c:	4927      	ldr	r1, [pc, #156]	; (401acc <xTaskResumeAll+0xe8>)
  401a2e:	6808      	ldr	r0, [r1, #0]
  401a30:	4302      	orrs	r2, r0
  401a32:	600a      	str	r2, [r1, #0]
  401a34:	eb03 0383 	add.w	r3, r3, r3, lsl #2
  401a38:	009a      	lsls	r2, r3, #2
  401a3a:	4629      	mov	r1, r5
  401a3c:	4824      	ldr	r0, [pc, #144]	; (401ad0 <xTaskResumeAll+0xec>)
  401a3e:	4410      	add	r0, r2
  401a40:	4b24      	ldr	r3, [pc, #144]	; (401ad4 <xTaskResumeAll+0xf0>)
  401a42:	4798      	blx	r3
					if( pxTCB->uxPriority >= pxCurrentTCB->uxPriority )
  401a44:	6ae2      	ldr	r2, [r4, #44]	; 0x2c
  401a46:	4b24      	ldr	r3, [pc, #144]	; (401ad8 <xTaskResumeAll+0xf4>)
  401a48:	681b      	ldr	r3, [r3, #0]
  401a4a:	6adb      	ldr	r3, [r3, #44]	; 0x2c
  401a4c:	429a      	cmp	r2, r3
  401a4e:	d3dc      	bcc.n	401a0a <xTaskResumeAll+0x26>
						xYieldPending = pdTRUE;
  401a50:	2201      	movs	r2, #1
  401a52:	4b22      	ldr	r3, [pc, #136]	; (401adc <xTaskResumeAll+0xf8>)
  401a54:	601a      	str	r2, [r3, #0]
  401a56:	e7d8      	b.n	401a0a <xTaskResumeAll+0x26>
	configASSERT( uxSchedulerSuspended );
  401a58:	f640 0185 	movw	r1, #2181	; 0x885
  401a5c:	4820      	ldr	r0, [pc, #128]	; (401ae0 <xTaskResumeAll+0xfc>)
  401a5e:	4b21      	ldr	r3, [pc, #132]	; (401ae4 <xTaskResumeAll+0x100>)
  401a60:	4798      	blx	r3
  401a62:	e7c4      	b.n	4019ee <xTaskResumeAll+0xa>
BaseType_t xAlreadyYielded = pdFALSE;
  401a64:	2400      	movs	r4, #0
  401a66:	e021      	b.n	401aac <xTaskResumeAll+0xc8>
				if( pxTCB != NULL )
  401a68:	b10c      	cbz	r4, 401a6e <xTaskResumeAll+0x8a>
					prvResetNextTaskUnblockTime();
  401a6a:	4b1f      	ldr	r3, [pc, #124]	; (401ae8 <xTaskResumeAll+0x104>)
  401a6c:	4798      	blx	r3
					UBaseType_t uxPendedCounts = uxPendedTicks; /* Non-volatile copy. */
  401a6e:	4b1f      	ldr	r3, [pc, #124]	; (401aec <xTaskResumeAll+0x108>)
  401a70:	681c      	ldr	r4, [r3, #0]
					if( uxPendedCounts > ( UBaseType_t ) 0U )
  401a72:	b974      	cbnz	r4, 401a92 <xTaskResumeAll+0xae>
				if( xYieldPending != pdFALSE )
  401a74:	4b19      	ldr	r3, [pc, #100]	; (401adc <xTaskResumeAll+0xf8>)
  401a76:	681b      	ldr	r3, [r3, #0]
  401a78:	b1e3      	cbz	r3, 401ab4 <xTaskResumeAll+0xd0>
					taskYIELD_IF_USING_PREEMPTION();
  401a7a:	f04f 5280 	mov.w	r2, #268435456	; 0x10000000
  401a7e:	4b1c      	ldr	r3, [pc, #112]	; (401af0 <xTaskResumeAll+0x10c>)
  401a80:	601a      	str	r2, [r3, #0]
  401a82:	f3bf 8f4f 	dsb	sy
  401a86:	f3bf 8f6f 	isb	sy
						xAlreadyYielded = pdTRUE;
  401a8a:	2401      	movs	r4, #1
  401a8c:	e00e      	b.n	401aac <xTaskResumeAll+0xc8>
						} while( uxPendedCounts > ( UBaseType_t ) 0U );
  401a8e:	3c01      	subs	r4, #1
  401a90:	d007      	beq.n	401aa2 <xTaskResumeAll+0xbe>
							if( xTaskIncrementTick() != pdFALSE )
  401a92:	4b18      	ldr	r3, [pc, #96]	; (401af4 <xTaskResumeAll+0x110>)
  401a94:	4798      	blx	r3
  401a96:	2800      	cmp	r0, #0
  401a98:	d0f9      	beq.n	401a8e <xTaskResumeAll+0xaa>
								xYieldPending = pdTRUE;
  401a9a:	2201      	movs	r2, #1
  401a9c:	4b0f      	ldr	r3, [pc, #60]	; (401adc <xTaskResumeAll+0xf8>)
  401a9e:	601a      	str	r2, [r3, #0]
  401aa0:	e7f5      	b.n	401a8e <xTaskResumeAll+0xaa>
						uxPendedTicks = 0;
  401aa2:	2200      	movs	r2, #0
  401aa4:	4b11      	ldr	r3, [pc, #68]	; (401aec <xTaskResumeAll+0x108>)
  401aa6:	601a      	str	r2, [r3, #0]
  401aa8:	e7e4      	b.n	401a74 <xTaskResumeAll+0x90>
BaseType_t xAlreadyYielded = pdFALSE;
  401aaa:	2400      	movs	r4, #0
	taskEXIT_CRITICAL();
  401aac:	4b12      	ldr	r3, [pc, #72]	; (401af8 <xTaskResumeAll+0x114>)
  401aae:	4798      	blx	r3
}
  401ab0:	4620      	mov	r0, r4
  401ab2:	bd70      	pop	{r4, r5, r6, pc}
BaseType_t xAlreadyYielded = pdFALSE;
  401ab4:	2400      	movs	r4, #0
  401ab6:	e7f9      	b.n	401aac <xTaskResumeAll+0xc8>
  401ab8:	200005b8 	.word	0x200005b8
  401abc:	004006c5 	.word	0x004006c5
  401ac0:	200005ac 	.word	0x200005ac
  401ac4:	200005f8 	.word	0x200005f8
  401ac8:	004005c5 	.word	0x004005c5
  401acc:	200005c0 	.word	0x200005c0
  401ad0:	2000050c 	.word	0x2000050c
  401ad4:	00400579 	.word	0x00400579
  401ad8:	20000500 	.word	0x20000500
  401adc:	2000063c 	.word	0x2000063c
  401ae0:	00403428 	.word	0x00403428
  401ae4:	00403021 	.word	0x00403021
  401ae8:	00401459 	.word	0x00401459
  401aec:	200005b4 	.word	0x200005b4
  401af0:	e000ed04 	.word	0xe000ed04
  401af4:	004018c1 	.word	0x004018c1
  401af8:	0040070d 	.word	0x0040070d

00401afc <vTaskDelay>:
	{
  401afc:	b510      	push	{r4, lr}
		if( xTicksToDelay > ( TickType_t ) 0U )
  401afe:	b1d8      	cbz	r0, 401b38 <vTaskDelay+0x3c>
  401b00:	4604      	mov	r4, r0
			configASSERT( uxSchedulerSuspended == 0 );
  401b02:	4b0e      	ldr	r3, [pc, #56]	; (401b3c <vTaskDelay+0x40>)
  401b04:	681b      	ldr	r3, [r3, #0]
  401b06:	b98b      	cbnz	r3, 401b2c <vTaskDelay+0x30>
			vTaskSuspendAll();
  401b08:	4b0d      	ldr	r3, [pc, #52]	; (401b40 <vTaskDelay+0x44>)
  401b0a:	4798      	blx	r3
				prvAddCurrentTaskToDelayedList( xTicksToDelay, pdFALSE );
  401b0c:	2100      	movs	r1, #0
  401b0e:	4620      	mov	r0, r4
  401b10:	4b0c      	ldr	r3, [pc, #48]	; (401b44 <vTaskDelay+0x48>)
  401b12:	4798      	blx	r3
			xAlreadyYielded = xTaskResumeAll();
  401b14:	4b0c      	ldr	r3, [pc, #48]	; (401b48 <vTaskDelay+0x4c>)
  401b16:	4798      	blx	r3
		if( xAlreadyYielded == pdFALSE )
  401b18:	b938      	cbnz	r0, 401b2a <vTaskDelay+0x2e>
			portYIELD_WITHIN_API();
  401b1a:	f04f 5280 	mov.w	r2, #268435456	; 0x10000000
  401b1e:	4b0b      	ldr	r3, [pc, #44]	; (401b4c <vTaskDelay+0x50>)
  401b20:	601a      	str	r2, [r3, #0]
  401b22:	f3bf 8f4f 	dsb	sy
  401b26:	f3bf 8f6f 	isb	sy
  401b2a:	bd10      	pop	{r4, pc}
			configASSERT( uxSchedulerSuspended == 0 );
  401b2c:	f240 513c 	movw	r1, #1340	; 0x53c
  401b30:	4807      	ldr	r0, [pc, #28]	; (401b50 <vTaskDelay+0x54>)
  401b32:	4b08      	ldr	r3, [pc, #32]	; (401b54 <vTaskDelay+0x58>)
  401b34:	4798      	blx	r3
  401b36:	e7e7      	b.n	401b08 <vTaskDelay+0xc>
	BaseType_t xAlreadyYielded = pdFALSE;
  401b38:	2000      	movs	r0, #0
  401b3a:	e7ed      	b.n	401b18 <vTaskDelay+0x1c>
  401b3c:	200005b8 	.word	0x200005b8
  401b40:	004018a5 	.word	0x004018a5
  401b44:	004016fd 	.word	0x004016fd
  401b48:	004019e5 	.word	0x004019e5
  401b4c:	e000ed04 	.word	0xe000ed04
  401b50:	00403428 	.word	0x00403428
  401b54:	00403021 	.word	0x00403021

00401b58 <vTaskSwitchContext>:
	if( uxSchedulerSuspended != ( UBaseType_t ) pdFALSE )
  401b58:	4b2c      	ldr	r3, [pc, #176]	; (401c0c <vTaskSwitchContext+0xb4>)
  401b5a:	681b      	ldr	r3, [r3, #0]
  401b5c:	2b00      	cmp	r3, #0
  401b5e:	d135      	bne.n	401bcc <vTaskSwitchContext+0x74>
{
  401b60:	b510      	push	{r4, lr}
		xYieldPending = pdFALSE;
  401b62:	2200      	movs	r2, #0
  401b64:	4b2a      	ldr	r3, [pc, #168]	; (401c10 <vTaskSwitchContext+0xb8>)
  401b66:	601a      	str	r2, [r3, #0]
		taskCHECK_FOR_STACK_OVERFLOW();
  401b68:	4b2a      	ldr	r3, [pc, #168]	; (401c14 <vTaskSwitchContext+0xbc>)
  401b6a:	681b      	ldr	r3, [r3, #0]
  401b6c:	6b1b      	ldr	r3, [r3, #48]	; 0x30
  401b6e:	681a      	ldr	r2, [r3, #0]
  401b70:	f1b2 3fa5 	cmp.w	r2, #2779096485	; 0xa5a5a5a5
  401b74:	d02e      	beq.n	401bd4 <vTaskSwitchContext+0x7c>
  401b76:	4b27      	ldr	r3, [pc, #156]	; (401c14 <vTaskSwitchContext+0xbc>)
  401b78:	6818      	ldr	r0, [r3, #0]
  401b7a:	6819      	ldr	r1, [r3, #0]
  401b7c:	3134      	adds	r1, #52	; 0x34
  401b7e:	4b26      	ldr	r3, [pc, #152]	; (401c18 <vTaskSwitchContext+0xc0>)
  401b80:	4798      	blx	r3
		taskSELECT_HIGHEST_PRIORITY_TASK(); /*lint !e9079 void * is used as this macro is used with timers and co-routines too.  Alignment is known to be fine as the type of the pointer stored and retrieved is the same. */
  401b82:	4b26      	ldr	r3, [pc, #152]	; (401c1c <vTaskSwitchContext+0xc4>)
  401b84:	681c      	ldr	r4, [r3, #0]
		__asm volatile ( "clz %0, %1" : "=r" ( ucReturn ) : "r" ( ulBitmap ) : "memory" );
  401b86:	fab4 f484 	clz	r4, r4
  401b8a:	b2e4      	uxtb	r4, r4
  401b8c:	f1c4 041f 	rsb	r4, r4, #31
  401b90:	eb04 0284 	add.w	r2, r4, r4, lsl #2
  401b94:	0093      	lsls	r3, r2, #2
  401b96:	4a22      	ldr	r2, [pc, #136]	; (401c20 <vTaskSwitchContext+0xc8>)
  401b98:	58d3      	ldr	r3, [r2, r3]
  401b9a:	b343      	cbz	r3, 401bee <vTaskSwitchContext+0x96>
  401b9c:	4920      	ldr	r1, [pc, #128]	; (401c20 <vTaskSwitchContext+0xc8>)
  401b9e:	00a3      	lsls	r3, r4, #2
  401ba0:	1918      	adds	r0, r3, r4
  401ba2:	0082      	lsls	r2, r0, #2
  401ba4:	440a      	add	r2, r1
  401ba6:	6850      	ldr	r0, [r2, #4]
  401ba8:	6840      	ldr	r0, [r0, #4]
  401baa:	6050      	str	r0, [r2, #4]
  401bac:	4423      	add	r3, r4
  401bae:	009a      	lsls	r2, r3, #2
  401bb0:	3208      	adds	r2, #8
  401bb2:	4411      	add	r1, r2
  401bb4:	4288      	cmp	r0, r1
  401bb6:	d020      	beq.n	401bfa <vTaskSwitchContext+0xa2>
  401bb8:	eb04 0484 	add.w	r4, r4, r4, lsl #2
  401bbc:	00a2      	lsls	r2, r4, #2
  401bbe:	4b18      	ldr	r3, [pc, #96]	; (401c20 <vTaskSwitchContext+0xc8>)
  401bc0:	4413      	add	r3, r2
  401bc2:	685b      	ldr	r3, [r3, #4]
  401bc4:	68da      	ldr	r2, [r3, #12]
  401bc6:	4b13      	ldr	r3, [pc, #76]	; (401c14 <vTaskSwitchContext+0xbc>)
  401bc8:	601a      	str	r2, [r3, #0]
  401bca:	bd10      	pop	{r4, pc}
		xYieldPending = pdTRUE;
  401bcc:	2201      	movs	r2, #1
  401bce:	4b10      	ldr	r3, [pc, #64]	; (401c10 <vTaskSwitchContext+0xb8>)
  401bd0:	601a      	str	r2, [r3, #0]
  401bd2:	4770      	bx	lr
		taskCHECK_FOR_STACK_OVERFLOW();
  401bd4:	685a      	ldr	r2, [r3, #4]
  401bd6:	f1b2 3fa5 	cmp.w	r2, #2779096485	; 0xa5a5a5a5
  401bda:	d1cc      	bne.n	401b76 <vTaskSwitchContext+0x1e>
  401bdc:	689a      	ldr	r2, [r3, #8]
  401bde:	f1b2 3fa5 	cmp.w	r2, #2779096485	; 0xa5a5a5a5
  401be2:	d1c8      	bne.n	401b76 <vTaskSwitchContext+0x1e>
  401be4:	68db      	ldr	r3, [r3, #12]
  401be6:	f1b3 3fa5 	cmp.w	r3, #2779096485	; 0xa5a5a5a5
  401bea:	d1c4      	bne.n	401b76 <vTaskSwitchContext+0x1e>
  401bec:	e7c9      	b.n	401b82 <vTaskSwitchContext+0x2a>
		taskSELECT_HIGHEST_PRIORITY_TASK(); /*lint !e9079 void * is used as this macro is used with timers and co-routines too.  Alignment is known to be fine as the type of the pointer stored and retrieved is the same. */
  401bee:	f640 31b7 	movw	r1, #2999	; 0xbb7
  401bf2:	480c      	ldr	r0, [pc, #48]	; (401c24 <vTaskSwitchContext+0xcc>)
  401bf4:	4b0c      	ldr	r3, [pc, #48]	; (401c28 <vTaskSwitchContext+0xd0>)
  401bf6:	4798      	blx	r3
  401bf8:	e7d0      	b.n	401b9c <vTaskSwitchContext+0x44>
  401bfa:	6841      	ldr	r1, [r0, #4]
  401bfc:	eb04 0384 	add.w	r3, r4, r4, lsl #2
  401c00:	009a      	lsls	r2, r3, #2
  401c02:	4b07      	ldr	r3, [pc, #28]	; (401c20 <vTaskSwitchContext+0xc8>)
  401c04:	4413      	add	r3, r2
  401c06:	6059      	str	r1, [r3, #4]
  401c08:	e7d6      	b.n	401bb8 <vTaskSwitchContext+0x60>
  401c0a:	bf00      	nop
  401c0c:	200005b8 	.word	0x200005b8
  401c10:	2000063c 	.word	0x2000063c
  401c14:	20000500 	.word	0x20000500
  401c18:	00403061 	.word	0x00403061
  401c1c:	200005c0 	.word	0x200005c0
  401c20:	2000050c 	.word	0x2000050c
  401c24:	00403428 	.word	0x00403428
  401c28:	00403021 	.word	0x00403021

00401c2c <vTaskPlaceOnEventList>:
{
  401c2c:	b538      	push	{r3, r4, r5, lr}
  401c2e:	460c      	mov	r4, r1
	configASSERT( pxEventList );
  401c30:	4605      	mov	r5, r0
  401c32:	b150      	cbz	r0, 401c4a <vTaskPlaceOnEventList+0x1e>
	vListInsert( pxEventList, &( pxCurrentTCB->xEventListItem ) );
  401c34:	4b08      	ldr	r3, [pc, #32]	; (401c58 <vTaskPlaceOnEventList+0x2c>)
  401c36:	6819      	ldr	r1, [r3, #0]
  401c38:	3118      	adds	r1, #24
  401c3a:	4628      	mov	r0, r5
  401c3c:	4b07      	ldr	r3, [pc, #28]	; (401c5c <vTaskPlaceOnEventList+0x30>)
  401c3e:	4798      	blx	r3
	prvAddCurrentTaskToDelayedList( xTicksToWait, pdTRUE );
  401c40:	2101      	movs	r1, #1
  401c42:	4620      	mov	r0, r4
  401c44:	4b06      	ldr	r3, [pc, #24]	; (401c60 <vTaskPlaceOnEventList+0x34>)
  401c46:	4798      	blx	r3
  401c48:	bd38      	pop	{r3, r4, r5, pc}
	configASSERT( pxEventList );
  401c4a:	f640 31ce 	movw	r1, #3022	; 0xbce
  401c4e:	4805      	ldr	r0, [pc, #20]	; (401c64 <vTaskPlaceOnEventList+0x38>)
  401c50:	4b05      	ldr	r3, [pc, #20]	; (401c68 <vTaskPlaceOnEventList+0x3c>)
  401c52:	4798      	blx	r3
  401c54:	e7ee      	b.n	401c34 <vTaskPlaceOnEventList+0x8>
  401c56:	bf00      	nop
  401c58:	20000500 	.word	0x20000500
  401c5c:	00400591 	.word	0x00400591
  401c60:	004016fd 	.word	0x004016fd
  401c64:	00403428 	.word	0x00403428
  401c68:	00403021 	.word	0x00403021

00401c6c <vTaskPlaceOnEventListRestricted>:
	{
  401c6c:	b570      	push	{r4, r5, r6, lr}
  401c6e:	460d      	mov	r5, r1
  401c70:	4614      	mov	r4, r2
		configASSERT( pxEventList );
  401c72:	4606      	mov	r6, r0
  401c74:	b168      	cbz	r0, 401c92 <vTaskPlaceOnEventListRestricted+0x26>
		vListInsertEnd( pxEventList, &( pxCurrentTCB->xEventListItem ) );
  401c76:	4b0a      	ldr	r3, [pc, #40]	; (401ca0 <vTaskPlaceOnEventListRestricted+0x34>)
  401c78:	6819      	ldr	r1, [r3, #0]
  401c7a:	3118      	adds	r1, #24
  401c7c:	4630      	mov	r0, r6
  401c7e:	4b09      	ldr	r3, [pc, #36]	; (401ca4 <vTaskPlaceOnEventListRestricted+0x38>)
  401c80:	4798      	blx	r3
		if( xWaitIndefinitely != pdFALSE )
  401c82:	b10c      	cbz	r4, 401c88 <vTaskPlaceOnEventListRestricted+0x1c>
			xTicksToWait = portMAX_DELAY;
  401c84:	f04f 35ff 	mov.w	r5, #4294967295
		prvAddCurrentTaskToDelayedList( xTicksToWait, xWaitIndefinitely );
  401c88:	4621      	mov	r1, r4
  401c8a:	4628      	mov	r0, r5
  401c8c:	4b06      	ldr	r3, [pc, #24]	; (401ca8 <vTaskPlaceOnEventListRestricted+0x3c>)
  401c8e:	4798      	blx	r3
  401c90:	bd70      	pop	{r4, r5, r6, pc}
		configASSERT( pxEventList );
  401c92:	f640 31f9 	movw	r1, #3065	; 0xbf9
  401c96:	4805      	ldr	r0, [pc, #20]	; (401cac <vTaskPlaceOnEventListRestricted+0x40>)
  401c98:	4b05      	ldr	r3, [pc, #20]	; (401cb0 <vTaskPlaceOnEventListRestricted+0x44>)
  401c9a:	4798      	blx	r3
  401c9c:	e7eb      	b.n	401c76 <vTaskPlaceOnEventListRestricted+0xa>
  401c9e:	bf00      	nop
  401ca0:	20000500 	.word	0x20000500
  401ca4:	00400579 	.word	0x00400579
  401ca8:	004016fd 	.word	0x004016fd
  401cac:	00403428 	.word	0x00403428
  401cb0:	00403021 	.word	0x00403021

00401cb4 <xTaskRemoveFromEventList>:
{
  401cb4:	b538      	push	{r3, r4, r5, lr}
	pxUnblockedTCB = listGET_OWNER_OF_HEAD_ENTRY( pxEventList ); /*lint !e9079 void * is used as this macro is used with timers and co-routines too.  Alignment is known to be fine as the type of the pointer stored and retrieved is the same. */
  401cb6:	68c3      	ldr	r3, [r0, #12]
  401cb8:	68dc      	ldr	r4, [r3, #12]
	configASSERT( pxUnblockedTCB );
  401cba:	b324      	cbz	r4, 401d06 <xTaskRemoveFromEventList+0x52>
	( void ) uxListRemove( &( pxUnblockedTCB->xEventListItem ) );
  401cbc:	f104 0518 	add.w	r5, r4, #24
  401cc0:	4628      	mov	r0, r5
  401cc2:	4b17      	ldr	r3, [pc, #92]	; (401d20 <xTaskRemoveFromEventList+0x6c>)
  401cc4:	4798      	blx	r3
	if( uxSchedulerSuspended == ( UBaseType_t ) pdFALSE )
  401cc6:	4b17      	ldr	r3, [pc, #92]	; (401d24 <xTaskRemoveFromEventList+0x70>)
  401cc8:	681b      	ldr	r3, [r3, #0]
  401cca:	bb13      	cbnz	r3, 401d12 <xTaskRemoveFromEventList+0x5e>
		( void ) uxListRemove( &( pxUnblockedTCB->xStateListItem ) );
  401ccc:	1d25      	adds	r5, r4, #4
  401cce:	4628      	mov	r0, r5
  401cd0:	4b13      	ldr	r3, [pc, #76]	; (401d20 <xTaskRemoveFromEventList+0x6c>)
  401cd2:	4798      	blx	r3
		prvAddTaskToReadyList( pxUnblockedTCB );
  401cd4:	6ae3      	ldr	r3, [r4, #44]	; 0x2c
  401cd6:	2201      	movs	r2, #1
  401cd8:	409a      	lsls	r2, r3
  401cda:	4913      	ldr	r1, [pc, #76]	; (401d28 <xTaskRemoveFromEventList+0x74>)
  401cdc:	6808      	ldr	r0, [r1, #0]
  401cde:	4302      	orrs	r2, r0
  401ce0:	600a      	str	r2, [r1, #0]
  401ce2:	eb03 0383 	add.w	r3, r3, r3, lsl #2
  401ce6:	009a      	lsls	r2, r3, #2
  401ce8:	4629      	mov	r1, r5
  401cea:	4810      	ldr	r0, [pc, #64]	; (401d2c <xTaskRemoveFromEventList+0x78>)
  401cec:	4410      	add	r0, r2
  401cee:	4b10      	ldr	r3, [pc, #64]	; (401d30 <xTaskRemoveFromEventList+0x7c>)
  401cf0:	4798      	blx	r3
	if( pxUnblockedTCB->uxPriority > pxCurrentTCB->uxPriority )
  401cf2:	6ae2      	ldr	r2, [r4, #44]	; 0x2c
  401cf4:	4b0f      	ldr	r3, [pc, #60]	; (401d34 <xTaskRemoveFromEventList+0x80>)
  401cf6:	681b      	ldr	r3, [r3, #0]
  401cf8:	6adb      	ldr	r3, [r3, #44]	; 0x2c
  401cfa:	429a      	cmp	r2, r3
  401cfc:	d90e      	bls.n	401d1c <xTaskRemoveFromEventList+0x68>
		xYieldPending = pdTRUE;
  401cfe:	2001      	movs	r0, #1
  401d00:	4b0d      	ldr	r3, [pc, #52]	; (401d38 <xTaskRemoveFromEventList+0x84>)
  401d02:	6018      	str	r0, [r3, #0]
  401d04:	bd38      	pop	{r3, r4, r5, pc}
	configASSERT( pxUnblockedTCB );
  401d06:	f640 4129 	movw	r1, #3113	; 0xc29
  401d0a:	480c      	ldr	r0, [pc, #48]	; (401d3c <xTaskRemoveFromEventList+0x88>)
  401d0c:	4b0c      	ldr	r3, [pc, #48]	; (401d40 <xTaskRemoveFromEventList+0x8c>)
  401d0e:	4798      	blx	r3
  401d10:	e7d4      	b.n	401cbc <xTaskRemoveFromEventList+0x8>
		vListInsertEnd( &( xPendingReadyList ), &( pxUnblockedTCB->xEventListItem ) );
  401d12:	4629      	mov	r1, r5
  401d14:	480b      	ldr	r0, [pc, #44]	; (401d44 <xTaskRemoveFromEventList+0x90>)
  401d16:	4b06      	ldr	r3, [pc, #24]	; (401d30 <xTaskRemoveFromEventList+0x7c>)
  401d18:	4798      	blx	r3
  401d1a:	e7ea      	b.n	401cf2 <xTaskRemoveFromEventList+0x3e>
		xReturn = pdFALSE;
  401d1c:	2000      	movs	r0, #0
}
  401d1e:	bd38      	pop	{r3, r4, r5, pc}
  401d20:	004005c5 	.word	0x004005c5
  401d24:	200005b8 	.word	0x200005b8
  401d28:	200005c0 	.word	0x200005c0
  401d2c:	2000050c 	.word	0x2000050c
  401d30:	00400579 	.word	0x00400579
  401d34:	20000500 	.word	0x20000500
  401d38:	2000063c 	.word	0x2000063c
  401d3c:	00403428 	.word	0x00403428
  401d40:	00403021 	.word	0x00403021
  401d44:	200005f8 	.word	0x200005f8

00401d48 <vTaskInternalSetTimeOutState>:
	pxTimeOut->xOverflowCount = xNumOfOverflows;
  401d48:	4b03      	ldr	r3, [pc, #12]	; (401d58 <vTaskInternalSetTimeOutState+0x10>)
  401d4a:	681b      	ldr	r3, [r3, #0]
  401d4c:	6003      	str	r3, [r0, #0]
	pxTimeOut->xTimeOnEntering = xTickCount;
  401d4e:	4b03      	ldr	r3, [pc, #12]	; (401d5c <vTaskInternalSetTimeOutState+0x14>)
  401d50:	681b      	ldr	r3, [r3, #0]
  401d52:	6043      	str	r3, [r0, #4]
  401d54:	4770      	bx	lr
  401d56:	bf00      	nop
  401d58:	200005f4 	.word	0x200005f4
  401d5c:	20000638 	.word	0x20000638

00401d60 <xTaskCheckForTimeOut>:
{
  401d60:	b5f8      	push	{r3, r4, r5, r6, r7, lr}
  401d62:	460c      	mov	r4, r1
	configASSERT( pxTimeOut );
  401d64:	4605      	mov	r5, r0
  401d66:	b1d0      	cbz	r0, 401d9e <xTaskCheckForTimeOut+0x3e>
	configASSERT( pxTicksToWait );
  401d68:	b1fc      	cbz	r4, 401daa <xTaskCheckForTimeOut+0x4a>
	taskENTER_CRITICAL();
  401d6a:	4b18      	ldr	r3, [pc, #96]	; (401dcc <xTaskCheckForTimeOut+0x6c>)
  401d6c:	4798      	blx	r3
		const TickType_t xConstTickCount = xTickCount;
  401d6e:	4b18      	ldr	r3, [pc, #96]	; (401dd0 <xTaskCheckForTimeOut+0x70>)
  401d70:	6819      	ldr	r1, [r3, #0]
		const TickType_t xElapsedTime = xConstTickCount - pxTimeOut->xTimeOnEntering;
  401d72:	686a      	ldr	r2, [r5, #4]
  401d74:	1a88      	subs	r0, r1, r2
			if( *pxTicksToWait == portMAX_DELAY )
  401d76:	6823      	ldr	r3, [r4, #0]
  401d78:	f1b3 3fff 	cmp.w	r3, #4294967295
  401d7c:	d022      	beq.n	401dc4 <xTaskCheckForTimeOut+0x64>
		if( ( xNumOfOverflows != pxTimeOut->xOverflowCount ) && ( xConstTickCount >= pxTimeOut->xTimeOnEntering ) ) /*lint !e525 Indentation preferred as is to make code within pre-processor directives clearer. */
  401d7e:	682f      	ldr	r7, [r5, #0]
  401d80:	4e14      	ldr	r6, [pc, #80]	; (401dd4 <xTaskCheckForTimeOut+0x74>)
  401d82:	6836      	ldr	r6, [r6, #0]
  401d84:	42b7      	cmp	r7, r6
  401d86:	d001      	beq.n	401d8c <xTaskCheckForTimeOut+0x2c>
  401d88:	4291      	cmp	r1, r2
  401d8a:	d21d      	bcs.n	401dc8 <xTaskCheckForTimeOut+0x68>
		else if( xElapsedTime < *pxTicksToWait ) /*lint !e961 Explicit casting is only redundant with some compilers, whereas others require it to prevent integer conversion errors. */
  401d8c:	4298      	cmp	r0, r3
  401d8e:	d312      	bcc.n	401db6 <xTaskCheckForTimeOut+0x56>
			*pxTicksToWait = 0;
  401d90:	2300      	movs	r3, #0
  401d92:	6023      	str	r3, [r4, #0]
			xReturn = pdTRUE;
  401d94:	2401      	movs	r4, #1
	taskEXIT_CRITICAL();
  401d96:	4b10      	ldr	r3, [pc, #64]	; (401dd8 <xTaskCheckForTimeOut+0x78>)
  401d98:	4798      	blx	r3
}
  401d9a:	4620      	mov	r0, r4
  401d9c:	bdf8      	pop	{r3, r4, r5, r6, r7, pc}
	configASSERT( pxTimeOut );
  401d9e:	f640 4194 	movw	r1, #3220	; 0xc94
  401da2:	480e      	ldr	r0, [pc, #56]	; (401ddc <xTaskCheckForTimeOut+0x7c>)
  401da4:	4b0e      	ldr	r3, [pc, #56]	; (401de0 <xTaskCheckForTimeOut+0x80>)
  401da6:	4798      	blx	r3
  401da8:	e7de      	b.n	401d68 <xTaskCheckForTimeOut+0x8>
	configASSERT( pxTicksToWait );
  401daa:	f640 4195 	movw	r1, #3221	; 0xc95
  401dae:	480b      	ldr	r0, [pc, #44]	; (401ddc <xTaskCheckForTimeOut+0x7c>)
  401db0:	4b0b      	ldr	r3, [pc, #44]	; (401de0 <xTaskCheckForTimeOut+0x80>)
  401db2:	4798      	blx	r3
  401db4:	e7d9      	b.n	401d6a <xTaskCheckForTimeOut+0xa>
			*pxTicksToWait -= xElapsedTime;
  401db6:	1a1b      	subs	r3, r3, r0
  401db8:	6023      	str	r3, [r4, #0]
			vTaskInternalSetTimeOutState( pxTimeOut );
  401dba:	4628      	mov	r0, r5
  401dbc:	4b09      	ldr	r3, [pc, #36]	; (401de4 <xTaskCheckForTimeOut+0x84>)
  401dbe:	4798      	blx	r3
			xReturn = pdFALSE;
  401dc0:	2400      	movs	r4, #0
  401dc2:	e7e8      	b.n	401d96 <xTaskCheckForTimeOut+0x36>
				xReturn = pdFALSE;
  401dc4:	2400      	movs	r4, #0
  401dc6:	e7e6      	b.n	401d96 <xTaskCheckForTimeOut+0x36>
			xReturn = pdTRUE;
  401dc8:	2401      	movs	r4, #1
  401dca:	e7e4      	b.n	401d96 <xTaskCheckForTimeOut+0x36>
  401dcc:	004006c5 	.word	0x004006c5
  401dd0:	20000638 	.word	0x20000638
  401dd4:	200005f4 	.word	0x200005f4
  401dd8:	0040070d 	.word	0x0040070d
  401ddc:	00403428 	.word	0x00403428
  401de0:	00403021 	.word	0x00403021
  401de4:	00401d49 	.word	0x00401d49

00401de8 <vTaskMissedYield>:
	xYieldPending = pdTRUE;
  401de8:	2201      	movs	r2, #1
  401dea:	4b01      	ldr	r3, [pc, #4]	; (401df0 <vTaskMissedYield+0x8>)
  401dec:	601a      	str	r2, [r3, #0]
  401dee:	4770      	bx	lr
  401df0:	2000063c 	.word	0x2000063c

00401df4 <xTaskGetSchedulerState>:
		if( xSchedulerRunning == pdFALSE )
  401df4:	4b05      	ldr	r3, [pc, #20]	; (401e0c <xTaskGetSchedulerState+0x18>)
  401df6:	681b      	ldr	r3, [r3, #0]
  401df8:	b123      	cbz	r3, 401e04 <xTaskGetSchedulerState+0x10>
			if( uxSchedulerSuspended == ( UBaseType_t ) pdFALSE )
  401dfa:	4b05      	ldr	r3, [pc, #20]	; (401e10 <xTaskGetSchedulerState+0x1c>)
  401dfc:	681b      	ldr	r3, [r3, #0]
  401dfe:	b91b      	cbnz	r3, 401e08 <xTaskGetSchedulerState+0x14>
				xReturn = taskSCHEDULER_RUNNING;
  401e00:	2002      	movs	r0, #2
  401e02:	4770      	bx	lr
			xReturn = taskSCHEDULER_NOT_STARTED;
  401e04:	2001      	movs	r0, #1
  401e06:	4770      	bx	lr
				xReturn = taskSCHEDULER_SUSPENDED;
  401e08:	2000      	movs	r0, #0
	}
  401e0a:	4770      	bx	lr
  401e0c:	2000060c 	.word	0x2000060c
  401e10:	200005b8 	.word	0x200005b8

00401e14 <xTaskPriorityDisinherit>:
		if( pxMutexHolder != NULL )
  401e14:	2800      	cmp	r0, #0
  401e16:	d045      	beq.n	401ea4 <xTaskPriorityDisinherit+0x90>
	{
  401e18:	b538      	push	{r3, r4, r5, lr}
  401e1a:	4604      	mov	r4, r0
			configASSERT( pxTCB == pxCurrentTCB );
  401e1c:	4b23      	ldr	r3, [pc, #140]	; (401eac <xTaskPriorityDisinherit+0x98>)
  401e1e:	681b      	ldr	r3, [r3, #0]
  401e20:	4298      	cmp	r0, r3
  401e22:	d004      	beq.n	401e2e <xTaskPriorityDisinherit+0x1a>
  401e24:	f640 71d1 	movw	r1, #4049	; 0xfd1
  401e28:	4821      	ldr	r0, [pc, #132]	; (401eb0 <xTaskPriorityDisinherit+0x9c>)
  401e2a:	4b22      	ldr	r3, [pc, #136]	; (401eb4 <xTaskPriorityDisinherit+0xa0>)
  401e2c:	4798      	blx	r3
			configASSERT( pxTCB->uxMutexesHeld );
  401e2e:	6d63      	ldr	r3, [r4, #84]	; 0x54
  401e30:	b14b      	cbz	r3, 401e46 <xTaskPriorityDisinherit+0x32>
			( pxTCB->uxMutexesHeld )--;
  401e32:	6d63      	ldr	r3, [r4, #84]	; 0x54
  401e34:	3b01      	subs	r3, #1
  401e36:	6563      	str	r3, [r4, #84]	; 0x54
			if( pxTCB->uxPriority != pxTCB->uxBasePriority )
  401e38:	6ae1      	ldr	r1, [r4, #44]	; 0x2c
  401e3a:	6d22      	ldr	r2, [r4, #80]	; 0x50
  401e3c:	4291      	cmp	r1, r2
  401e3e:	d033      	beq.n	401ea8 <xTaskPriorityDisinherit+0x94>
				if( pxTCB->uxMutexesHeld == ( UBaseType_t ) 0 )
  401e40:	b13b      	cbz	r3, 401e52 <xTaskPriorityDisinherit+0x3e>
	BaseType_t xReturn = pdFALSE;
  401e42:	2000      	movs	r0, #0
	}
  401e44:	bd38      	pop	{r3, r4, r5, pc}
			configASSERT( pxTCB->uxMutexesHeld );
  401e46:	f640 71d2 	movw	r1, #4050	; 0xfd2
  401e4a:	4819      	ldr	r0, [pc, #100]	; (401eb0 <xTaskPriorityDisinherit+0x9c>)
  401e4c:	4b19      	ldr	r3, [pc, #100]	; (401eb4 <xTaskPriorityDisinherit+0xa0>)
  401e4e:	4798      	blx	r3
  401e50:	e7ef      	b.n	401e32 <xTaskPriorityDisinherit+0x1e>
					if( uxListRemove( &( pxTCB->xStateListItem ) ) == ( UBaseType_t ) 0 )
  401e52:	1d25      	adds	r5, r4, #4
  401e54:	4628      	mov	r0, r5
  401e56:	4b18      	ldr	r3, [pc, #96]	; (401eb8 <xTaskPriorityDisinherit+0xa4>)
  401e58:	4798      	blx	r3
  401e5a:	b968      	cbnz	r0, 401e78 <xTaskPriorityDisinherit+0x64>
						taskRESET_READY_PRIORITY( pxTCB->uxPriority );
  401e5c:	6ae3      	ldr	r3, [r4, #44]	; 0x2c
  401e5e:	eb03 0183 	add.w	r1, r3, r3, lsl #2
  401e62:	008a      	lsls	r2, r1, #2
  401e64:	4915      	ldr	r1, [pc, #84]	; (401ebc <xTaskPriorityDisinherit+0xa8>)
  401e66:	588a      	ldr	r2, [r1, r2]
  401e68:	b932      	cbnz	r2, 401e78 <xTaskPriorityDisinherit+0x64>
  401e6a:	2201      	movs	r2, #1
  401e6c:	409a      	lsls	r2, r3
  401e6e:	4914      	ldr	r1, [pc, #80]	; (401ec0 <xTaskPriorityDisinherit+0xac>)
  401e70:	680b      	ldr	r3, [r1, #0]
  401e72:	ea23 0302 	bic.w	r3, r3, r2
  401e76:	600b      	str	r3, [r1, #0]
					pxTCB->uxPriority = pxTCB->uxBasePriority;
  401e78:	6d23      	ldr	r3, [r4, #80]	; 0x50
  401e7a:	62e3      	str	r3, [r4, #44]	; 0x2c
					listSET_LIST_ITEM_VALUE( &( pxTCB->xEventListItem ), ( TickType_t ) configMAX_PRIORITIES - ( TickType_t ) pxTCB->uxPriority ); /*lint !e961 MISRA exception as the casts are only redundant for some ports. */
  401e7c:	f1c3 0208 	rsb	r2, r3, #8
  401e80:	61a2      	str	r2, [r4, #24]
					prvAddTaskToReadyList( pxTCB );
  401e82:	2401      	movs	r4, #1
  401e84:	fa04 f203 	lsl.w	r2, r4, r3
  401e88:	490d      	ldr	r1, [pc, #52]	; (401ec0 <xTaskPriorityDisinherit+0xac>)
  401e8a:	6808      	ldr	r0, [r1, #0]
  401e8c:	4302      	orrs	r2, r0
  401e8e:	600a      	str	r2, [r1, #0]
  401e90:	eb03 0383 	add.w	r3, r3, r3, lsl #2
  401e94:	009a      	lsls	r2, r3, #2
  401e96:	4629      	mov	r1, r5
  401e98:	4808      	ldr	r0, [pc, #32]	; (401ebc <xTaskPriorityDisinherit+0xa8>)
  401e9a:	4410      	add	r0, r2
  401e9c:	4b09      	ldr	r3, [pc, #36]	; (401ec4 <xTaskPriorityDisinherit+0xb0>)
  401e9e:	4798      	blx	r3
					xReturn = pdTRUE;
  401ea0:	4620      	mov	r0, r4
  401ea2:	bd38      	pop	{r3, r4, r5, pc}
	BaseType_t xReturn = pdFALSE;
  401ea4:	2000      	movs	r0, #0
  401ea6:	4770      	bx	lr
  401ea8:	2000      	movs	r0, #0
  401eaa:	bd38      	pop	{r3, r4, r5, pc}
  401eac:	20000500 	.word	0x20000500
  401eb0:	00403428 	.word	0x00403428
  401eb4:	00403021 	.word	0x00403021
  401eb8:	004005c5 	.word	0x004005c5
  401ebc:	2000050c 	.word	0x2000050c
  401ec0:	200005c0 	.word	0x200005c0
  401ec4:	00400579 	.word	0x00400579

00401ec8 <vTaskNotifyGiveFromISR>:
	{
  401ec8:	b5f8      	push	{r3, r4, r5, r6, r7, lr}
  401eca:	460e      	mov	r6, r1
		configASSERT( xTaskToNotify );
  401ecc:	4604      	mov	r4, r0
  401ece:	b1c8      	cbz	r0, 401f04 <vTaskNotifyGiveFromISR+0x3c>
		portASSERT_IF_INTERRUPT_PRIORITY_INVALID();
  401ed0:	4b27      	ldr	r3, [pc, #156]	; (401f70 <vTaskNotifyGiveFromISR+0xa8>)
  401ed2:	4798      	blx	r3
	__asm volatile
  401ed4:	f3ef 8511 	mrs	r5, BASEPRI
  401ed8:	f04f 0350 	mov.w	r3, #80	; 0x50
  401edc:	f383 8811 	msr	BASEPRI, r3
  401ee0:	f3bf 8f6f 	isb	sy
  401ee4:	f3bf 8f4f 	dsb	sy
			ucOriginalNotifyState = pxTCB->ucNotifyState;
  401ee8:	f894 3068 	ldrb.w	r3, [r4, #104]	; 0x68
  401eec:	b2db      	uxtb	r3, r3
			pxTCB->ucNotifyState = taskNOTIFICATION_RECEIVED;
  401eee:	2202      	movs	r2, #2
  401ef0:	f884 2068 	strb.w	r2, [r4, #104]	; 0x68
			( pxTCB->ulNotifiedValue )++;
  401ef4:	6e62      	ldr	r2, [r4, #100]	; 0x64
  401ef6:	3201      	adds	r2, #1
  401ef8:	6662      	str	r2, [r4, #100]	; 0x64
			if( ucOriginalNotifyState == taskWAITING_NOTIFICATION )
  401efa:	2b01      	cmp	r3, #1
  401efc:	d008      	beq.n	401f10 <vTaskNotifyGiveFromISR+0x48>
	__asm volatile
  401efe:	f385 8811 	msr	BASEPRI, r5
  401f02:	bdf8      	pop	{r3, r4, r5, r6, r7, pc}
		configASSERT( xTaskToNotify );
  401f04:	f241 3163 	movw	r1, #4963	; 0x1363
  401f08:	481a      	ldr	r0, [pc, #104]	; (401f74 <vTaskNotifyGiveFromISR+0xac>)
  401f0a:	4b1b      	ldr	r3, [pc, #108]	; (401f78 <vTaskNotifyGiveFromISR+0xb0>)
  401f0c:	4798      	blx	r3
  401f0e:	e7df      	b.n	401ed0 <vTaskNotifyGiveFromISR+0x8>
				configASSERT( listLIST_ITEM_CONTAINER( &( pxTCB->xEventListItem ) ) == NULL );
  401f10:	6aa3      	ldr	r3, [r4, #40]	; 0x28
  401f12:	b123      	cbz	r3, 401f1e <vTaskNotifyGiveFromISR+0x56>
  401f14:	f241 3189 	movw	r1, #5001	; 0x1389
  401f18:	4816      	ldr	r0, [pc, #88]	; (401f74 <vTaskNotifyGiveFromISR+0xac>)
  401f1a:	4b17      	ldr	r3, [pc, #92]	; (401f78 <vTaskNotifyGiveFromISR+0xb0>)
  401f1c:	4798      	blx	r3
				if( uxSchedulerSuspended == ( UBaseType_t ) pdFALSE )
  401f1e:	4b17      	ldr	r3, [pc, #92]	; (401f7c <vTaskNotifyGiveFromISR+0xb4>)
  401f20:	681b      	ldr	r3, [r3, #0]
  401f22:	b9fb      	cbnz	r3, 401f64 <vTaskNotifyGiveFromISR+0x9c>
					( void ) uxListRemove( &( pxTCB->xStateListItem ) );
  401f24:	1d27      	adds	r7, r4, #4
  401f26:	4638      	mov	r0, r7
  401f28:	4b15      	ldr	r3, [pc, #84]	; (401f80 <vTaskNotifyGiveFromISR+0xb8>)
  401f2a:	4798      	blx	r3
					prvAddTaskToReadyList( pxTCB );
  401f2c:	6ae3      	ldr	r3, [r4, #44]	; 0x2c
  401f2e:	2201      	movs	r2, #1
  401f30:	409a      	lsls	r2, r3
  401f32:	4914      	ldr	r1, [pc, #80]	; (401f84 <vTaskNotifyGiveFromISR+0xbc>)
  401f34:	6808      	ldr	r0, [r1, #0]
  401f36:	4302      	orrs	r2, r0
  401f38:	600a      	str	r2, [r1, #0]
  401f3a:	eb03 0383 	add.w	r3, r3, r3, lsl #2
  401f3e:	009a      	lsls	r2, r3, #2
  401f40:	4639      	mov	r1, r7
  401f42:	4811      	ldr	r0, [pc, #68]	; (401f88 <vTaskNotifyGiveFromISR+0xc0>)
  401f44:	4410      	add	r0, r2
  401f46:	4b11      	ldr	r3, [pc, #68]	; (401f8c <vTaskNotifyGiveFromISR+0xc4>)
  401f48:	4798      	blx	r3
				if( pxTCB->uxPriority > pxCurrentTCB->uxPriority )
  401f4a:	6ae2      	ldr	r2, [r4, #44]	; 0x2c
  401f4c:	4b10      	ldr	r3, [pc, #64]	; (401f90 <vTaskNotifyGiveFromISR+0xc8>)
  401f4e:	681b      	ldr	r3, [r3, #0]
  401f50:	6adb      	ldr	r3, [r3, #44]	; 0x2c
  401f52:	429a      	cmp	r2, r3
  401f54:	d9d3      	bls.n	401efe <vTaskNotifyGiveFromISR+0x36>
					if( pxHigherPriorityTaskWoken != NULL )
  401f56:	b10e      	cbz	r6, 401f5c <vTaskNotifyGiveFromISR+0x94>
						*pxHigherPriorityTaskWoken = pdTRUE;
  401f58:	2301      	movs	r3, #1
  401f5a:	6033      	str	r3, [r6, #0]
					xYieldPending = pdTRUE;
  401f5c:	2201      	movs	r2, #1
  401f5e:	4b0d      	ldr	r3, [pc, #52]	; (401f94 <vTaskNotifyGiveFromISR+0xcc>)
  401f60:	601a      	str	r2, [r3, #0]
  401f62:	e7cc      	b.n	401efe <vTaskNotifyGiveFromISR+0x36>
					vListInsertEnd( &( xPendingReadyList ), &( pxTCB->xEventListItem ) );
  401f64:	f104 0118 	add.w	r1, r4, #24
  401f68:	480b      	ldr	r0, [pc, #44]	; (401f98 <vTaskNotifyGiveFromISR+0xd0>)
  401f6a:	4b08      	ldr	r3, [pc, #32]	; (401f8c <vTaskNotifyGiveFromISR+0xc4>)
  401f6c:	4798      	blx	r3
  401f6e:	e7ec      	b.n	401f4a <vTaskNotifyGiveFromISR+0x82>
  401f70:	00400925 	.word	0x00400925
  401f74:	00403428 	.word	0x00403428
  401f78:	00403021 	.word	0x00403021
  401f7c:	200005b8 	.word	0x200005b8
  401f80:	004005c5 	.word	0x004005c5
  401f84:	200005c0 	.word	0x200005c0
  401f88:	2000050c 	.word	0x2000050c
  401f8c:	00400579 	.word	0x00400579
  401f90:	20000500 	.word	0x20000500
  401f94:	2000063c 	.word	0x2000063c
  401f98:	200005f8 	.word	0x200005f8

00401f9c <prvGetNextExpireTime>:
	the timer with the nearest expiry time will expire.  If there are no
	active timers then just set the next expire time to 0.  That will cause
	this task to unblock when the tick count overflows, at which point the
	timer lists will be switched and the next expiry time can be
	re-assessed.  */
	*pxListWasEmpty = listLIST_IS_EMPTY( pxCurrentTimerList );
  401f9c:	4b06      	ldr	r3, [pc, #24]	; (401fb8 <prvGetNextExpireTime+0x1c>)
  401f9e:	681a      	ldr	r2, [r3, #0]
  401fa0:	6813      	ldr	r3, [r2, #0]
  401fa2:	b92b      	cbnz	r3, 401fb0 <prvGetNextExpireTime+0x14>
  401fa4:	2301      	movs	r3, #1
  401fa6:	6003      	str	r3, [r0, #0]
	if( *pxListWasEmpty == pdFALSE )
  401fa8:	b923      	cbnz	r3, 401fb4 <prvGetNextExpireTime+0x18>
	{
		xNextExpireTime = listGET_ITEM_VALUE_OF_HEAD_ENTRY( pxCurrentTimerList );
  401faa:	68d3      	ldr	r3, [r2, #12]
  401fac:	6818      	ldr	r0, [r3, #0]
  401fae:	4770      	bx	lr
	*pxListWasEmpty = listLIST_IS_EMPTY( pxCurrentTimerList );
  401fb0:	2300      	movs	r3, #0
  401fb2:	e7f8      	b.n	401fa6 <prvGetNextExpireTime+0xa>
	}
	else
	{
		/* Ensure the task unblocks when the tick count rolls over. */
		xNextExpireTime = ( TickType_t ) 0U;
  401fb4:	2000      	movs	r0, #0
	}

	return xNextExpireTime;
}
  401fb6:	4770      	bx	lr
  401fb8:	20000640 	.word	0x20000640

00401fbc <prvInsertTimerInActiveList>:
	return xTimeNow;
}
/*-----------------------------------------------------------*/

static BaseType_t prvInsertTimerInActiveList( Timer_t * const pxTimer, const TickType_t xNextExpiryTime, const TickType_t xTimeNow, const TickType_t xCommandTime )
{
  401fbc:	b508      	push	{r3, lr}
BaseType_t xProcessTimerNow = pdFALSE;

	listSET_LIST_ITEM_VALUE( &( pxTimer->xTimerListItem ), xNextExpiryTime );
  401fbe:	6041      	str	r1, [r0, #4]
	listSET_LIST_ITEM_OWNER( &( pxTimer->xTimerListItem ), pxTimer );
  401fc0:	6100      	str	r0, [r0, #16]

	if( xNextExpiryTime <= xTimeNow )
  401fc2:	4291      	cmp	r1, r2
  401fc4:	d80c      	bhi.n	401fe0 <prvInsertTimerInActiveList+0x24>
	{
		/* Has the expiry time elapsed between the command to start/reset a
		timer was issued, and the time the command was processed? */
		if( ( ( TickType_t ) ( xTimeNow - xCommandTime ) ) >= pxTimer->xTimerPeriodInTicks ) /*lint !e961 MISRA exception as the casts are only redundant for some ports. */
  401fc6:	1ad2      	subs	r2, r2, r3
  401fc8:	6983      	ldr	r3, [r0, #24]
  401fca:	429a      	cmp	r2, r3
  401fcc:	d301      	bcc.n	401fd2 <prvInsertTimerInActiveList+0x16>
		{
			/* The time between a command being issued and the command being
			processed actually exceeds the timers period.  */
			xProcessTimerNow = pdTRUE;
  401fce:	2001      	movs	r0, #1
  401fd0:	bd08      	pop	{r3, pc}
		}
		else
		{
			vListInsert( pxOverflowTimerList, &( pxTimer->xTimerListItem ) );
  401fd2:	1d01      	adds	r1, r0, #4
  401fd4:	4b09      	ldr	r3, [pc, #36]	; (401ffc <prvInsertTimerInActiveList+0x40>)
  401fd6:	6818      	ldr	r0, [r3, #0]
  401fd8:	4b09      	ldr	r3, [pc, #36]	; (402000 <prvInsertTimerInActiveList+0x44>)
  401fda:	4798      	blx	r3
BaseType_t xProcessTimerNow = pdFALSE;
  401fdc:	2000      	movs	r0, #0
  401fde:	bd08      	pop	{r3, pc}
		}
	}
	else
	{
		if( ( xTimeNow < xCommandTime ) && ( xNextExpiryTime >= xCommandTime ) )
  401fe0:	429a      	cmp	r2, r3
  401fe2:	d201      	bcs.n	401fe8 <prvInsertTimerInActiveList+0x2c>
  401fe4:	4299      	cmp	r1, r3
  401fe6:	d206      	bcs.n	401ff6 <prvInsertTimerInActiveList+0x3a>
			its expiry time and should be processed immediately. */
			xProcessTimerNow = pdTRUE;
		}
		else
		{
			vListInsert( pxCurrentTimerList, &( pxTimer->xTimerListItem ) );
  401fe8:	1d01      	adds	r1, r0, #4
  401fea:	4b06      	ldr	r3, [pc, #24]	; (402004 <prvInsertTimerInActiveList+0x48>)
  401fec:	6818      	ldr	r0, [r3, #0]
  401fee:	4b04      	ldr	r3, [pc, #16]	; (402000 <prvInsertTimerInActiveList+0x44>)
  401ff0:	4798      	blx	r3
BaseType_t xProcessTimerNow = pdFALSE;
  401ff2:	2000      	movs	r0, #0
  401ff4:	bd08      	pop	{r3, pc}
			xProcessTimerNow = pdTRUE;
  401ff6:	2001      	movs	r0, #1
		}
	}

	return xProcessTimerNow;
}
  401ff8:	bd08      	pop	{r3, pc}
  401ffa:	bf00      	nop
  401ffc:	20000644 	.word	0x20000644
  402000:	00400591 	.word	0x00400591
  402004:	20000640 	.word	0x20000640

00402008 <prvCheckForValidListAndQueue>:
	pxOverflowTimerList = pxTemp;
}
/*-----------------------------------------------------------*/

static void prvCheckForValidListAndQueue( void )
{
  402008:	b570      	push	{r4, r5, r6, lr}
	/* Check that the list from which active timers are referenced, and the
	queue used to communicate with the timer service, have been
	initialised. */
	taskENTER_CRITICAL();
  40200a:	4b10      	ldr	r3, [pc, #64]	; (40204c <prvCheckForValidListAndQueue+0x44>)
  40200c:	4798      	blx	r3
	{
		if( xTimerQueue == NULL )
  40200e:	4b10      	ldr	r3, [pc, #64]	; (402050 <prvCheckForValidListAndQueue+0x48>)
  402010:	681b      	ldr	r3, [r3, #0]
  402012:	b113      	cbz	r3, 40201a <prvCheckForValidListAndQueue+0x12>
		else
		{
			mtCOVERAGE_TEST_MARKER();
		}
	}
	taskEXIT_CRITICAL();
  402014:	4b0f      	ldr	r3, [pc, #60]	; (402054 <prvCheckForValidListAndQueue+0x4c>)
  402016:	4798      	blx	r3
  402018:	bd70      	pop	{r4, r5, r6, pc}
			vListInitialise( &xActiveTimerList1 );
  40201a:	4d0f      	ldr	r5, [pc, #60]	; (402058 <prvCheckForValidListAndQueue+0x50>)
  40201c:	4628      	mov	r0, r5
  40201e:	4e0f      	ldr	r6, [pc, #60]	; (40205c <prvCheckForValidListAndQueue+0x54>)
  402020:	47b0      	blx	r6
			vListInitialise( &xActiveTimerList2 );
  402022:	4c0f      	ldr	r4, [pc, #60]	; (402060 <prvCheckForValidListAndQueue+0x58>)
  402024:	4620      	mov	r0, r4
  402026:	47b0      	blx	r6
			pxCurrentTimerList = &xActiveTimerList1;
  402028:	4b0e      	ldr	r3, [pc, #56]	; (402064 <prvCheckForValidListAndQueue+0x5c>)
  40202a:	601d      	str	r5, [r3, #0]
			pxOverflowTimerList = &xActiveTimerList2;
  40202c:	4b0e      	ldr	r3, [pc, #56]	; (402068 <prvCheckForValidListAndQueue+0x60>)
  40202e:	601c      	str	r4, [r3, #0]
				xTimerQueue = xQueueCreate( ( UBaseType_t ) configTIMER_QUEUE_LENGTH, sizeof( DaemonTaskMessage_t ) );
  402030:	2200      	movs	r2, #0
  402032:	2110      	movs	r1, #16
  402034:	2005      	movs	r0, #5
  402036:	4b0d      	ldr	r3, [pc, #52]	; (40206c <prvCheckForValidListAndQueue+0x64>)
  402038:	4798      	blx	r3
  40203a:	4b05      	ldr	r3, [pc, #20]	; (402050 <prvCheckForValidListAndQueue+0x48>)
  40203c:	6018      	str	r0, [r3, #0]
				if( xTimerQueue != NULL )
  40203e:	2800      	cmp	r0, #0
  402040:	d0e8      	beq.n	402014 <prvCheckForValidListAndQueue+0xc>
					vQueueAddToRegistry( xTimerQueue, "TmrQ" );
  402042:	490b      	ldr	r1, [pc, #44]	; (402070 <prvCheckForValidListAndQueue+0x68>)
  402044:	4b0b      	ldr	r3, [pc, #44]	; (402074 <prvCheckForValidListAndQueue+0x6c>)
  402046:	4798      	blx	r3
  402048:	e7e4      	b.n	402014 <prvCheckForValidListAndQueue+0xc>
  40204a:	bf00      	nop
  40204c:	004006c5 	.word	0x004006c5
  402050:	20000674 	.word	0x20000674
  402054:	0040070d 	.word	0x0040070d
  402058:	20000648 	.word	0x20000648
  40205c:	0040055d 	.word	0x0040055d
  402060:	2000065c 	.word	0x2000065c
  402064:	20000640 	.word	0x20000640
  402068:	20000644 	.word	0x20000644
  40206c:	00400eed 	.word	0x00400eed
  402070:	00403448 	.word	0x00403448
  402074:	004013cd 	.word	0x004013cd

00402078 <xTimerCreateTimerTask>:
{
  402078:	b510      	push	{r4, lr}
  40207a:	b082      	sub	sp, #8
	prvCheckForValidListAndQueue();
  40207c:	4b0e      	ldr	r3, [pc, #56]	; (4020b8 <xTimerCreateTimerTask+0x40>)
  40207e:	4798      	blx	r3
	if( xTimerQueue != NULL )
  402080:	4b0e      	ldr	r3, [pc, #56]	; (4020bc <xTimerCreateTimerTask+0x44>)
  402082:	681b      	ldr	r3, [r3, #0]
  402084:	b17b      	cbz	r3, 4020a6 <xTimerCreateTimerTask+0x2e>
			xReturn = xTaskCreate(	prvTimerTask,
  402086:	4b0e      	ldr	r3, [pc, #56]	; (4020c0 <xTimerCreateTimerTask+0x48>)
  402088:	9301      	str	r3, [sp, #4]
  40208a:	2307      	movs	r3, #7
  40208c:	9300      	str	r3, [sp, #0]
  40208e:	2300      	movs	r3, #0
  402090:	f44f 7282 	mov.w	r2, #260	; 0x104
  402094:	490b      	ldr	r1, [pc, #44]	; (4020c4 <xTimerCreateTimerTask+0x4c>)
  402096:	480c      	ldr	r0, [pc, #48]	; (4020c8 <xTimerCreateTimerTask+0x50>)
  402098:	4c0c      	ldr	r4, [pc, #48]	; (4020cc <xTimerCreateTimerTask+0x54>)
  40209a:	47a0      	blx	r4
  40209c:	4604      	mov	r4, r0
	configASSERT( xReturn );
  40209e:	b124      	cbz	r4, 4020aa <xTimerCreateTimerTask+0x32>
}
  4020a0:	4620      	mov	r0, r4
  4020a2:	b002      	add	sp, #8
  4020a4:	bd10      	pop	{r4, pc}
BaseType_t xReturn = pdFAIL;
  4020a6:	2400      	movs	r4, #0
  4020a8:	e7f9      	b.n	40209e <xTimerCreateTimerTask+0x26>
	configASSERT( xReturn );
  4020aa:	f240 1113 	movw	r1, #275	; 0x113
  4020ae:	4808      	ldr	r0, [pc, #32]	; (4020d0 <xTimerCreateTimerTask+0x58>)
  4020b0:	4b08      	ldr	r3, [pc, #32]	; (4020d4 <xTimerCreateTimerTask+0x5c>)
  4020b2:	4798      	blx	r3
	return xReturn;
  4020b4:	e7f4      	b.n	4020a0 <xTimerCreateTimerTask+0x28>
  4020b6:	bf00      	nop
  4020b8:	00402009 	.word	0x00402009
  4020bc:	20000674 	.word	0x20000674
  4020c0:	20000678 	.word	0x20000678
  4020c4:	0040346c 	.word	0x0040346c
  4020c8:	00402441 	.word	0x00402441
  4020cc:	004017a1 	.word	0x004017a1
  4020d0:	00403450 	.word	0x00403450
  4020d4:	00403021 	.word	0x00403021

004020d8 <xTimerGenericCommand>:
{
  4020d8:	b5f0      	push	{r4, r5, r6, r7, lr}
  4020da:	b085      	sub	sp, #20
  4020dc:	460c      	mov	r4, r1
  4020de:	4616      	mov	r6, r2
  4020e0:	461f      	mov	r7, r3
	configASSERT( xTimer );
  4020e2:	4605      	mov	r5, r0
  4020e4:	b198      	cbz	r0, 40210e <xTimerGenericCommand+0x36>
	if( xTimerQueue != NULL )
  4020e6:	4b15      	ldr	r3, [pc, #84]	; (40213c <xTimerGenericCommand+0x64>)
  4020e8:	6818      	ldr	r0, [r3, #0]
  4020ea:	b328      	cbz	r0, 402138 <xTimerGenericCommand+0x60>
		xMessage.xMessageID = xCommandID;
  4020ec:	9400      	str	r4, [sp, #0]
		xMessage.u.xTimerParameters.xMessageValue = xOptionalValue;
  4020ee:	9601      	str	r6, [sp, #4]
		xMessage.u.xTimerParameters.pxTimer = xTimer;
  4020f0:	9502      	str	r5, [sp, #8]
		if( xCommandID < tmrFIRST_FROM_ISR_COMMAND )
  4020f2:	2c05      	cmp	r4, #5
  4020f4:	dc19      	bgt.n	40212a <xTimerGenericCommand+0x52>
			if( xTaskGetSchedulerState() == taskSCHEDULER_RUNNING )
  4020f6:	4b12      	ldr	r3, [pc, #72]	; (402140 <xTimerGenericCommand+0x68>)
  4020f8:	4798      	blx	r3
  4020fa:	2802      	cmp	r0, #2
  4020fc:	d00d      	beq.n	40211a <xTimerGenericCommand+0x42>
				xReturn = xQueueSendToBack( xTimerQueue, &xMessage, tmrNO_DELAY );
  4020fe:	2300      	movs	r3, #0
  402100:	461a      	mov	r2, r3
  402102:	4669      	mov	r1, sp
  402104:	480d      	ldr	r0, [pc, #52]	; (40213c <xTimerGenericCommand+0x64>)
  402106:	6800      	ldr	r0, [r0, #0]
  402108:	4c0e      	ldr	r4, [pc, #56]	; (402144 <xTimerGenericCommand+0x6c>)
  40210a:	47a0      	blx	r4
  40210c:	e012      	b.n	402134 <xTimerGenericCommand+0x5c>
	configASSERT( xTimer );
  40210e:	f44f 71c1 	mov.w	r1, #386	; 0x182
  402112:	480d      	ldr	r0, [pc, #52]	; (402148 <xTimerGenericCommand+0x70>)
  402114:	4b0d      	ldr	r3, [pc, #52]	; (40214c <xTimerGenericCommand+0x74>)
  402116:	4798      	blx	r3
  402118:	e7e5      	b.n	4020e6 <xTimerGenericCommand+0xe>
				xReturn = xQueueSendToBack( xTimerQueue, &xMessage, xTicksToWait );
  40211a:	2300      	movs	r3, #0
  40211c:	9a0a      	ldr	r2, [sp, #40]	; 0x28
  40211e:	4669      	mov	r1, sp
  402120:	4806      	ldr	r0, [pc, #24]	; (40213c <xTimerGenericCommand+0x64>)
  402122:	6800      	ldr	r0, [r0, #0]
  402124:	4c07      	ldr	r4, [pc, #28]	; (402144 <xTimerGenericCommand+0x6c>)
  402126:	47a0      	blx	r4
  402128:	e004      	b.n	402134 <xTimerGenericCommand+0x5c>
			xReturn = xQueueSendToBackFromISR( xTimerQueue, &xMessage, pxHigherPriorityTaskWoken );
  40212a:	2300      	movs	r3, #0
  40212c:	463a      	mov	r2, r7
  40212e:	4669      	mov	r1, sp
  402130:	4c07      	ldr	r4, [pc, #28]	; (402150 <xTimerGenericCommand+0x78>)
  402132:	47a0      	blx	r4
}
  402134:	b005      	add	sp, #20
  402136:	bdf0      	pop	{r4, r5, r6, r7, pc}
BaseType_t xReturn = pdFAIL;
  402138:	2000      	movs	r0, #0
	return xReturn;
  40213a:	e7fb      	b.n	402134 <xTimerGenericCommand+0x5c>
  40213c:	20000674 	.word	0x20000674
  402140:	00401df5 	.word	0x00401df5
  402144:	00400f41 	.word	0x00400f41
  402148:	00403450 	.word	0x00403450
  40214c:	00403021 	.word	0x00403021
  402150:	0040112d 	.word	0x0040112d

00402154 <prvSwitchTimerLists>:
{
  402154:	b570      	push	{r4, r5, r6, lr}
  402156:	b082      	sub	sp, #8
	while( listLIST_IS_EMPTY( pxCurrentTimerList ) == pdFALSE )
  402158:	4b1a      	ldr	r3, [pc, #104]	; (4021c4 <prvSwitchTimerLists+0x70>)
  40215a:	681b      	ldr	r3, [r3, #0]
  40215c:	681a      	ldr	r2, [r3, #0]
  40215e:	b34a      	cbz	r2, 4021b4 <prvSwitchTimerLists+0x60>
		xNextExpireTime = listGET_ITEM_VALUE_OF_HEAD_ENTRY( pxCurrentTimerList );
  402160:	68db      	ldr	r3, [r3, #12]
  402162:	681e      	ldr	r6, [r3, #0]
		pxTimer = ( Timer_t * ) listGET_OWNER_OF_HEAD_ENTRY( pxCurrentTimerList ); /*lint !e9087 !e9079 void * is used as this macro is used with tasks and co-routines too.  Alignment is known to be fine as the type of the pointer stored and retrieved is the same. */
  402164:	68dc      	ldr	r4, [r3, #12]
		( void ) uxListRemove( &( pxTimer->xTimerListItem ) );
  402166:	1d25      	adds	r5, r4, #4
  402168:	4628      	mov	r0, r5
  40216a:	4b17      	ldr	r3, [pc, #92]	; (4021c8 <prvSwitchTimerLists+0x74>)
  40216c:	4798      	blx	r3
		pxTimer->pxCallbackFunction( ( TimerHandle_t ) pxTimer );
  40216e:	6a23      	ldr	r3, [r4, #32]
  402170:	4620      	mov	r0, r4
  402172:	4798      	blx	r3
		if( ( pxTimer->ucStatus & tmrSTATUS_IS_AUTORELOAD ) != 0 )
  402174:	f894 3028 	ldrb.w	r3, [r4, #40]	; 0x28
  402178:	f013 0f04 	tst.w	r3, #4
  40217c:	d0ec      	beq.n	402158 <prvSwitchTimerLists+0x4>
			xReloadTime = ( xNextExpireTime + pxTimer->xTimerPeriodInTicks );
  40217e:	69a3      	ldr	r3, [r4, #24]
  402180:	4433      	add	r3, r6
			if( xReloadTime > xNextExpireTime )
  402182:	429e      	cmp	r6, r3
  402184:	d207      	bcs.n	402196 <prvSwitchTimerLists+0x42>
				listSET_LIST_ITEM_VALUE( &( pxTimer->xTimerListItem ), xReloadTime );
  402186:	6063      	str	r3, [r4, #4]
				listSET_LIST_ITEM_OWNER( &( pxTimer->xTimerListItem ), pxTimer );
  402188:	6124      	str	r4, [r4, #16]
				vListInsert( pxCurrentTimerList, &( pxTimer->xTimerListItem ) );
  40218a:	4629      	mov	r1, r5
  40218c:	4b0d      	ldr	r3, [pc, #52]	; (4021c4 <prvSwitchTimerLists+0x70>)
  40218e:	6818      	ldr	r0, [r3, #0]
  402190:	4b0e      	ldr	r3, [pc, #56]	; (4021cc <prvSwitchTimerLists+0x78>)
  402192:	4798      	blx	r3
  402194:	e7e0      	b.n	402158 <prvSwitchTimerLists+0x4>
				xResult = xTimerGenericCommand( pxTimer, tmrCOMMAND_START_DONT_TRACE, xNextExpireTime, NULL, tmrNO_DELAY );
  402196:	2100      	movs	r1, #0
  402198:	9100      	str	r1, [sp, #0]
  40219a:	460b      	mov	r3, r1
  40219c:	4632      	mov	r2, r6
  40219e:	4620      	mov	r0, r4
  4021a0:	4c0b      	ldr	r4, [pc, #44]	; (4021d0 <prvSwitchTimerLists+0x7c>)
  4021a2:	47a0      	blx	r4
				configASSERT( xResult );
  4021a4:	2800      	cmp	r0, #0
  4021a6:	d1d7      	bne.n	402158 <prvSwitchTimerLists+0x4>
  4021a8:	f44f 7161 	mov.w	r1, #900	; 0x384
  4021ac:	4809      	ldr	r0, [pc, #36]	; (4021d4 <prvSwitchTimerLists+0x80>)
  4021ae:	4b0a      	ldr	r3, [pc, #40]	; (4021d8 <prvSwitchTimerLists+0x84>)
  4021b0:	4798      	blx	r3
  4021b2:	e7d1      	b.n	402158 <prvSwitchTimerLists+0x4>
	pxCurrentTimerList = pxOverflowTimerList;
  4021b4:	4a09      	ldr	r2, [pc, #36]	; (4021dc <prvSwitchTimerLists+0x88>)
  4021b6:	6810      	ldr	r0, [r2, #0]
  4021b8:	4902      	ldr	r1, [pc, #8]	; (4021c4 <prvSwitchTimerLists+0x70>)
  4021ba:	6008      	str	r0, [r1, #0]
	pxOverflowTimerList = pxTemp;
  4021bc:	6013      	str	r3, [r2, #0]
}
  4021be:	b002      	add	sp, #8
  4021c0:	bd70      	pop	{r4, r5, r6, pc}
  4021c2:	bf00      	nop
  4021c4:	20000640 	.word	0x20000640
  4021c8:	004005c5 	.word	0x004005c5
  4021cc:	00400591 	.word	0x00400591
  4021d0:	004020d9 	.word	0x004020d9
  4021d4:	00403450 	.word	0x00403450
  4021d8:	00403021 	.word	0x00403021
  4021dc:	20000644 	.word	0x20000644

004021e0 <prvSampleTimeNow>:
{
  4021e0:	b538      	push	{r3, r4, r5, lr}
  4021e2:	4605      	mov	r5, r0
	xTimeNow = xTaskGetTickCount();
  4021e4:	4b08      	ldr	r3, [pc, #32]	; (402208 <prvSampleTimeNow+0x28>)
  4021e6:	4798      	blx	r3
  4021e8:	4604      	mov	r4, r0
	if( xTimeNow < xLastTime )
  4021ea:	4b08      	ldr	r3, [pc, #32]	; (40220c <prvSampleTimeNow+0x2c>)
  4021ec:	681b      	ldr	r3, [r3, #0]
  4021ee:	4298      	cmp	r0, r3
  4021f0:	d305      	bcc.n	4021fe <prvSampleTimeNow+0x1e>
		*pxTimerListsWereSwitched = pdFALSE;
  4021f2:	2300      	movs	r3, #0
  4021f4:	602b      	str	r3, [r5, #0]
	xLastTime = xTimeNow;
  4021f6:	4b05      	ldr	r3, [pc, #20]	; (40220c <prvSampleTimeNow+0x2c>)
  4021f8:	601c      	str	r4, [r3, #0]
}
  4021fa:	4620      	mov	r0, r4
  4021fc:	bd38      	pop	{r3, r4, r5, pc}
		prvSwitchTimerLists();
  4021fe:	4b04      	ldr	r3, [pc, #16]	; (402210 <prvSampleTimeNow+0x30>)
  402200:	4798      	blx	r3
		*pxTimerListsWereSwitched = pdTRUE;
  402202:	2301      	movs	r3, #1
  402204:	602b      	str	r3, [r5, #0]
  402206:	e7f6      	b.n	4021f6 <prvSampleTimeNow+0x16>
  402208:	004018b5 	.word	0x004018b5
  40220c:	20000670 	.word	0x20000670
  402210:	00402155 	.word	0x00402155

00402214 <prvProcessExpiredTimer>:
{
  402214:	b570      	push	{r4, r5, r6, lr}
  402216:	b082      	sub	sp, #8
  402218:	4605      	mov	r5, r0
  40221a:	460e      	mov	r6, r1
Timer_t * const pxTimer = ( Timer_t * ) listGET_OWNER_OF_HEAD_ENTRY( pxCurrentTimerList ); /*lint !e9087 !e9079 void * is used as this macro is used with tasks and co-routines too.  Alignment is known to be fine as the type of the pointer stored and retrieved is the same. */
  40221c:	4b16      	ldr	r3, [pc, #88]	; (402278 <prvProcessExpiredTimer+0x64>)
  40221e:	681b      	ldr	r3, [r3, #0]
  402220:	68db      	ldr	r3, [r3, #12]
  402222:	68dc      	ldr	r4, [r3, #12]
	( void ) uxListRemove( &( pxTimer->xTimerListItem ) );
  402224:	1d20      	adds	r0, r4, #4
  402226:	4b15      	ldr	r3, [pc, #84]	; (40227c <prvProcessExpiredTimer+0x68>)
  402228:	4798      	blx	r3
	if( ( pxTimer->ucStatus & tmrSTATUS_IS_AUTORELOAD ) != 0 )
  40222a:	f894 3028 	ldrb.w	r3, [r4, #40]	; 0x28
  40222e:	f013 0f04 	tst.w	r3, #4
  402232:	d108      	bne.n	402246 <prvProcessExpiredTimer+0x32>
		pxTimer->ucStatus &= ~tmrSTATUS_IS_ACTIVE;
  402234:	f023 0301 	bic.w	r3, r3, #1
  402238:	f884 3028 	strb.w	r3, [r4, #40]	; 0x28
	pxTimer->pxCallbackFunction( ( TimerHandle_t ) pxTimer );
  40223c:	6a23      	ldr	r3, [r4, #32]
  40223e:	4620      	mov	r0, r4
  402240:	4798      	blx	r3
}
  402242:	b002      	add	sp, #8
  402244:	bd70      	pop	{r4, r5, r6, pc}
		if( prvInsertTimerInActiveList( pxTimer, ( xNextExpireTime + pxTimer->xTimerPeriodInTicks ), xTimeNow, xNextExpireTime ) != pdFALSE )
  402246:	69a1      	ldr	r1, [r4, #24]
  402248:	462b      	mov	r3, r5
  40224a:	4632      	mov	r2, r6
  40224c:	4429      	add	r1, r5
  40224e:	4620      	mov	r0, r4
  402250:	4e0b      	ldr	r6, [pc, #44]	; (402280 <prvProcessExpiredTimer+0x6c>)
  402252:	47b0      	blx	r6
  402254:	2800      	cmp	r0, #0
  402256:	d0f1      	beq.n	40223c <prvProcessExpiredTimer+0x28>
			xResult = xTimerGenericCommand( pxTimer, tmrCOMMAND_START_DONT_TRACE, xNextExpireTime, NULL, tmrNO_DELAY );
  402258:	2100      	movs	r1, #0
  40225a:	9100      	str	r1, [sp, #0]
  40225c:	460b      	mov	r3, r1
  40225e:	462a      	mov	r2, r5
  402260:	4620      	mov	r0, r4
  402262:	4d08      	ldr	r5, [pc, #32]	; (402284 <prvProcessExpiredTimer+0x70>)
  402264:	47a8      	blx	r5
			configASSERT( xResult );
  402266:	2800      	cmp	r0, #0
  402268:	d1e8      	bne.n	40223c <prvProcessExpiredTimer+0x28>
  40226a:	f44f 71fc 	mov.w	r1, #504	; 0x1f8
  40226e:	4806      	ldr	r0, [pc, #24]	; (402288 <prvProcessExpiredTimer+0x74>)
  402270:	4b06      	ldr	r3, [pc, #24]	; (40228c <prvProcessExpiredTimer+0x78>)
  402272:	4798      	blx	r3
  402274:	e7e2      	b.n	40223c <prvProcessExpiredTimer+0x28>
  402276:	bf00      	nop
  402278:	20000640 	.word	0x20000640
  40227c:	004005c5 	.word	0x004005c5
  402280:	00401fbd 	.word	0x00401fbd
  402284:	004020d9 	.word	0x004020d9
  402288:	00403450 	.word	0x00403450
  40228c:	00403021 	.word	0x00403021

00402290 <prvProcessTimerOrBlockTask>:
{
  402290:	b570      	push	{r4, r5, r6, lr}
  402292:	b082      	sub	sp, #8
  402294:	4606      	mov	r6, r0
  402296:	460c      	mov	r4, r1
	vTaskSuspendAll();
  402298:	4b17      	ldr	r3, [pc, #92]	; (4022f8 <prvProcessTimerOrBlockTask+0x68>)
  40229a:	4798      	blx	r3
		xTimeNow = prvSampleTimeNow( &xTimerListsWereSwitched );
  40229c:	a801      	add	r0, sp, #4
  40229e:	4b17      	ldr	r3, [pc, #92]	; (4022fc <prvProcessTimerOrBlockTask+0x6c>)
  4022a0:	4798      	blx	r3
		if( xTimerListsWereSwitched == pdFALSE )
  4022a2:	9b01      	ldr	r3, [sp, #4]
  4022a4:	bb2b      	cbnz	r3, 4022f2 <prvProcessTimerOrBlockTask+0x62>
  4022a6:	4605      	mov	r5, r0
			if( ( xListWasEmpty == pdFALSE ) && ( xNextExpireTime <= xTimeNow ) )
  4022a8:	b90c      	cbnz	r4, 4022ae <prvProcessTimerOrBlockTask+0x1e>
  4022aa:	42b0      	cmp	r0, r6
  4022ac:	d218      	bcs.n	4022e0 <prvProcessTimerOrBlockTask+0x50>
				if( xListWasEmpty != pdFALSE )
  4022ae:	b124      	cbz	r4, 4022ba <prvProcessTimerOrBlockTask+0x2a>
					xListWasEmpty = listLIST_IS_EMPTY( pxOverflowTimerList );
  4022b0:	4b13      	ldr	r3, [pc, #76]	; (402300 <prvProcessTimerOrBlockTask+0x70>)
  4022b2:	681b      	ldr	r3, [r3, #0]
  4022b4:	681b      	ldr	r3, [r3, #0]
  4022b6:	b9d3      	cbnz	r3, 4022ee <prvProcessTimerOrBlockTask+0x5e>
  4022b8:	2401      	movs	r4, #1
				vQueueWaitForMessageRestricted( xTimerQueue, ( xNextExpireTime - xTimeNow ), xListWasEmpty );
  4022ba:	4622      	mov	r2, r4
  4022bc:	1b71      	subs	r1, r6, r5
  4022be:	4b11      	ldr	r3, [pc, #68]	; (402304 <prvProcessTimerOrBlockTask+0x74>)
  4022c0:	6818      	ldr	r0, [r3, #0]
  4022c2:	4b11      	ldr	r3, [pc, #68]	; (402308 <prvProcessTimerOrBlockTask+0x78>)
  4022c4:	4798      	blx	r3
				if( xTaskResumeAll() == pdFALSE )
  4022c6:	4b11      	ldr	r3, [pc, #68]	; (40230c <prvProcessTimerOrBlockTask+0x7c>)
  4022c8:	4798      	blx	r3
  4022ca:	b938      	cbnz	r0, 4022dc <prvProcessTimerOrBlockTask+0x4c>
					portYIELD_WITHIN_API();
  4022cc:	f04f 5280 	mov.w	r2, #268435456	; 0x10000000
  4022d0:	4b0f      	ldr	r3, [pc, #60]	; (402310 <prvProcessTimerOrBlockTask+0x80>)
  4022d2:	601a      	str	r2, [r3, #0]
  4022d4:	f3bf 8f4f 	dsb	sy
  4022d8:	f3bf 8f6f 	isb	sy
}
  4022dc:	b002      	add	sp, #8
  4022de:	bd70      	pop	{r4, r5, r6, pc}
				( void ) xTaskResumeAll();
  4022e0:	4b0a      	ldr	r3, [pc, #40]	; (40230c <prvProcessTimerOrBlockTask+0x7c>)
  4022e2:	4798      	blx	r3
				prvProcessExpiredTimer( xNextExpireTime, xTimeNow );
  4022e4:	4629      	mov	r1, r5
  4022e6:	4630      	mov	r0, r6
  4022e8:	4b0a      	ldr	r3, [pc, #40]	; (402314 <prvProcessTimerOrBlockTask+0x84>)
  4022ea:	4798      	blx	r3
  4022ec:	e7f6      	b.n	4022dc <prvProcessTimerOrBlockTask+0x4c>
					xListWasEmpty = listLIST_IS_EMPTY( pxOverflowTimerList );
  4022ee:	2400      	movs	r4, #0
  4022f0:	e7e3      	b.n	4022ba <prvProcessTimerOrBlockTask+0x2a>
			( void ) xTaskResumeAll();
  4022f2:	4b06      	ldr	r3, [pc, #24]	; (40230c <prvProcessTimerOrBlockTask+0x7c>)
  4022f4:	4798      	blx	r3
}
  4022f6:	e7f1      	b.n	4022dc <prvProcessTimerOrBlockTask+0x4c>
  4022f8:	004018a5 	.word	0x004018a5
  4022fc:	004021e1 	.word	0x004021e1
  402300:	20000644 	.word	0x20000644
  402304:	20000674 	.word	0x20000674
  402308:	004013f5 	.word	0x004013f5
  40230c:	004019e5 	.word	0x004019e5
  402310:	e000ed04 	.word	0xe000ed04
  402314:	00402215 	.word	0x00402215

00402318 <prvProcessReceivedCommands>:
{
  402318:	b530      	push	{r4, r5, lr}
  40231a:	b089      	sub	sp, #36	; 0x24
	while( xQueueReceive( xTimerQueue, &xMessage, tmrNO_DELAY ) != pdFAIL ) /*lint !e603 xMessage does not have to be initialised as it is passed out, not in, and it is not used unless xQueueReceive() returns pdTRUE. */
  40231c:	e002      	b.n	402324 <prvProcessReceivedCommands+0xc>
		if( xMessage.xMessageID >= ( BaseType_t ) 0 )
  40231e:	9b04      	ldr	r3, [sp, #16]
  402320:	2b00      	cmp	r3, #0
  402322:	da0f      	bge.n	402344 <prvProcessReceivedCommands+0x2c>
	while( xQueueReceive( xTimerQueue, &xMessage, tmrNO_DELAY ) != pdFAIL ) /*lint !e603 xMessage does not have to be initialised as it is passed out, not in, and it is not used unless xQueueReceive() returns pdTRUE. */
  402324:	2200      	movs	r2, #0
  402326:	a904      	add	r1, sp, #16
  402328:	4b3c      	ldr	r3, [pc, #240]	; (40241c <prvProcessReceivedCommands+0x104>)
  40232a:	6818      	ldr	r0, [r3, #0]
  40232c:	4b3c      	ldr	r3, [pc, #240]	; (402420 <prvProcessReceivedCommands+0x108>)
  40232e:	4798      	blx	r3
  402330:	2800      	cmp	r0, #0
  402332:	d070      	beq.n	402416 <prvProcessReceivedCommands+0xfe>
			if( xMessage.xMessageID < ( BaseType_t ) 0 )
  402334:	9b04      	ldr	r3, [sp, #16]
  402336:	2b00      	cmp	r3, #0
  402338:	daf1      	bge.n	40231e <prvProcessReceivedCommands+0x6>
				pxCallback->pxCallbackFunction( pxCallback->pvParameter1, pxCallback->ulParameter2 );
  40233a:	9907      	ldr	r1, [sp, #28]
  40233c:	9806      	ldr	r0, [sp, #24]
  40233e:	9b05      	ldr	r3, [sp, #20]
  402340:	4798      	blx	r3
  402342:	e7ec      	b.n	40231e <prvProcessReceivedCommands+0x6>
			pxTimer = xMessage.u.xTimerParameters.pxTimer;
  402344:	9c06      	ldr	r4, [sp, #24]
			if( listIS_CONTAINED_WITHIN( NULL, &( pxTimer->xTimerListItem ) ) == pdFALSE ) /*lint !e961. The cast is only redundant when NULL is passed into the macro. */
  402346:	6963      	ldr	r3, [r4, #20]
  402348:	b113      	cbz	r3, 402350 <prvProcessReceivedCommands+0x38>
				( void ) uxListRemove( &( pxTimer->xTimerListItem ) );
  40234a:	1d20      	adds	r0, r4, #4
  40234c:	4b35      	ldr	r3, [pc, #212]	; (402424 <prvProcessReceivedCommands+0x10c>)
  40234e:	4798      	blx	r3
			xTimeNow = prvSampleTimeNow( &xTimerListsWereSwitched );
  402350:	a803      	add	r0, sp, #12
  402352:	4b35      	ldr	r3, [pc, #212]	; (402428 <prvProcessReceivedCommands+0x110>)
  402354:	4798      	blx	r3
  402356:	4605      	mov	r5, r0
			switch( xMessage.xMessageID )
  402358:	9b04      	ldr	r3, [sp, #16]
  40235a:	2b09      	cmp	r3, #9
  40235c:	d8e2      	bhi.n	402324 <prvProcessReceivedCommands+0xc>
  40235e:	e8df f003 	tbb	[pc, r3]
  402362:	0505      	.short	0x0505
  402364:	4c352e05 	.word	0x4c352e05
  402368:	352e0505 	.word	0x352e0505
					pxTimer->ucStatus |= tmrSTATUS_IS_ACTIVE;
  40236c:	f894 3028 	ldrb.w	r3, [r4, #40]	; 0x28
  402370:	f043 0301 	orr.w	r3, r3, #1
  402374:	f884 3028 	strb.w	r3, [r4, #40]	; 0x28
					if( prvInsertTimerInActiveList( pxTimer,  xMessage.u.xTimerParameters.xMessageValue + pxTimer->xTimerPeriodInTicks, xTimeNow, xMessage.u.xTimerParameters.xMessageValue ) != pdFALSE )
  402378:	9905      	ldr	r1, [sp, #20]
  40237a:	69a0      	ldr	r0, [r4, #24]
  40237c:	460b      	mov	r3, r1
  40237e:	462a      	mov	r2, r5
  402380:	4401      	add	r1, r0
  402382:	4620      	mov	r0, r4
  402384:	4d29      	ldr	r5, [pc, #164]	; (40242c <prvProcessReceivedCommands+0x114>)
  402386:	47a8      	blx	r5
  402388:	2800      	cmp	r0, #0
  40238a:	d0cb      	beq.n	402324 <prvProcessReceivedCommands+0xc>
						pxTimer->pxCallbackFunction( ( TimerHandle_t ) pxTimer );
  40238c:	6a23      	ldr	r3, [r4, #32]
  40238e:	4620      	mov	r0, r4
  402390:	4798      	blx	r3
						if( ( pxTimer->ucStatus & tmrSTATUS_IS_AUTORELOAD ) != 0 )
  402392:	f894 3028 	ldrb.w	r3, [r4, #40]	; 0x28
  402396:	f013 0f04 	tst.w	r3, #4
  40239a:	d0c3      	beq.n	402324 <prvProcessReceivedCommands+0xc>
							xResult = xTimerGenericCommand( pxTimer, tmrCOMMAND_START_DONT_TRACE, xMessage.u.xTimerParameters.xMessageValue + pxTimer->xTimerPeriodInTicks, NULL, tmrNO_DELAY );
  40239c:	69a2      	ldr	r2, [r4, #24]
  40239e:	2100      	movs	r1, #0
  4023a0:	9100      	str	r1, [sp, #0]
  4023a2:	460b      	mov	r3, r1
  4023a4:	9805      	ldr	r0, [sp, #20]
  4023a6:	4402      	add	r2, r0
  4023a8:	4620      	mov	r0, r4
  4023aa:	4c21      	ldr	r4, [pc, #132]	; (402430 <prvProcessReceivedCommands+0x118>)
  4023ac:	47a0      	blx	r4
							configASSERT( xResult );
  4023ae:	2800      	cmp	r0, #0
  4023b0:	d1b8      	bne.n	402324 <prvProcessReceivedCommands+0xc>
  4023b2:	f240 3113 	movw	r1, #787	; 0x313
  4023b6:	481f      	ldr	r0, [pc, #124]	; (402434 <prvProcessReceivedCommands+0x11c>)
  4023b8:	4b1f      	ldr	r3, [pc, #124]	; (402438 <prvProcessReceivedCommands+0x120>)
  4023ba:	4798      	blx	r3
  4023bc:	e7b2      	b.n	402324 <prvProcessReceivedCommands+0xc>
					pxTimer->ucStatus &= ~tmrSTATUS_IS_ACTIVE;
  4023be:	f894 3028 	ldrb.w	r3, [r4, #40]	; 0x28
  4023c2:	f023 0301 	bic.w	r3, r3, #1
  4023c6:	f884 3028 	strb.w	r3, [r4, #40]	; 0x28
					break;
  4023ca:	e7ab      	b.n	402324 <prvProcessReceivedCommands+0xc>
					pxTimer->ucStatus |= tmrSTATUS_IS_ACTIVE;
  4023cc:	f894 3028 	ldrb.w	r3, [r4, #40]	; 0x28
  4023d0:	f043 0301 	orr.w	r3, r3, #1
  4023d4:	f884 3028 	strb.w	r3, [r4, #40]	; 0x28
					pxTimer->xTimerPeriodInTicks = xMessage.u.xTimerParameters.xMessageValue;
  4023d8:	9b05      	ldr	r3, [sp, #20]
  4023da:	61a3      	str	r3, [r4, #24]
					configASSERT( ( pxTimer->xTimerPeriodInTicks > 0 ) );
  4023dc:	b13b      	cbz	r3, 4023ee <prvProcessReceivedCommands+0xd6>
					( void ) prvInsertTimerInActiveList( pxTimer, ( xTimeNow + pxTimer->xTimerPeriodInTicks ), xTimeNow, xTimeNow );
  4023de:	69a1      	ldr	r1, [r4, #24]
  4023e0:	462b      	mov	r3, r5
  4023e2:	462a      	mov	r2, r5
  4023e4:	4429      	add	r1, r5
  4023e6:	4620      	mov	r0, r4
  4023e8:	4c10      	ldr	r4, [pc, #64]	; (40242c <prvProcessReceivedCommands+0x114>)
  4023ea:	47a0      	blx	r4
					break;
  4023ec:	e79a      	b.n	402324 <prvProcessReceivedCommands+0xc>
					configASSERT( ( pxTimer->xTimerPeriodInTicks > 0 ) );
  4023ee:	f240 312b 	movw	r1, #811	; 0x32b
  4023f2:	4810      	ldr	r0, [pc, #64]	; (402434 <prvProcessReceivedCommands+0x11c>)
  4023f4:	4b10      	ldr	r3, [pc, #64]	; (402438 <prvProcessReceivedCommands+0x120>)
  4023f6:	4798      	blx	r3
  4023f8:	e7f1      	b.n	4023de <prvProcessReceivedCommands+0xc6>
						if( ( pxTimer->ucStatus & tmrSTATUS_IS_STATICALLY_ALLOCATED ) == ( uint8_t ) 0 )
  4023fa:	f894 3028 	ldrb.w	r3, [r4, #40]	; 0x28
  4023fe:	f013 0f02 	tst.w	r3, #2
  402402:	d004      	beq.n	40240e <prvProcessReceivedCommands+0xf6>
							pxTimer->ucStatus &= ~tmrSTATUS_IS_ACTIVE;
  402404:	f023 0301 	bic.w	r3, r3, #1
  402408:	f884 3028 	strb.w	r3, [r4, #40]	; 0x28
  40240c:	e78a      	b.n	402324 <prvProcessReceivedCommands+0xc>
							vPortFree( pxTimer );
  40240e:	4620      	mov	r0, r4
  402410:	4b0a      	ldr	r3, [pc, #40]	; (40243c <prvProcessReceivedCommands+0x124>)
  402412:	4798      	blx	r3
  402414:	e786      	b.n	402324 <prvProcessReceivedCommands+0xc>
}
  402416:	b009      	add	sp, #36	; 0x24
  402418:	bd30      	pop	{r4, r5, pc}
  40241a:	bf00      	nop
  40241c:	20000674 	.word	0x20000674
  402420:	00401239 	.word	0x00401239
  402424:	004005c5 	.word	0x004005c5
  402428:	004021e1 	.word	0x004021e1
  40242c:	00401fbd 	.word	0x00401fbd
  402430:	004020d9 	.word	0x004020d9
  402434:	00403450 	.word	0x00403450
  402438:	00403021 	.word	0x00403021
  40243c:	00400abd 	.word	0x00400abd

00402440 <prvTimerTask>:
{
  402440:	b500      	push	{lr}
  402442:	b083      	sub	sp, #12
		xNextExpireTime = prvGetNextExpireTime( &xListWasEmpty );
  402444:	a801      	add	r0, sp, #4
  402446:	4b04      	ldr	r3, [pc, #16]	; (402458 <prvTimerTask+0x18>)
  402448:	4798      	blx	r3
		prvProcessTimerOrBlockTask( xNextExpireTime, xListWasEmpty );
  40244a:	9901      	ldr	r1, [sp, #4]
  40244c:	4b03      	ldr	r3, [pc, #12]	; (40245c <prvTimerTask+0x1c>)
  40244e:	4798      	blx	r3
		prvProcessReceivedCommands();
  402450:	4b03      	ldr	r3, [pc, #12]	; (402460 <prvTimerTask+0x20>)
  402452:	4798      	blx	r3
  402454:	e7f6      	b.n	402444 <prvTimerTask+0x4>
  402456:	bf00      	nop
  402458:	00401f9d 	.word	0x00401f9d
  40245c:	00402291 	.word	0x00402291
  402460:	00402319 	.word	0x00402319

00402464 <intitializeLEDDriver>:
#include "ledDriver.h"
#include "myDefines.h"


void intitializeLEDDriver(void)
{
  402464:	b510      	push	{r4, lr}
 *
 * \param ul_id Id (number) of the peripheral clock.
 */
static inline void sysclk_enable_peripheral_clock(uint32_t ul_id)
{
	pmc_enable_periph_clk(ul_id);
  402466:	2009      	movs	r0, #9
  402468:	4c0e      	ldr	r4, [pc, #56]	; (4024a4 <intitializeLEDDriver+0x40>)
  40246a:	47a0      	blx	r4
  40246c:	200a      	movs	r0, #10
  40246e:	47a0      	blx	r4
  402470:	200b      	movs	r0, #11
  402472:	47a0      	blx	r4
  402474:	200c      	movs	r0, #12
  402476:	47a0      	blx	r4
  402478:	200d      	movs	r0, #13
  40247a:	47a0      	blx	r4
		enum ioport_direction dir)
{
	Pio *base = arch_ioport_pin_to_base(pin);

	if (dir == IOPORT_DIR_OUTPUT) {
		base->PIO_OER = arch_ioport_pin_to_mask(pin);
  40247c:	4b0a      	ldr	r3, [pc, #40]	; (4024a8 <intitializeLEDDriver+0x44>)
  40247e:	f04f 5480 	mov.w	r4, #268435456	; 0x10000000
  402482:	611c      	str	r4, [r3, #16]
	} else if (dir == IOPORT_DIR_INPUT) {
		base->PIO_ODR = arch_ioport_pin_to_mask(pin);
	}

	base->PIO_OWER = arch_ioport_pin_to_mask(pin);
  402484:	f8c3 40a0 	str.w	r4, [r3, #160]	; 0xa0
		base->PIO_OER = arch_ioport_pin_to_mask(pin);
  402488:	f44f 3000 	mov.w	r0, #131072	; 0x20000
  40248c:	6118      	str	r0, [r3, #16]
	base->PIO_OWER = arch_ioport_pin_to_mask(pin);
  40248e:	f8c3 00a0 	str.w	r0, [r3, #160]	; 0xa0
		base->PIO_OER = arch_ioport_pin_to_mask(pin);
  402492:	4a06      	ldr	r2, [pc, #24]	; (4024ac <intitializeLEDDriver+0x48>)
  402494:	2102      	movs	r1, #2
  402496:	6111      	str	r1, [r2, #16]
	base->PIO_OWER = arch_ioport_pin_to_mask(pin);
  402498:	f8c2 10a0 	str.w	r1, [r2, #160]	; 0xa0
	Pio *base = arch_ioport_pin_to_base(pin);

	if (level) {
		base->PIO_SODR = arch_ioport_pin_to_mask(pin);
	} else {
		base->PIO_CODR = arch_ioport_pin_to_mask(pin);
  40249c:	635c      	str	r4, [r3, #52]	; 0x34
  40249e:	6358      	str	r0, [r3, #52]	; 0x34
  4024a0:	6351      	str	r1, [r2, #52]	; 0x34
  4024a2:	bd10      	pop	{r4, pc}
  4024a4:	00402bed 	.word	0x00402bed
  4024a8:	400e1400 	.word	0x400e1400
  4024ac:	400e1600 	.word	0x400e1600

004024b0 <readLED>:
	1 = EXT_LED1
	2 = EXT_LED2
	3 = EXT_LED3
	*/
	//if the led number is 1, then that will be for the external led #1
	if (uiLedNum == 1)
  4024b0:	2801      	cmp	r0, #1
  4024b2:	d008      	beq.n	4024c6 <readLED+0x16>
	{
		return ioport_get_pin_level(EXT_LED1);
	}
	//else if the led number is 2, then that will be for the external led #2
	else if (uiLedNum == 2)
  4024b4:	2802      	cmp	r0, #2
  4024b6:	d00b      	beq.n	4024d0 <readLED+0x20>
	{
		return ioport_get_pin_level(EXT_LED2);
	}
	//else if the led number is 3, then that will be for the external led #3 
	else if (uiLedNum == 3)
  4024b8:	2803      	cmp	r0, #3
  4024ba:	d00e      	beq.n	4024da <readLED+0x2a>
	}
}

__always_inline static bool arch_ioport_get_pin_level(ioport_pin_t pin)
{
	return arch_ioport_pin_to_base(pin)->PIO_PDSR & arch_ioport_pin_to_mask(pin);
  4024bc:	4b09      	ldr	r3, [pc, #36]	; (4024e4 <readLED+0x34>)
  4024be:	6bd8      	ldr	r0, [r3, #60]	; 0x3c
  4024c0:	f3c0 5080 	ubfx	r0, r0, #22, #1
	else
	{
		return ioport_get_pin_level(LED_0_PIN);
	}
	
}
  4024c4:	4770      	bx	lr
  4024c6:	4b07      	ldr	r3, [pc, #28]	; (4024e4 <readLED+0x34>)
  4024c8:	6bd8      	ldr	r0, [r3, #60]	; 0x3c
  4024ca:	f3c0 7000 	ubfx	r0, r0, #28, #1
		return ioport_get_pin_level(EXT_LED1);
  4024ce:	4770      	bx	lr
  4024d0:	4b04      	ldr	r3, [pc, #16]	; (4024e4 <readLED+0x34>)
  4024d2:	6bd8      	ldr	r0, [r3, #60]	; 0x3c
  4024d4:	f3c0 4040 	ubfx	r0, r0, #17, #1
		return ioport_get_pin_level(EXT_LED2);
  4024d8:	4770      	bx	lr
  4024da:	4b03      	ldr	r3, [pc, #12]	; (4024e8 <readLED+0x38>)
  4024dc:	6bd8      	ldr	r0, [r3, #60]	; 0x3c
  4024de:	f3c0 0040 	ubfx	r0, r0, #1, #1
		return ioport_get_pin_level(EXT_LED3);
  4024e2:	4770      	bx	lr
  4024e4:	400e1400 	.word	0x400e1400
  4024e8:	400e1600 	.word	0x400e1600

004024ec <setLED>:

uint8_t setLED(uint8_t uiLedNum, uint8_t uiLedValue)
{
  4024ec:	b508      	push	{r3, lr}
/*
Sets the LED to a specified value (ON/OFF)
*/
		//if the led number is 1, then set the pin level
		//to on for for the external led #1, and then return the readLED
		if (uiLedNum == 1)
  4024ee:	2801      	cmp	r0, #1
  4024f0:	d00c      	beq.n	40250c <setLED+0x20>
			ioport_set_pin_level(EXT_LED1, uiLedValue);
			return readLED(uiLedNum);			
		}
		//else if the led number is 2, then set the pin level
		//to on for for the external led #2, and then return the readLED
		else if (uiLedNum == 2)
  4024f2:	2802      	cmp	r0, #2
  4024f4:	d017      	beq.n	402526 <setLED+0x3a>
			ioport_set_pin_level(EXT_LED2, uiLedValue);
			return readLED(uiLedNum);			
		}
		//else if the led number is 3, then set the pin level
		//to on for for the external led #3, and then return the readLED
		else if (uiLedNum == 3)
  4024f6:	2803      	cmp	r0, #3
  4024f8:	d022      	beq.n	402540 <setLED+0x54>
	if (level) {
  4024fa:	2900      	cmp	r1, #0
  4024fc:	d02b      	beq.n	402556 <setLED+0x6a>
		base->PIO_SODR = arch_ioport_pin_to_mask(pin);
  4024fe:	f44f 0280 	mov.w	r2, #4194304	; 0x400000
  402502:	4b17      	ldr	r3, [pc, #92]	; (402560 <setLED+0x74>)
  402504:	631a      	str	r2, [r3, #48]	; 0x30
		}
		//else set the on board led to on, then return the readLED
		else
		{
			ioport_set_pin_level(LED_0_PIN, uiLedValue);
			return readLED(uiLedNum);
  402506:	4b17      	ldr	r3, [pc, #92]	; (402564 <setLED+0x78>)
  402508:	4798      	blx	r3
		}
}
  40250a:	bd08      	pop	{r3, pc}
	if (level) {
  40250c:	b131      	cbz	r1, 40251c <setLED+0x30>
		base->PIO_SODR = arch_ioport_pin_to_mask(pin);
  40250e:	f04f 5280 	mov.w	r2, #268435456	; 0x10000000
  402512:	4b13      	ldr	r3, [pc, #76]	; (402560 <setLED+0x74>)
  402514:	631a      	str	r2, [r3, #48]	; 0x30
			return readLED(uiLedNum);			
  402516:	4b13      	ldr	r3, [pc, #76]	; (402564 <setLED+0x78>)
  402518:	4798      	blx	r3
  40251a:	bd08      	pop	{r3, pc}
		base->PIO_CODR = arch_ioport_pin_to_mask(pin);
  40251c:	f04f 5280 	mov.w	r2, #268435456	; 0x10000000
  402520:	4b0f      	ldr	r3, [pc, #60]	; (402560 <setLED+0x74>)
  402522:	635a      	str	r2, [r3, #52]	; 0x34
  402524:	e7f7      	b.n	402516 <setLED+0x2a>
	if (level) {
  402526:	b131      	cbz	r1, 402536 <setLED+0x4a>
		base->PIO_SODR = arch_ioport_pin_to_mask(pin);
  402528:	f44f 3200 	mov.w	r2, #131072	; 0x20000
  40252c:	4b0c      	ldr	r3, [pc, #48]	; (402560 <setLED+0x74>)
  40252e:	631a      	str	r2, [r3, #48]	; 0x30
			return readLED(uiLedNum);			
  402530:	4b0c      	ldr	r3, [pc, #48]	; (402564 <setLED+0x78>)
  402532:	4798      	blx	r3
  402534:	bd08      	pop	{r3, pc}
		base->PIO_CODR = arch_ioport_pin_to_mask(pin);
  402536:	f44f 3200 	mov.w	r2, #131072	; 0x20000
  40253a:	4b09      	ldr	r3, [pc, #36]	; (402560 <setLED+0x74>)
  40253c:	635a      	str	r2, [r3, #52]	; 0x34
  40253e:	e7f7      	b.n	402530 <setLED+0x44>
	if (level) {
  402540:	b129      	cbz	r1, 40254e <setLED+0x62>
		base->PIO_SODR = arch_ioport_pin_to_mask(pin);
  402542:	2202      	movs	r2, #2
  402544:	4b08      	ldr	r3, [pc, #32]	; (402568 <setLED+0x7c>)
  402546:	631a      	str	r2, [r3, #48]	; 0x30
			return readLED(uiLedNum);	
  402548:	4b06      	ldr	r3, [pc, #24]	; (402564 <setLED+0x78>)
  40254a:	4798      	blx	r3
  40254c:	bd08      	pop	{r3, pc}
		base->PIO_CODR = arch_ioport_pin_to_mask(pin);
  40254e:	2202      	movs	r2, #2
  402550:	4b05      	ldr	r3, [pc, #20]	; (402568 <setLED+0x7c>)
  402552:	635a      	str	r2, [r3, #52]	; 0x34
  402554:	e7f8      	b.n	402548 <setLED+0x5c>
  402556:	f44f 0280 	mov.w	r2, #4194304	; 0x400000
  40255a:	4b01      	ldr	r3, [pc, #4]	; (402560 <setLED+0x74>)
  40255c:	635a      	str	r2, [r3, #52]	; 0x34
  40255e:	e7d2      	b.n	402506 <setLED+0x1a>
  402560:	400e1400 	.word	0x400e1400
  402564:	004024b1 	.word	0x004024b1
  402568:	400e1600 	.word	0x400e1600

0040256c <toggleLED>:

uint8_t toggleLED(uint8_t uiLedNum)
{
  40256c:	b510      	push	{r4, lr}
  40256e:	4604      	mov	r4, r0
/*
Toggles the LED
If the led is on, then turn it off
If the led is off, then turn it on
*/
	if (readLED(uiLedNum) == 1)
  402570:	4b06      	ldr	r3, [pc, #24]	; (40258c <toggleLED+0x20>)
  402572:	4798      	blx	r3
  402574:	2801      	cmp	r0, #1
  402576:	d004      	beq.n	402582 <toggleLED+0x16>
	{
		return setLED(uiLedNum, 0);
		
	}
	else
		return setLED(uiLedNum, 1);
  402578:	2101      	movs	r1, #1
  40257a:	4620      	mov	r0, r4
  40257c:	4b04      	ldr	r3, [pc, #16]	; (402590 <toggleLED+0x24>)
  40257e:	4798      	blx	r3
	
	
}
  402580:	bd10      	pop	{r4, pc}
		return setLED(uiLedNum, 0);
  402582:	2100      	movs	r1, #0
  402584:	4620      	mov	r0, r4
  402586:	4b02      	ldr	r3, [pc, #8]	; (402590 <toggleLED+0x24>)
  402588:	4798      	blx	r3
  40258a:	bd10      	pop	{r4, pc}
  40258c:	004024b1 	.word	0x004024b1
  402590:	004024ed 	.word	0x004024ed

00402594 <button_handler>:

}

//This is the second part of lab 5 for a button handler for the isr
void button_handler(uint32_t id, uint32_t mask)
{
  402594:	b500      	push	{lr}
  402596:	b083      	sub	sp, #12
	BaseType_t xHigherPriorityTaskWoken = pdFALSE;
  402598:	2300      	movs	r3, #0
  40259a:	9301      	str	r3, [sp, #4]

	if((PIN_PUSHBUTTON_1_ID == id) && (PIN_PUSHBUTTON_1_MASK == mask))
  40259c:	2809      	cmp	r0, #9
  40259e:	d015      	beq.n	4025cc <button_handler+0x38>
	{
		// Set a global variable to signify which button (IE onboard in this case)
		currButton = SW0;
	}
	else if((PIN_PUSHBUTTON_2_ID == id) && (PIN_PUSHBUTTON_2_MASK == mask))
  4025a0:	280c      	cmp	r0, #12
  4025a2:	d019      	beq.n	4025d8 <button_handler+0x44>
	{
		// Set a global variable to signify external switch 1
		currButton = EXT_SW1;
	}
	else if((PIN_PUSHBUTTON_3_ID == id) && (PIN_PUSHBUTTON_3_MASK == mask))
  4025a4:	280c      	cmp	r0, #12
  4025a6:	d01e      	beq.n	4025e6 <button_handler+0x52>
	{
		// Set a global variable to signify external switch 2
		currButton = EXT_SW2;
	}
	// Then wake up the button Task to process.
	vTaskNotifyGiveFromISR(buttonHandle, &xHigherPriorityTaskWoken);
  4025a8:	a901      	add	r1, sp, #4
  4025aa:	4b12      	ldr	r3, [pc, #72]	; (4025f4 <button_handler+0x60>)
  4025ac:	6818      	ldr	r0, [r3, #0]
  4025ae:	4b12      	ldr	r3, [pc, #72]	; (4025f8 <button_handler+0x64>)
  4025b0:	4798      	blx	r3
	portEND_SWITCHING_ISR(xHigherPriorityTaskWoken);
  4025b2:	9b01      	ldr	r3, [sp, #4]
  4025b4:	b13b      	cbz	r3, 4025c6 <button_handler+0x32>
  4025b6:	f04f 5280 	mov.w	r2, #268435456	; 0x10000000
  4025ba:	4b10      	ldr	r3, [pc, #64]	; (4025fc <button_handler+0x68>)
  4025bc:	601a      	str	r2, [r3, #0]
  4025be:	f3bf 8f4f 	dsb	sy
  4025c2:	f3bf 8f6f 	isb	sy
  4025c6:	b003      	add	sp, #12
  4025c8:	f85d fb04 	ldr.w	pc, [sp], #4
	if((PIN_PUSHBUTTON_1_ID == id) && (PIN_PUSHBUTTON_1_MASK == mask))
  4025cc:	2904      	cmp	r1, #4
  4025ce:	d1e7      	bne.n	4025a0 <button_handler+0xc>
		currButton = SW0;
  4025d0:	461a      	mov	r2, r3
  4025d2:	4b0b      	ldr	r3, [pc, #44]	; (402600 <button_handler+0x6c>)
  4025d4:	601a      	str	r2, [r3, #0]
  4025d6:	e7e7      	b.n	4025a8 <button_handler+0x14>
	else if((PIN_PUSHBUTTON_2_ID == id) && (PIN_PUSHBUTTON_2_MASK == mask))
  4025d8:	f1b1 6f80 	cmp.w	r1, #67108864	; 0x4000000
  4025dc:	d1e2      	bne.n	4025a4 <button_handler+0x10>
		currButton = EXT_SW1;
  4025de:	227a      	movs	r2, #122	; 0x7a
  4025e0:	4b07      	ldr	r3, [pc, #28]	; (402600 <button_handler+0x6c>)
  4025e2:	601a      	str	r2, [r3, #0]
  4025e4:	e7e0      	b.n	4025a8 <button_handler+0x14>
	else if((PIN_PUSHBUTTON_3_ID == id) && (PIN_PUSHBUTTON_3_MASK == mask))
  4025e6:	f1b1 4f80 	cmp.w	r1, #1073741824	; 0x40000000
  4025ea:	d1dd      	bne.n	4025a8 <button_handler+0x14>
		currButton = EXT_SW2;
  4025ec:	227e      	movs	r2, #126	; 0x7e
  4025ee:	4b04      	ldr	r3, [pc, #16]	; (402600 <button_handler+0x6c>)
  4025f0:	601a      	str	r2, [r3, #0]
  4025f2:	e7d9      	b.n	4025a8 <button_handler+0x14>
  4025f4:	20000688 	.word	0x20000688
  4025f8:	00401ec9 	.word	0x00401ec9
  4025fc:	e000ed04 	.word	0xe000ed04
  402600:	2000067c 	.word	0x2000067c

00402604 <initializeButtonDriver>:
{
  402604:	e92d 4ff0 	stmdb	sp!, {r4, r5, r6, r7, r8, r9, sl, fp, lr}
  402608:	b083      	sub	sp, #12
		base->PIO_ODR = arch_ioport_pin_to_mask(pin);
  40260a:	4c48      	ldr	r4, [pc, #288]	; (40272c <initializeButtonDriver+0x128>)
  40260c:	f04f 6680 	mov.w	r6, #67108864	; 0x4000000
  402610:	6166      	str	r6, [r4, #20]
	base->PIO_OWER = arch_ioport_pin_to_mask(pin);
  402612:	f8c4 60a0 	str.w	r6, [r4, #160]	; 0xa0
		base->PIO_ODR = arch_ioport_pin_to_mask(pin);
  402616:	f04f 4580 	mov.w	r5, #1073741824	; 0x40000000
  40261a:	6165      	str	r5, [r4, #20]
	base->PIO_OWER = arch_ioport_pin_to_mask(pin);
  40261c:	f8c4 50a0 	str.w	r5, [r4, #160]	; 0xa0
		base->PIO_ODR = arch_ioport_pin_to_mask(pin);
  402620:	2301      	movs	r3, #1
  402622:	4a43      	ldr	r2, [pc, #268]	; (402730 <initializeButtonDriver+0x12c>)
  402624:	6153      	str	r3, [r2, #20]
	base->PIO_OWER = arch_ioport_pin_to_mask(pin);
  402626:	f8c2 30a0 	str.w	r3, [r2, #160]	; 0xa0
		base->PIO_PUER = mask;
  40262a:	6666      	str	r6, [r4, #100]	; 0x64
		base->PIO_PPDDR = mask;
  40262c:	f8c4 6090 	str.w	r6, [r4, #144]	; 0x90
		base->PIO_MDDR = mask;
  402630:	6566      	str	r6, [r4, #84]	; 0x54
		base->PIO_IFER = mask;
  402632:	6226      	str	r6, [r4, #32]
		base->PIO_IFSCER = mask;
  402634:	f8c4 6084 	str.w	r6, [r4, #132]	; 0x84
		base->PIO_ABCDSR[0] &= ~mask;
  402638:	6f23      	ldr	r3, [r4, #112]	; 0x70
  40263a:	f023 6380 	bic.w	r3, r3, #67108864	; 0x4000000
  40263e:	6723      	str	r3, [r4, #112]	; 0x70
		base->PIO_ABCDSR[1] &= ~mask;
  402640:	6f63      	ldr	r3, [r4, #116]	; 0x74
  402642:	f023 6380 	bic.w	r3, r3, #67108864	; 0x4000000
  402646:	6763      	str	r3, [r4, #116]	; 0x74
		base->PIO_PUER = mask;
  402648:	6665      	str	r5, [r4, #100]	; 0x64
		base->PIO_PPDDR = mask;
  40264a:	f8c4 5090 	str.w	r5, [r4, #144]	; 0x90
		base->PIO_MDDR = mask;
  40264e:	6565      	str	r5, [r4, #84]	; 0x54
		base->PIO_IFER = mask;
  402650:	6225      	str	r5, [r4, #32]
		base->PIO_IFSCER = mask;
  402652:	f8c4 5084 	str.w	r5, [r4, #132]	; 0x84
		base->PIO_ABCDSR[0] &= ~mask;
  402656:	6f23      	ldr	r3, [r4, #112]	; 0x70
  402658:	f023 4380 	bic.w	r3, r3, #1073741824	; 0x40000000
  40265c:	6723      	str	r3, [r4, #112]	; 0x70
		base->PIO_ABCDSR[1] &= ~mask;
  40265e:	6f63      	ldr	r3, [r4, #116]	; 0x74
  402660:	f023 4380 	bic.w	r3, r3, #1073741824	; 0x40000000
  402664:	6763      	str	r3, [r4, #116]	; 0x74
	case IOPORT_SENSE_FALLING:
		base->PIO_ESR = mask;
		base->PIO_FELLSR = mask;
		break;
	case IOPORT_SENSE_RISING:
		base->PIO_ESR = mask;
  402666:	f8c4 60c0 	str.w	r6, [r4, #192]	; 0xc0
		base->PIO_REHLSR = mask;
  40266a:	f8c4 60d4 	str.w	r6, [r4, #212]	; 0xd4
		break;
	default:
		base->PIO_AIMDR = mask;
		return;
	}
	base->PIO_AIMER = mask;
  40266e:	f8c4 60b0 	str.w	r6, [r4, #176]	; 0xb0
		base->PIO_ESR = mask;
  402672:	f8c4 50c0 	str.w	r5, [r4, #192]	; 0xc0
		base->PIO_REHLSR = mask;
  402676:	f8c4 50d4 	str.w	r5, [r4, #212]	; 0xd4
	base->PIO_AIMER = mask;
  40267a:	f8c4 50b0 	str.w	r5, [r4, #176]	; 0xb0
	pio_configure(PIN_PUSHBUTTON_1_PIO, PIN_PUSHBUTTON_1_TYPE, PIN_PUSHBUTTON_1_MASK, PIN_PUSHBUTTON_1_ATTR);
  40267e:	2379      	movs	r3, #121	; 0x79
  402680:	2204      	movs	r2, #4
  402682:	f04f 5120 	mov.w	r1, #671088640	; 0x28000000
  402686:	482a      	ldr	r0, [pc, #168]	; (402730 <initializeButtonDriver+0x12c>)
  402688:	f8df b0b0 	ldr.w	fp, [pc, #176]	; 40273c <initializeButtonDriver+0x138>
  40268c:	47d8      	blx	fp
	pio_set_debounce_filter(PIN_PUSHBUTTON_1_PIO, PIN_PUSHBUTTON_1_MASK, 10);
  40268e:	220a      	movs	r2, #10
  402690:	2104      	movs	r1, #4
  402692:	4827      	ldr	r0, [pc, #156]	; (402730 <initializeButtonDriver+0x12c>)
  402694:	f8df a0a8 	ldr.w	sl, [pc, #168]	; 402740 <initializeButtonDriver+0x13c>
  402698:	47d0      	blx	sl
	pio_handler_set(PIN_PUSHBUTTON_1_PIO, PIN_PUSHBUTTON_1_ID, PIN_PUSHBUTTON_1_MASK, PIN_PUSHBUTTON_1_ATTR, button_handler);
  40269a:	f8df 90a8 	ldr.w	r9, [pc, #168]	; 402744 <initializeButtonDriver+0x140>
  40269e:	f8cd 9000 	str.w	r9, [sp]
  4026a2:	2379      	movs	r3, #121	; 0x79
  4026a4:	2204      	movs	r2, #4
  4026a6:	2109      	movs	r1, #9
  4026a8:	4821      	ldr	r0, [pc, #132]	; (402730 <initializeButtonDriver+0x12c>)
  4026aa:	4f22      	ldr	r7, [pc, #136]	; (402734 <initializeButtonDriver+0x130>)
  4026ac:	47b8      	blx	r7
	pio_handler_set_priority(PIN_PUSHBUTTON_1_PIO, PIN_PUSHBUTTON_1_IRQn, 5);
  4026ae:	2205      	movs	r2, #5
  4026b0:	2109      	movs	r1, #9
  4026b2:	481f      	ldr	r0, [pc, #124]	; (402730 <initializeButtonDriver+0x12c>)
  4026b4:	f8df 8090 	ldr.w	r8, [pc, #144]	; 402748 <initializeButtonDriver+0x144>
  4026b8:	47c0      	blx	r8
	pio_enable_interrupt(PIN_PUSHBUTTON_1_PIO, PIN_PUSHBUTTON_1_MASK);
  4026ba:	2104      	movs	r1, #4
  4026bc:	481c      	ldr	r0, [pc, #112]	; (402730 <initializeButtonDriver+0x12c>)
  4026be:	4b1e      	ldr	r3, [pc, #120]	; (402738 <initializeButtonDriver+0x134>)
  4026c0:	4798      	blx	r3
	pio_configure(PIN_PUSHBUTTON_2_PIO, PIN_PUSHBUTTON_2_TYPE, PIN_PUSHBUTTON_2_MASK, PIN_PUSHBUTTON_2_ATTR);
  4026c2:	2379      	movs	r3, #121	; 0x79
  4026c4:	4632      	mov	r2, r6
  4026c6:	f04f 5120 	mov.w	r1, #671088640	; 0x28000000
  4026ca:	4620      	mov	r0, r4
  4026cc:	47d8      	blx	fp
	pio_set_debounce_filter(PIN_PUSHBUTTON_2_PIO, PIN_PUSHBUTTON_2_MASK, 10);
  4026ce:	220a      	movs	r2, #10
  4026d0:	4631      	mov	r1, r6
  4026d2:	4620      	mov	r0, r4
  4026d4:	47d0      	blx	sl
	pio_handler_set(PIN_PUSHBUTTON_2_PIO, PIN_PUSHBUTTON_2_ID, PIN_PUSHBUTTON_2_MASK, PIN_PUSHBUTTON_2_ATTR, button_handler);
  4026d6:	f8cd 9000 	str.w	r9, [sp]
  4026da:	2379      	movs	r3, #121	; 0x79
  4026dc:	4632      	mov	r2, r6
  4026de:	210c      	movs	r1, #12
  4026e0:	4620      	mov	r0, r4
  4026e2:	47b8      	blx	r7
	pio_handler_set_priority(PIN_PUSHBUTTON_2_PIO, PIN_PUSHBUTTON_2_IRQn, 5);
  4026e4:	2205      	movs	r2, #5
  4026e6:	210c      	movs	r1, #12
  4026e8:	4620      	mov	r0, r4
  4026ea:	47c0      	blx	r8
	pio_enable_interrupt(PIN_PUSHBUTTON_2_PIO, PIN_PUSHBUTTON_2_MASK);
  4026ec:	4631      	mov	r1, r6
  4026ee:	4620      	mov	r0, r4
  4026f0:	4b11      	ldr	r3, [pc, #68]	; (402738 <initializeButtonDriver+0x134>)
  4026f2:	4798      	blx	r3
	pio_configure(PIN_PUSHBUTTON_3_PIO, PIN_PUSHBUTTON_3_TYPE, PIN_PUSHBUTTON_3_MASK, PIN_PUSHBUTTON_3_ATTR);
  4026f4:	2379      	movs	r3, #121	; 0x79
  4026f6:	462a      	mov	r2, r5
  4026f8:	f04f 5120 	mov.w	r1, #671088640	; 0x28000000
  4026fc:	4620      	mov	r0, r4
  4026fe:	47d8      	blx	fp
	pio_set_debounce_filter(PIN_PUSHBUTTON_3_PIO, PIN_PUSHBUTTON_3_MASK, 10);
  402700:	220a      	movs	r2, #10
  402702:	4629      	mov	r1, r5
  402704:	4620      	mov	r0, r4
  402706:	47d0      	blx	sl
	pio_handler_set(PIN_PUSHBUTTON_3_PIO, PIN_PUSHBUTTON_3_ID, PIN_PUSHBUTTON_3_MASK, PIN_PUSHBUTTON_3_ATTR, button_handler);
  402708:	f8cd 9000 	str.w	r9, [sp]
  40270c:	2379      	movs	r3, #121	; 0x79
  40270e:	462a      	mov	r2, r5
  402710:	210c      	movs	r1, #12
  402712:	4620      	mov	r0, r4
  402714:	47b8      	blx	r7
	pio_handler_set_priority(PIN_PUSHBUTTON_3_PIO, PIN_PUSHBUTTON_3_IRQn, 5);
  402716:	2205      	movs	r2, #5
  402718:	210c      	movs	r1, #12
  40271a:	4620      	mov	r0, r4
  40271c:	47c0      	blx	r8
	pio_enable_interrupt(PIN_PUSHBUTTON_3_PIO, PIN_PUSHBUTTON_3_MASK);
  40271e:	4629      	mov	r1, r5
  402720:	4620      	mov	r0, r4
  402722:	4b05      	ldr	r3, [pc, #20]	; (402738 <initializeButtonDriver+0x134>)
  402724:	4798      	blx	r3
}
  402726:	b003      	add	sp, #12
  402728:	e8bd 8ff0 	ldmia.w	sp!, {r4, r5, r6, r7, r8, r9, sl, fp, pc}
  40272c:	400e1400 	.word	0x400e1400
  402730:	400e0e00 	.word	0x400e0e00
  402734:	004003e5 	.word	0x004003e5
  402738:	0040024b 	.word	0x0040024b
  40273c:	004002d5 	.word	0x004002d5
  402740:	0040016f 	.word	0x0040016f
  402744:	00402595 	.word	0x00402595
  402748:	004004b1 	.word	0x004004b1

0040274c <readButton>:
	if (uiButtonNum == 1)
  40274c:	2801      	cmp	r0, #1
  40274e:	d006      	beq.n	40275e <readButton+0x12>
	else if (uiButtonNum == 2)
  402750:	2802      	cmp	r0, #2
  402752:	d009      	beq.n	402768 <readButton+0x1c>
	return arch_ioport_pin_to_base(pin)->PIO_PDSR & arch_ioport_pin_to_mask(pin);
  402754:	4b07      	ldr	r3, [pc, #28]	; (402774 <readButton+0x28>)
  402756:	6bd8      	ldr	r0, [r3, #60]	; 0x3c
  402758:	f3c0 0080 	ubfx	r0, r0, #2, #1
}
  40275c:	4770      	bx	lr
  40275e:	4b06      	ldr	r3, [pc, #24]	; (402778 <readButton+0x2c>)
  402760:	6bd8      	ldr	r0, [r3, #60]	; 0x3c
  402762:	f3c0 6080 	ubfx	r0, r0, #26, #1
		return ioport_get_pin_level(EXT_SW1);
  402766:	4770      	bx	lr
  402768:	4b03      	ldr	r3, [pc, #12]	; (402778 <readButton+0x2c>)
  40276a:	6bd8      	ldr	r0, [r3, #60]	; 0x3c
  40276c:	f3c0 7080 	ubfx	r0, r0, #30, #1
		return ioport_get_pin_level(EXT_SW2);
  402770:	4770      	bx	lr
  402772:	bf00      	nop
  402774:	400e0e00 	.word	0x400e0e00
  402778:	400e1400 	.word	0x400e1400

0040277c <buttonTask>:
uint8_t currLED = 0;
extern int currButton;

//this is the button task for sw0, ext_sw1, and ext_sw2
void buttonTask(void * pvParamaters)
{
  40277c:	b538      	push	{r3, r4, r5, lr}
	EXT_SW2  Send a message to the TX task as defined below

	\r\nLab 05  Interrupts in FreeRTOS\r\n
	*/
	struct rxStruct * controlParams = (struct rxStruct *) pvParamaters;
	QueueHandle_t myTXQ = controlParams->theTXQ;
  40277e:	6804      	ldr	r4, [r0, #0]
  402780:	e00c      	b.n	40279c <buttonTask+0x20>
		
	while (true)
	{	
		if (readButton(SW1) == 1)
		{
			if (SW_Debounce < maxSWDebounce) SW_Debounce++;
  402782:	4b22      	ldr	r3, [pc, #136]	; (40280c <buttonTask+0x90>)
  402784:	681b      	ldr	r3, [r3, #0]
  402786:	2b00      	cmp	r3, #0
  402788:	dd25      	ble.n	4027d6 <buttonTask+0x5a>
			else
			{
				//xQueueSendToBack(myTXQ, &stringBuffer, 0);
				SW_Debounce = 0;
  40278a:	2200      	movs	r2, #0
  40278c:	4b1f      	ldr	r3, [pc, #124]	; (40280c <buttonTask+0x90>)
  40278e:	601a      	str	r2, [r3, #0]
				xQueueSendToBack(myTXQ, uartEXT_SW1, (TickType_t) 0);
  402790:	4613      	mov	r3, r2
  402792:	491f      	ldr	r1, [pc, #124]	; (402810 <buttonTask+0x94>)
  402794:	6809      	ldr	r1, [r1, #0]
  402796:	4620      	mov	r0, r4
  402798:	4d1e      	ldr	r5, [pc, #120]	; (402814 <buttonTask+0x98>)
  40279a:	47a8      	blx	r5
		if (readButton(SW1) == 1)
  40279c:	2001      	movs	r0, #1
  40279e:	4b1e      	ldr	r3, [pc, #120]	; (402818 <buttonTask+0x9c>)
  4027a0:	4798      	blx	r3
  4027a2:	2801      	cmp	r0, #1
  4027a4:	d0ed      	beq.n	402782 <buttonTask+0x6>
			}
		}
		
		else if (readButton(SW2) == 1)
  4027a6:	2002      	movs	r0, #2
  4027a8:	4b1b      	ldr	r3, [pc, #108]	; (402818 <buttonTask+0x9c>)
  4027aa:	4798      	blx	r3
  4027ac:	2801      	cmp	r0, #1
  4027ae:	d016      	beq.n	4027de <buttonTask+0x62>
				xQueueSendToBack(myTXQ, uartEXT_SW2, (TickType_t) 0);
			}
		}
		
		//SW0
		else if (readButton(SW0) == 1)
  4027b0:	2000      	movs	r0, #0
  4027b2:	4b19      	ldr	r3, [pc, #100]	; (402818 <buttonTask+0x9c>)
  4027b4:	4798      	blx	r3
  4027b6:	2801      	cmp	r0, #1
  4027b8:	d1f0      	bne.n	40279c <buttonTask+0x20>
		{			
			if (SW_Debounce < maxSWDebounce) SW_Debounce++;
  4027ba:	4b14      	ldr	r3, [pc, #80]	; (40280c <buttonTask+0x90>)
  4027bc:	681b      	ldr	r3, [r3, #0]
  4027be:	2b00      	cmp	r3, #0
  4027c0:	dd1f      	ble.n	402802 <buttonTask+0x86>
			else
			{
				SW_Debounce = 0;
  4027c2:	2200      	movs	r2, #0
  4027c4:	4b11      	ldr	r3, [pc, #68]	; (40280c <buttonTask+0x90>)
  4027c6:	601a      	str	r2, [r3, #0]
				xQueueSendToBack(myTXQ, uartSW0, (TickType_t) 0);
  4027c8:	4613      	mov	r3, r2
  4027ca:	4914      	ldr	r1, [pc, #80]	; (40281c <buttonTask+0xa0>)
  4027cc:	6809      	ldr	r1, [r1, #0]
  4027ce:	4620      	mov	r0, r4
  4027d0:	4d10      	ldr	r5, [pc, #64]	; (402814 <buttonTask+0x98>)
  4027d2:	47a8      	blx	r5
  4027d4:	e7e2      	b.n	40279c <buttonTask+0x20>
			if (SW_Debounce < maxSWDebounce) SW_Debounce++;
  4027d6:	3301      	adds	r3, #1
  4027d8:	4a0c      	ldr	r2, [pc, #48]	; (40280c <buttonTask+0x90>)
  4027da:	6013      	str	r3, [r2, #0]
  4027dc:	e7de      	b.n	40279c <buttonTask+0x20>
			if (SW_Debounce < maxSWDebounce) SW_Debounce++;
  4027de:	4b0b      	ldr	r3, [pc, #44]	; (40280c <buttonTask+0x90>)
  4027e0:	681b      	ldr	r3, [r3, #0]
  4027e2:	2b00      	cmp	r3, #0
  4027e4:	dd09      	ble.n	4027fa <buttonTask+0x7e>
				SW_Debounce = 0;
  4027e6:	2200      	movs	r2, #0
  4027e8:	4b08      	ldr	r3, [pc, #32]	; (40280c <buttonTask+0x90>)
  4027ea:	601a      	str	r2, [r3, #0]
				xQueueSendToBack(myTXQ, uartEXT_SW2, (TickType_t) 0);
  4027ec:	4613      	mov	r3, r2
  4027ee:	490c      	ldr	r1, [pc, #48]	; (402820 <buttonTask+0xa4>)
  4027f0:	6809      	ldr	r1, [r1, #0]
  4027f2:	4620      	mov	r0, r4
  4027f4:	4d07      	ldr	r5, [pc, #28]	; (402814 <buttonTask+0x98>)
  4027f6:	47a8      	blx	r5
  4027f8:	e7d0      	b.n	40279c <buttonTask+0x20>
			if (SW_Debounce < maxSWDebounce) SW_Debounce++;
  4027fa:	3301      	adds	r3, #1
  4027fc:	4a03      	ldr	r2, [pc, #12]	; (40280c <buttonTask+0x90>)
  4027fe:	6013      	str	r3, [r2, #0]
  402800:	e7cc      	b.n	40279c <buttonTask+0x20>
			if (SW_Debounce < maxSWDebounce) SW_Debounce++;
  402802:	3301      	adds	r3, #1
  402804:	4a01      	ldr	r2, [pc, #4]	; (40280c <buttonTask+0x90>)
  402806:	6013      	str	r3, [r2, #0]
  402808:	e7c8      	b.n	40279c <buttonTask+0x20>
  40280a:	bf00      	nop
  40280c:	20000680 	.word	0x20000680
  402810:	20000010 	.word	0x20000010
  402814:	00400f41 	.word	0x00400f41
  402818:	0040274d 	.word	0x0040274d
  40281c:	20000018 	.word	0x20000018
  402820:	20000014 	.word	0x20000014

00402824 <taskHeartBeat>:
	
}

//this is the heartbeat task to have led 0 blink		
void taskHeartBeat (void * pvParamaters)		
{
  402824:	b508      	push	{r3, lr}
*/	

	//this is the heartbeat for LED 0 to happen once every second
	while (true)
	{
		toggleLED(LED0);
  402826:	2000      	movs	r0, #0
  402828:	4b03      	ldr	r3, [pc, #12]	; (402838 <taskHeartBeat+0x14>)
  40282a:	4798      	blx	r3
		vTaskDelay(xDelay2);
  40282c:	f44f 707a 	mov.w	r0, #1000	; 0x3e8
  402830:	4b02      	ldr	r3, [pc, #8]	; (40283c <taskHeartBeat+0x18>)
  402832:	4798      	blx	r3
  402834:	e7f7      	b.n	402826 <taskHeartBeat+0x2>
  402836:	bf00      	nop
  402838:	0040256d 	.word	0x0040256d
  40283c:	00401afd 	.word	0x00401afd

00402840 <taskLED>:
		
}


void taskLED(void * pvParameters)
{
  402840:	b538      	push	{r3, r4, r5, lr}
  402842:	4605      	mov	r5, r0
	QueueHandle_t LEDParam = (QueueHandle_t) pvParameters;


	while(true)
	{
		xQueueReceive(LEDParam, &(currLED), portMAX_DELAY);
  402844:	4c05      	ldr	r4, [pc, #20]	; (40285c <taskLED+0x1c>)
  402846:	f04f 32ff 	mov.w	r2, #4294967295
  40284a:	4621      	mov	r1, r4
  40284c:	4628      	mov	r0, r5
  40284e:	4b04      	ldr	r3, [pc, #16]	; (402860 <taskLED+0x20>)
  402850:	4798      	blx	r3
		toggleLED(currLED);
  402852:	7820      	ldrb	r0, [r4, #0]
  402854:	4b03      	ldr	r3, [pc, #12]	; (402864 <taskLED+0x24>)
  402856:	4798      	blx	r3
  402858:	e7f4      	b.n	402844 <taskLED+0x4>
  40285a:	bf00      	nop
  40285c:	20000684 	.word	0x20000684
  402860:	00401239 	.word	0x00401239
  402864:	0040256d 	.word	0x0040256d

00402868 <taskTX>:
		}
	}
}

void taskTX(void *pvParameters)
{
  402868:	b510      	push	{r4, lr}
  40286a:	b08e      	sub	sp, #56	; 0x38
	struct rxStruct * controlParams = (struct rxStruct *) pvParameters;
	QueueHandle_t theRXQ = controlParams->theRXQ;
  40286c:	6844      	ldr	r4, [r0, #4]
	
	while (true)
	{
		//will first wait until the rx queue is sent into tx for processing
		//receive the rx message for echo, and place it into a buffer
		xQueueReceive(theRXQ, &bufferString, portMAX_DELAY);
  40286e:	f04f 32ff 	mov.w	r2, #4294967295
  402872:	a901      	add	r1, sp, #4
  402874:	4620      	mov	r0, r4
  402876:	4b04      	ldr	r3, [pc, #16]	; (402888 <taskTX+0x20>)
  402878:	4798      	blx	r3
		UARTPutStr(EDBG_UART, bufferString, sizeof(bufferString));
  40287a:	2232      	movs	r2, #50	; 0x32
  40287c:	a901      	add	r1, sp, #4
  40287e:	4803      	ldr	r0, [pc, #12]	; (40288c <taskTX+0x24>)
  402880:	4b03      	ldr	r3, [pc, #12]	; (402890 <taskTX+0x28>)
  402882:	4798      	blx	r3
  402884:	e7f3      	b.n	40286e <taskTX+0x6>
  402886:	bf00      	nop
  402888:	00401239 	.word	0x00401239
  40288c:	400e0600 	.word	0x400e0600
  402890:	004029c5 	.word	0x004029c5

00402894 <taskRX>:
	}
	
}

void taskRX(void *pvParameters)
{
  402894:	b5f0      	push	{r4, r5, r6, r7, lr}
  402896:	b08f      	sub	sp, #60	; 0x3c
		struct rxStruct * controlParams = (struct rxStruct *) pvParameters;
		QueueHandle_t myRXQ = controlParams->theRXQ;
  402898:	6845      	ldr	r5, [r0, #4]
		QueueHandle_t myTXQ = controlParams->theTXQ;
  40289a:	6806      	ldr	r6, [r0, #0]
		//QueueHandle_t theLEDQ = controlParams->theLEDQ;
		
		char rxBuffer = 0;
  40289c:	2400      	movs	r4, #0
  40289e:	f88d 4037 	strb.w	r4, [sp, #55]	; 0x37
  4028a2:	e02a      	b.n	4028fa <taskRX+0x66>
		{
			stringBuffer[n] = (char) rxBuffer;
			//if the char is 1, then toggle led1 and send echo to tx task
			if (stringBuffer[n] == '1')
			{
				toggleLED(LED1);
  4028a4:	2001      	movs	r0, #1
  4028a6:	4b24      	ldr	r3, [pc, #144]	; (402938 <taskRX+0xa4>)
  4028a8:	4798      	blx	r3
				xQueueSendToBack(myTXQ, &stringBuffer, 0);
  4028aa:	2300      	movs	r3, #0
  4028ac:	461a      	mov	r2, r3
  4028ae:	a901      	add	r1, sp, #4
  4028b0:	4630      	mov	r0, r6
  4028b2:	4f22      	ldr	r7, [pc, #136]	; (40293c <taskRX+0xa8>)
  4028b4:	47b8      	blx	r7
  4028b6:	e01f      	b.n	4028f8 <taskRX+0x64>
				
			}
			//else if the char is 2, then toggle led2 and send echo to tx task
			else if (stringBuffer[n] == '2')
			{
				toggleLED(LED1);
  4028b8:	2001      	movs	r0, #1
  4028ba:	4b1f      	ldr	r3, [pc, #124]	; (402938 <taskRX+0xa4>)
  4028bc:	4798      	blx	r3
				xQueueSendToBack(myTXQ, &stringBuffer, 0);
  4028be:	2300      	movs	r3, #0
  4028c0:	461a      	mov	r2, r3
  4028c2:	a901      	add	r1, sp, #4
  4028c4:	4630      	mov	r0, r6
  4028c6:	4f1d      	ldr	r7, [pc, #116]	; (40293c <taskRX+0xa8>)
  4028c8:	47b8      	blx	r7
  4028ca:	e015      	b.n	4028f8 <taskRX+0x64>
				
			}
			//else if the char is 3, then toggle led3 and send echo to tx task
			else if (stringBuffer[n] == '3')
			{
				toggleLED(LED1);
  4028cc:	2001      	movs	r0, #1
  4028ce:	4b1a      	ldr	r3, [pc, #104]	; (402938 <taskRX+0xa4>)
  4028d0:	4798      	blx	r3
				xQueueSendToBack(myTXQ, &stringBuffer, 0);
  4028d2:	2300      	movs	r3, #0
  4028d4:	461a      	mov	r2, r3
  4028d6:	a901      	add	r1, sp, #4
  4028d8:	4630      	mov	r0, r6
  4028da:	4f18      	ldr	r7, [pc, #96]	; (40293c <taskRX+0xa8>)
  4028dc:	47b8      	blx	r7
  4028de:	e00b      	b.n	4028f8 <taskRX+0x64>
							
			}
			//else if the char is u, then display "Chad" and send echo of char to tx task
			else if (stringBuffer[n] == 'u')
			{
				xQueueSendToBack(myTXQ, &stringBuffer, 0);
  4028e0:	2300      	movs	r3, #0
  4028e2:	461a      	mov	r2, r3
  4028e4:	a901      	add	r1, sp, #4
  4028e6:	4630      	mov	r0, r6
  4028e8:	4f14      	ldr	r7, [pc, #80]	; (40293c <taskRX+0xa8>)
  4028ea:	47b8      	blx	r7
				UARTPutStr(EDBG_UART, myName, 0);
  4028ec:	2200      	movs	r2, #0
  4028ee:	4b14      	ldr	r3, [pc, #80]	; (402940 <taskRX+0xac>)
  4028f0:	6819      	ldr	r1, [r3, #0]
  4028f2:	4814      	ldr	r0, [pc, #80]	; (402944 <taskRX+0xb0>)
  4028f4:	4b14      	ldr	r3, [pc, #80]	; (402948 <taskRX+0xb4>)
  4028f6:	4798      	blx	r3
			else
			{
				xQueueSendToBack(myTXQ, &stringBuffer, 0);
			}
			//step further into the string
			n++;
  4028f8:	3401      	adds	r4, #1
		xQueueReceive(myRXQ, &rxBuffer, portMAX_DELAY);
  4028fa:	f04f 32ff 	mov.w	r2, #4294967295
  4028fe:	f10d 0137 	add.w	r1, sp, #55	; 0x37
  402902:	4628      	mov	r0, r5
  402904:	4b11      	ldr	r3, [pc, #68]	; (40294c <taskRX+0xb8>)
  402906:	4798      	blx	r3
		stringBuffer[0] = rxBuffer;
  402908:	f89d 3037 	ldrb.w	r3, [sp, #55]	; 0x37
  40290c:	f88d 3004 	strb.w	r3, [sp, #4]
			stringBuffer[n] = (char) rxBuffer;
  402910:	aa0e      	add	r2, sp, #56	; 0x38
  402912:	4422      	add	r2, r4
  402914:	f802 3c34 	strb.w	r3, [r2, #-52]
			if (stringBuffer[n] == '1')
  402918:	2b31      	cmp	r3, #49	; 0x31
  40291a:	d0c3      	beq.n	4028a4 <taskRX+0x10>
			else if (stringBuffer[n] == '2')
  40291c:	2b32      	cmp	r3, #50	; 0x32
  40291e:	d0cb      	beq.n	4028b8 <taskRX+0x24>
			else if (stringBuffer[n] == '3')
  402920:	2b33      	cmp	r3, #51	; 0x33
  402922:	d0d3      	beq.n	4028cc <taskRX+0x38>
			else if (stringBuffer[n] == 'u')
  402924:	2b75      	cmp	r3, #117	; 0x75
  402926:	d0db      	beq.n	4028e0 <taskRX+0x4c>
				xQueueSendToBack(myTXQ, &stringBuffer, 0);
  402928:	2300      	movs	r3, #0
  40292a:	461a      	mov	r2, r3
  40292c:	a901      	add	r1, sp, #4
  40292e:	4630      	mov	r0, r6
  402930:	4f02      	ldr	r7, [pc, #8]	; (40293c <taskRX+0xa8>)
  402932:	47b8      	blx	r7
  402934:	e7e0      	b.n	4028f8 <taskRX+0x64>
  402936:	bf00      	nop
  402938:	0040256d 	.word	0x0040256d
  40293c:	00400f41 	.word	0x00400f41
  402940:	2000000c 	.word	0x2000000c
  402944:	400e0600 	.word	0x400e0600
  402948:	004029c5 	.word	0x004029c5
  40294c:	00401239 	.word	0x00401239

00402950 <initUART>:
*/
extern QueueHandle_t theRXQ;


uint8_t initUART(Uart * p_Uart)
{
  402950:	b510      	push	{r4, lr}
  402952:	4604      	mov	r4, r0
		base->PIO_PUDR = mask;
  402954:	4b15      	ldr	r3, [pc, #84]	; (4029ac <initUART+0x5c>)
  402956:	f44f 62c0 	mov.w	r2, #1536	; 0x600
  40295a:	661a      	str	r2, [r3, #96]	; 0x60
		base->PIO_PPDDR = mask;
  40295c:	f8c3 2090 	str.w	r2, [r3, #144]	; 0x90
		base->PIO_MDDR = mask;
  402960:	655a      	str	r2, [r3, #84]	; 0x54
		base->PIO_IFDR = mask;
  402962:	625a      	str	r2, [r3, #36]	; 0x24
		base->PIO_IFSCDR = mask;
  402964:	f8c3 2080 	str.w	r2, [r3, #128]	; 0x80
		base->PIO_ABCDSR[0] &= ~mask;
  402968:	6f19      	ldr	r1, [r3, #112]	; 0x70
  40296a:	f421 61c0 	bic.w	r1, r1, #1536	; 0x600
  40296e:	6719      	str	r1, [r3, #112]	; 0x70
		base->PIO_ABCDSR[1] &= ~mask;
  402970:	6f59      	ldr	r1, [r3, #116]	; 0x74
  402972:	f421 61c0 	bic.w	r1, r1, #1536	; 0x600
  402976:	6759      	str	r1, [r3, #116]	; 0x74
	arch_ioport_port_to_base(port)->PIO_PDR = mask;
  402978:	605a      	str	r2, [r3, #4]
  40297a:	2007      	movs	r0, #7
  40297c:	4b0c      	ldr	r3, [pc, #48]	; (4029b0 <initUART+0x60>)
  40297e:	4798      	blx	r3
	ioport_disable_port(IOPORT_PIOA, PIO_PA9A_URXD0 | PIO_PA10A_UTXD0);
	sysclk_enable_peripheral_clock(ID_UART0);

	// Configure UART Control Registers
	// Reset and Disable RX and TX
	p_Uart->UART_CR = UART_CR_RSTRX | UART_CR_RSTTX | UART_CR_RXDIS | UART_CR_TXDIS;
  402980:	23ac      	movs	r3, #172	; 0xac
  402982:	6023      	str	r3, [r4, #0]
	}
	
	if(retVal != 1)
	{
		// Set The Actual BAUD to Control Register
		p_Uart->UART_BRGR = cd;
  402984:	2334      	movs	r3, #52	; 0x34
  402986:	6223      	str	r3, [r4, #32]

		// Configure Mode
		p_Uart->UART_MR = UART_SERIAL_PARITY;
  402988:	f44f 6300 	mov.w	r3, #2048	; 0x800
  40298c:	6063      	str	r3, [r4, #4]
		
		// Disable PDC Channel
		p_Uart->UART_PTCR = UART_PTCR_RXTDIS | UART_PTCR_TXTDIS;
  40298e:	f240 2302 	movw	r3, #514	; 0x202
  402992:	f8c4 3120 	str.w	r3, [r4, #288]	; 0x120
		
		// Enable RX and TX
		p_Uart->UART_CR = UART_CR_RXEN | UART_CR_TXEN;
  402996:	2250      	movs	r2, #80	; 0x50
  402998:	6022      	str	r2, [r4, #0]
	}
	
	// Enable RX Interrupt
	p_Uart->UART_IER = UART_IER_RXRDY;
  40299a:	2301      	movs	r3, #1
  40299c:	60a3      	str	r3, [r4, #8]
    NVIC->IP[((uint32_t)IRQn)]               = (uint8_t)((priority << (8U - __NVIC_PRIO_BITS)) & (uint32_t)0xFFUL);
  40299e:	4b05      	ldr	r3, [pc, #20]	; (4029b4 <initUART+0x64>)
  4029a0:	f883 2307 	strb.w	r2, [r3, #775]	; 0x307
    NVIC->ISER[(((uint32_t)IRQn) >> 5UL)] = (uint32_t)(1UL << (((uint32_t)IRQn) & 0x1FUL));
  4029a4:	2280      	movs	r2, #128	; 0x80
  4029a6:	601a      	str	r2, [r3, #0]
	NVIC_SetPriority(UART0_IRQn, 5);
	NVIC_EnableIRQ(UART0_IRQn);
	
	return retVal;
}
  4029a8:	2000      	movs	r0, #0
  4029aa:	bd10      	pop	{r4, pc}
  4029ac:	400e0e00 	.word	0x400e0e00
  4029b0:	00402bed 	.word	0x00402bed
  4029b4:	e000e100 	.word	0xe000e100

004029b8 <UARTPutC>:

void UARTPutC(Uart * p_Uart, char data)
{
	// Wait for Transmitter to be Ready
	while((p_Uart->UART_SR & UART_SR_TXRDY) == 0);
  4029b8:	6943      	ldr	r3, [r0, #20]
  4029ba:	f013 0f02 	tst.w	r3, #2
  4029be:	d0fb      	beq.n	4029b8 <UARTPutC>
	p_Uart->UART_THR = data;
  4029c0:	61c1      	str	r1, [r0, #28]
  4029c2:	4770      	bx	lr

004029c4 <UARTPutStr>:

}

void UARTPutStr(Uart * p_Uart, const char * data, uint8_t len)
{
  4029c4:	b538      	push	{r3, r4, r5, lr}
  4029c6:	4605      	mov	r5, r0
  4029c8:	460c      	mov	r4, r1
	//call the vUARTPutC();
	while (*data != '\0')
  4029ca:	e003      	b.n	4029d4 <UARTPutStr+0x10>
	{
		UARTPutC(p_Uart, *data);
  4029cc:	4628      	mov	r0, r5
  4029ce:	4b03      	ldr	r3, [pc, #12]	; (4029dc <UARTPutStr+0x18>)
  4029d0:	4798      	blx	r3
		data++;
  4029d2:	3401      	adds	r4, #1
	while (*data != '\0')
  4029d4:	7821      	ldrb	r1, [r4, #0]
  4029d6:	2900      	cmp	r1, #0
  4029d8:	d1f8      	bne.n	4029cc <UARTPutStr+0x8>
	}
	
}
  4029da:	bd38      	pop	{r3, r4, r5, pc}
  4029dc:	004029b9 	.word	0x004029b9

004029e0 <UART0_Handler>:

void UART0_Handler()
{
  4029e0:	b510      	push	{r4, lr}
  4029e2:	b082      	sub	sp, #8
	char data = '\0';
  4029e4:	2300      	movs	r3, #0
  4029e6:	f88d 3007 	strb.w	r3, [sp, #7]
	uint32_t uiStatus = EDBG_UART->UART_SR;
  4029ea:	4b0f      	ldr	r3, [pc, #60]	; (402a28 <UART0_Handler+0x48>)
  4029ec:	695b      	ldr	r3, [r3, #20]
	BaseType_t xHigherPriorityTaskWoken;


	if(uiStatus & UART_SR_RXRDY)
  4029ee:	f013 0f01 	tst.w	r3, #1
  4029f2:	d101      	bne.n	4029f8 <UART0_Handler+0x18>
		// Send Queue message to task
		xQueueSendToBackFromISR(theRXQ, &data, &xHigherPriorityTaskWoken);
		
		portEND_SWITCHING_ISR(xHigherPriorityTaskWoken);
	}
  4029f4:	b002      	add	sp, #8
  4029f6:	bd10      	pop	{r4, pc}
		data = (char) EDBG_UART->UART_RHR;
  4029f8:	4b0b      	ldr	r3, [pc, #44]	; (402a28 <UART0_Handler+0x48>)
  4029fa:	699b      	ldr	r3, [r3, #24]
  4029fc:	f88d 3007 	strb.w	r3, [sp, #7]
		xQueueSendToBackFromISR(theRXQ, &data, &xHigherPriorityTaskWoken);
  402a00:	2300      	movs	r3, #0
  402a02:	466a      	mov	r2, sp
  402a04:	f10d 0107 	add.w	r1, sp, #7
  402a08:	4808      	ldr	r0, [pc, #32]	; (402a2c <UART0_Handler+0x4c>)
  402a0a:	6800      	ldr	r0, [r0, #0]
  402a0c:	4c08      	ldr	r4, [pc, #32]	; (402a30 <UART0_Handler+0x50>)
  402a0e:	47a0      	blx	r4
		portEND_SWITCHING_ISR(xHigherPriorityTaskWoken);
  402a10:	9b00      	ldr	r3, [sp, #0]
  402a12:	2b00      	cmp	r3, #0
  402a14:	d0ee      	beq.n	4029f4 <UART0_Handler+0x14>
  402a16:	f04f 5280 	mov.w	r2, #268435456	; 0x10000000
  402a1a:	4b06      	ldr	r3, [pc, #24]	; (402a34 <UART0_Handler+0x54>)
  402a1c:	601a      	str	r2, [r3, #0]
  402a1e:	f3bf 8f4f 	dsb	sy
  402a22:	f3bf 8f6f 	isb	sy
  402a26:	e7e5      	b.n	4029f4 <UART0_Handler+0x14>
  402a28:	400e0600 	.word	0x400e0600
  402a2c:	200006e4 	.word	0x200006e4
  402a30:	0040112d 	.word	0x0040112d
  402a34:	e000ed04 	.word	0xe000ed04

00402a38 <sysclk_init>:
	pmc_disable_udpck();
}
#endif // CONFIG_USBCLK_SOURCE

void sysclk_init(void)
{
  402a38:	b508      	push	{r3, lr}
	/* Set flash wait state to max in case the below clock switching. */
	system_init_flash(CHIP_FREQ_CPU_MAX);
  402a3a:	480e      	ldr	r0, [pc, #56]	; (402a74 <sysclk_init+0x3c>)
  402a3c:	4b0e      	ldr	r3, [pc, #56]	; (402a78 <sysclk_init+0x40>)
  402a3e:	4798      	blx	r3
		pmc_switch_mainck_to_fastrc(CKGR_MOR_MOSCRCF_12_MHz);
		break;


	case OSC_MAINCK_XTAL:
		pmc_switch_mainck_to_xtal(PMC_OSC_XTAL,
  402a40:	213e      	movs	r1, #62	; 0x3e
  402a42:	2000      	movs	r0, #0
  402a44:	4b0d      	ldr	r3, [pc, #52]	; (402a7c <sysclk_init+0x44>)
  402a46:	4798      	blx	r3
	case OSC_MAINCK_4M_RC:
	case OSC_MAINCK_8M_RC:
	case OSC_MAINCK_12M_RC:
	case OSC_MAINCK_XTAL:
	case OSC_MAINCK_BYPASS:
		return pmc_osc_is_ready_mainck();
  402a48:	4b0d      	ldr	r3, [pc, #52]	; (402a80 <sysclk_init+0x48>)
  402a4a:	4798      	blx	r3
 *
 * \param id A number identifying the oscillator to wait for.
 */
static inline void osc_wait_ready(uint8_t id)
{
	while (!osc_is_ready(id)) {
  402a4c:	2800      	cmp	r0, #0
  402a4e:	d0fb      	beq.n	402a48 <sysclk_init+0x10>
static inline void pll_enable(const struct pll_config *p_cfg, uint32_t ul_pll_id)
{
	Assert(ul_pll_id < NR_PLLS);

	if (ul_pll_id == PLLA_ID) {
		pmc_disable_pllack(); // Always stop PLL first!
  402a50:	4b0c      	ldr	r3, [pc, #48]	; (402a84 <sysclk_init+0x4c>)
  402a52:	4798      	blx	r3
		PMC->CKGR_PLLAR = CKGR_PLLAR_ONE | p_cfg->ctrl;
  402a54:	4a0c      	ldr	r2, [pc, #48]	; (402a88 <sysclk_init+0x50>)
  402a56:	4b0d      	ldr	r3, [pc, #52]	; (402a8c <sysclk_init+0x54>)
  402a58:	629a      	str	r2, [r3, #40]	; 0x28
static inline uint32_t pll_is_locked(uint32_t ul_pll_id)
{
	Assert(ul_pll_id < NR_PLLS);

	UNUSED(ul_pll_id);
	return pmc_is_locked_pllack();
  402a5a:	4b0d      	ldr	r3, [pc, #52]	; (402a90 <sysclk_init+0x58>)
  402a5c:	4798      	blx	r3
 */
static inline int pll_wait_for_lock(unsigned int pll_id)
{
	Assert(pll_id < NR_PLLS);

	while (!pll_is_locked(pll_id)) {
  402a5e:	2800      	cmp	r0, #0
  402a60:	d0fb      	beq.n	402a5a <sysclk_init+0x22>

		pll_enable_source(CONFIG_PLL0_SOURCE);
		pll_config_defaults(&pllcfg, 0);
		pll_enable(&pllcfg, 0);
		pll_wait_for_lock(0);
		pmc_switch_mck_to_pllack(CONFIG_SYSCLK_PRES);
  402a62:	2010      	movs	r0, #16
  402a64:	4b0b      	ldr	r3, [pc, #44]	; (402a94 <sysclk_init+0x5c>)
  402a66:	4798      	blx	r3
	}
#endif

	/* Update the SystemFrequency variable */
	SystemCoreClockUpdate();
  402a68:	4b0b      	ldr	r3, [pc, #44]	; (402a98 <sysclk_init+0x60>)
  402a6a:	4798      	blx	r3

	/* Set a flash wait state depending on the new cpu frequency */
	system_init_flash(sysclk_get_cpu_hz());
  402a6c:	480b      	ldr	r0, [pc, #44]	; (402a9c <sysclk_init+0x64>)
  402a6e:	4b02      	ldr	r3, [pc, #8]	; (402a78 <sysclk_init+0x40>)
  402a70:	4798      	blx	r3
  402a72:	bd08      	pop	{r3, pc}
  402a74:	07270e00 	.word	0x07270e00
  402a78:	00402e01 	.word	0x00402e01
  402a7c:	00402b69 	.word	0x00402b69
  402a80:	00402bbd 	.word	0x00402bbd
  402a84:	00402bcd 	.word	0x00402bcd
  402a88:	200f3f01 	.word	0x200f3f01
  402a8c:	400e0400 	.word	0x400e0400
  402a90:	00402bdd 	.word	0x00402bdd
  402a94:	00402b15 	.word	0x00402b15
  402a98:	00402cf1 	.word	0x00402cf1
  402a9c:	05b8d800 	.word	0x05b8d800

00402aa0 <board_init>:
		ioport_set_pin_mode(pin, mode);\
		ioport_set_pin_sense_mode(pin, sense);\
	} while (0)

void board_init(void)
{
  402aa0:	b510      	push	{r4, lr}
#ifndef CONF_BOARD_KEEP_WATCHDOG_AT_INIT
	/* Disable the watchdog */
	WDT->WDT_MR = WDT_MR_WDDIS;
  402aa2:	f44f 4200 	mov.w	r2, #32768	; 0x8000
  402aa6:	4b18      	ldr	r3, [pc, #96]	; (402b08 <board_init+0x68>)
  402aa8:	605a      	str	r2, [r3, #4]
  402aaa:	2009      	movs	r0, #9
  402aac:	4c17      	ldr	r4, [pc, #92]	; (402b0c <board_init+0x6c>)
  402aae:	47a0      	blx	r4
  402ab0:	200a      	movs	r0, #10
  402ab2:	47a0      	blx	r4
  402ab4:	200b      	movs	r0, #11
  402ab6:	47a0      	blx	r4
  402ab8:	200c      	movs	r0, #12
  402aba:	47a0      	blx	r4
  402abc:	200d      	movs	r0, #13
  402abe:	47a0      	blx	r4
		base->PIO_OER = arch_ioport_pin_to_mask(pin);
  402ac0:	4b13      	ldr	r3, [pc, #76]	; (402b10 <board_init+0x70>)
  402ac2:	f44f 0280 	mov.w	r2, #4194304	; 0x400000
  402ac6:	611a      	str	r2, [r3, #16]
	base->PIO_OWER = arch_ioport_pin_to_mask(pin);
  402ac8:	f8c3 20a0 	str.w	r2, [r3, #160]	; 0xa0
		base->PIO_SODR = arch_ioport_pin_to_mask(pin);
  402acc:	631a      	str	r2, [r3, #48]	; 0x30
		base->PIO_ODR = arch_ioport_pin_to_mask(pin);
  402ace:	f5a3 63c0 	sub.w	r3, r3, #1536	; 0x600
  402ad2:	2204      	movs	r2, #4
  402ad4:	615a      	str	r2, [r3, #20]
	base->PIO_OWER = arch_ioport_pin_to_mask(pin);
  402ad6:	f8c3 20a0 	str.w	r2, [r3, #160]	; 0xa0
		base->PIO_PUER = mask;
  402ada:	665a      	str	r2, [r3, #100]	; 0x64
		base->PIO_PPDDR = mask;
  402adc:	f8c3 2090 	str.w	r2, [r3, #144]	; 0x90
		base->PIO_MDDR = mask;
  402ae0:	655a      	str	r2, [r3, #84]	; 0x54
		base->PIO_IFER = mask;
  402ae2:	621a      	str	r2, [r3, #32]
		base->PIO_IFSCER = mask;
  402ae4:	f8c3 2084 	str.w	r2, [r3, #132]	; 0x84
		base->PIO_ABCDSR[0] &= ~mask;
  402ae8:	6f19      	ldr	r1, [r3, #112]	; 0x70
  402aea:	f021 0104 	bic.w	r1, r1, #4
  402aee:	6719      	str	r1, [r3, #112]	; 0x70
		base->PIO_ABCDSR[1] &= ~mask;
  402af0:	6f59      	ldr	r1, [r3, #116]	; 0x74
  402af2:	f021 0104 	bic.w	r1, r1, #4
  402af6:	6759      	str	r1, [r3, #116]	; 0x74
		base->PIO_ESR = mask;
  402af8:	f8c3 20c0 	str.w	r2, [r3, #192]	; 0xc0
		base->PIO_REHLSR = mask;
  402afc:	f8c3 20d4 	str.w	r2, [r3, #212]	; 0xd4
	base->PIO_AIMER = mask;
  402b00:	f8c3 20b0 	str.w	r2, [r3, #176]	; 0xb0
  402b04:	bd10      	pop	{r4, pc}
  402b06:	bf00      	nop
  402b08:	400e1850 	.word	0x400e1850
  402b0c:	00402bed 	.word	0x00402bed
  402b10:	400e1400 	.word	0x400e1400

00402b14 <pmc_switch_mck_to_pllack>:
 */
uint32_t pmc_switch_mck_to_pllack(uint32_t ul_pres)
{
	uint32_t ul_timeout;

	PMC->PMC_MCKR = (PMC->PMC_MCKR & (~PMC_MCKR_PRES_Msk)) | ul_pres;
  402b14:	4a13      	ldr	r2, [pc, #76]	; (402b64 <pmc_switch_mck_to_pllack+0x50>)
  402b16:	6b13      	ldr	r3, [r2, #48]	; 0x30
  402b18:	f023 0370 	bic.w	r3, r3, #112	; 0x70
  402b1c:	4318      	orrs	r0, r3
  402b1e:	6310      	str	r0, [r2, #48]	; 0x30
	for (ul_timeout = PMC_TIMEOUT; !(PMC->PMC_SR & PMC_SR_MCKRDY);
  402b20:	f44f 6300 	mov.w	r3, #2048	; 0x800
  402b24:	4a0f      	ldr	r2, [pc, #60]	; (402b64 <pmc_switch_mck_to_pllack+0x50>)
  402b26:	6e92      	ldr	r2, [r2, #104]	; 0x68
  402b28:	f012 0f08 	tst.w	r2, #8
  402b2c:	d102      	bne.n	402b34 <pmc_switch_mck_to_pllack+0x20>
			--ul_timeout) {
		if (ul_timeout == 0) {
  402b2e:	b1a3      	cbz	r3, 402b5a <pmc_switch_mck_to_pllack+0x46>
			--ul_timeout) {
  402b30:	3b01      	subs	r3, #1
  402b32:	e7f7      	b.n	402b24 <pmc_switch_mck_to_pllack+0x10>
			return 1;
		}
	}

	PMC->PMC_MCKR = (PMC->PMC_MCKR & (~PMC_MCKR_CSS_Msk)) |
  402b34:	4a0b      	ldr	r2, [pc, #44]	; (402b64 <pmc_switch_mck_to_pllack+0x50>)
  402b36:	6b13      	ldr	r3, [r2, #48]	; 0x30
  402b38:	f023 0303 	bic.w	r3, r3, #3
  402b3c:	f043 0302 	orr.w	r3, r3, #2
  402b40:	6313      	str	r3, [r2, #48]	; 0x30
			PMC_MCKR_CSS_PLLA_CLK;

	for (ul_timeout = PMC_TIMEOUT; !(PMC->PMC_SR & PMC_SR_MCKRDY);
  402b42:	f44f 6300 	mov.w	r3, #2048	; 0x800
  402b46:	4a07      	ldr	r2, [pc, #28]	; (402b64 <pmc_switch_mck_to_pllack+0x50>)
  402b48:	6e92      	ldr	r2, [r2, #104]	; 0x68
  402b4a:	f012 0f08 	tst.w	r2, #8
  402b4e:	d102      	bne.n	402b56 <pmc_switch_mck_to_pllack+0x42>
			--ul_timeout) {
		if (ul_timeout == 0) {
  402b50:	b12b      	cbz	r3, 402b5e <pmc_switch_mck_to_pllack+0x4a>
			--ul_timeout) {
  402b52:	3b01      	subs	r3, #1
  402b54:	e7f7      	b.n	402b46 <pmc_switch_mck_to_pllack+0x32>
			return 1;
		}
	}

	return 0;
  402b56:	2000      	movs	r0, #0
  402b58:	4770      	bx	lr
			return 1;
  402b5a:	2001      	movs	r0, #1
  402b5c:	4770      	bx	lr
			return 1;
  402b5e:	2001      	movs	r0, #1
}
  402b60:	4770      	bx	lr
  402b62:	bf00      	nop
  402b64:	400e0400 	.word	0x400e0400

00402b68 <pmc_switch_mainck_to_xtal>:
 */
void pmc_switch_mainck_to_xtal(uint32_t ul_bypass,
		uint32_t ul_xtal_startup_time)
{
	/* Enable Main Xtal oscillator */
	if (ul_bypass) {
  402b68:	b9d0      	cbnz	r0, 402ba0 <pmc_switch_mainck_to_xtal+0x38>
		PMC->CKGR_MOR = (PMC->CKGR_MOR & ~CKGR_MOR_MOSCXTEN) |
				CKGR_MOR_KEY_PASSWD | CKGR_MOR_MOSCXTBY |
				CKGR_MOR_MOSCSEL;
	} else {
		PMC->CKGR_MOR = (PMC->CKGR_MOR & ~CKGR_MOR_MOSCXTBY) |
  402b6a:	4a11      	ldr	r2, [pc, #68]	; (402bb0 <pmc_switch_mainck_to_xtal+0x48>)
  402b6c:	6a13      	ldr	r3, [r2, #32]
				CKGR_MOR_KEY_PASSWD | CKGR_MOR_MOSCXTEN |
  402b6e:	f423 135c 	bic.w	r3, r3, #3604480	; 0x370000
  402b72:	f023 0303 	bic.w	r3, r3, #3
				CKGR_MOR_MOSCXTST(ul_xtal_startup_time);
  402b76:	0209      	lsls	r1, r1, #8
  402b78:	b289      	uxth	r1, r1
				CKGR_MOR_KEY_PASSWD | CKGR_MOR_MOSCXTEN |
  402b7a:	430b      	orrs	r3, r1
  402b7c:	f443 135c 	orr.w	r3, r3, #3604480	; 0x370000
  402b80:	f043 0301 	orr.w	r3, r3, #1
		PMC->CKGR_MOR = (PMC->CKGR_MOR & ~CKGR_MOR_MOSCXTBY) |
  402b84:	6213      	str	r3, [r2, #32]
		/* Wait the Xtal to stabilize */
		while (!(PMC->PMC_SR & PMC_SR_MOSCXTS));
  402b86:	4b0a      	ldr	r3, [pc, #40]	; (402bb0 <pmc_switch_mainck_to_xtal+0x48>)
  402b88:	6e9b      	ldr	r3, [r3, #104]	; 0x68
  402b8a:	f013 0f01 	tst.w	r3, #1
  402b8e:	d0fa      	beq.n	402b86 <pmc_switch_mainck_to_xtal+0x1e>

		PMC->CKGR_MOR |= CKGR_MOR_KEY_PASSWD | CKGR_MOR_MOSCSEL;
  402b90:	4a07      	ldr	r2, [pc, #28]	; (402bb0 <pmc_switch_mainck_to_xtal+0x48>)
  402b92:	6a13      	ldr	r3, [r2, #32]
  402b94:	f043 739b 	orr.w	r3, r3, #20316160	; 0x1360000
  402b98:	f443 3380 	orr.w	r3, r3, #65536	; 0x10000
  402b9c:	6213      	str	r3, [r2, #32]
  402b9e:	4770      	bx	lr
		PMC->CKGR_MOR = (PMC->CKGR_MOR & ~CKGR_MOR_MOSCXTEN) |
  402ba0:	4903      	ldr	r1, [pc, #12]	; (402bb0 <pmc_switch_mainck_to_xtal+0x48>)
  402ba2:	6a0b      	ldr	r3, [r1, #32]
				CKGR_MOR_KEY_PASSWD | CKGR_MOR_MOSCXTBY |
  402ba4:	4a03      	ldr	r2, [pc, #12]	; (402bb4 <pmc_switch_mainck_to_xtal+0x4c>)
  402ba6:	401a      	ands	r2, r3
  402ba8:	4b03      	ldr	r3, [pc, #12]	; (402bb8 <pmc_switch_mainck_to_xtal+0x50>)
  402baa:	4313      	orrs	r3, r2
		PMC->CKGR_MOR = (PMC->CKGR_MOR & ~CKGR_MOR_MOSCXTEN) |
  402bac:	620b      	str	r3, [r1, #32]
  402bae:	4770      	bx	lr
  402bb0:	400e0400 	.word	0x400e0400
  402bb4:	fec8fffc 	.word	0xfec8fffc
  402bb8:	01370002 	.word	0x01370002

00402bbc <pmc_osc_is_ready_mainck>:
 * \retval 1 Xtal is ready.
 * \retval 0 Xtal is not ready.
 */
uint32_t pmc_osc_is_ready_mainck(void)
{
	return PMC->PMC_SR & PMC_SR_MOSCSELS;
  402bbc:	4b02      	ldr	r3, [pc, #8]	; (402bc8 <pmc_osc_is_ready_mainck+0xc>)
  402bbe:	6e98      	ldr	r0, [r3, #104]	; 0x68
}
  402bc0:	f400 3080 	and.w	r0, r0, #65536	; 0x10000
  402bc4:	4770      	bx	lr
  402bc6:	bf00      	nop
  402bc8:	400e0400 	.word	0x400e0400

00402bcc <pmc_disable_pllack>:
void pmc_disable_pllack(void)
{
#if (SAM4C || SAM4CM || SAM4CP || SAMG)
	PMC->CKGR_PLLAR = CKGR_PLLAR_MULA(0);
#else
	PMC->CKGR_PLLAR = CKGR_PLLAR_ONE | CKGR_PLLAR_MULA(0);
  402bcc:	f04f 5200 	mov.w	r2, #536870912	; 0x20000000
  402bd0:	4b01      	ldr	r3, [pc, #4]	; (402bd8 <pmc_disable_pllack+0xc>)
  402bd2:	629a      	str	r2, [r3, #40]	; 0x28
  402bd4:	4770      	bx	lr
  402bd6:	bf00      	nop
  402bd8:	400e0400 	.word	0x400e0400

00402bdc <pmc_is_locked_pllack>:
 * \retval 0 Not locked.
 * \retval 1 Locked.
 */
uint32_t pmc_is_locked_pllack(void)
{
	return (PMC->PMC_SR & PMC_SR_LOCKA);
  402bdc:	4b02      	ldr	r3, [pc, #8]	; (402be8 <pmc_is_locked_pllack+0xc>)
  402bde:	6e98      	ldr	r0, [r3, #104]	; 0x68
}
  402be0:	f000 0002 	and.w	r0, r0, #2
  402be4:	4770      	bx	lr
  402be6:	bf00      	nop
  402be8:	400e0400 	.word	0x400e0400

00402bec <pmc_enable_periph_clk>:
	PMC->PMC_PCR = ul_id & 0x7F;
	pcr = PMC->PMC_PCR | PMC_PCR_EN | PMC_PCR_CMD;
	PMC->PMC_PCR = pcr;
	return 0;
#else
	if (ul_id > MAX_PERIPH_ID) {
  402bec:	282f      	cmp	r0, #47	; 0x2f
  402bee:	d81e      	bhi.n	402c2e <pmc_enable_periph_clk+0x42>
		return 1;
	}

	if (ul_id < 32) {
  402bf0:	281f      	cmp	r0, #31
  402bf2:	d80c      	bhi.n	402c0e <pmc_enable_periph_clk+0x22>
		if ((PMC->PMC_PCSR0 & (1u << ul_id)) != (1u << ul_id)) {
  402bf4:	4b11      	ldr	r3, [pc, #68]	; (402c3c <pmc_enable_periph_clk+0x50>)
  402bf6:	699a      	ldr	r2, [r3, #24]
  402bf8:	2301      	movs	r3, #1
  402bfa:	4083      	lsls	r3, r0
  402bfc:	4393      	bics	r3, r2
  402bfe:	d018      	beq.n	402c32 <pmc_enable_periph_clk+0x46>
			PMC->PMC_PCER0 = 1 << ul_id;
  402c00:	2301      	movs	r3, #1
  402c02:	fa03 f000 	lsl.w	r0, r3, r0
  402c06:	4b0d      	ldr	r3, [pc, #52]	; (402c3c <pmc_enable_periph_clk+0x50>)
  402c08:	6118      	str	r0, [r3, #16]
			PMC->PMC_PCER1 = 1 << ul_id;
		}
#endif
	}

	return 0;
  402c0a:	2000      	movs	r0, #0
  402c0c:	4770      	bx	lr
		ul_id -= 32;
  402c0e:	3820      	subs	r0, #32
		if ((PMC->PMC_PCSR1 & (1u << ul_id)) != (1u << ul_id)) {
  402c10:	4b0a      	ldr	r3, [pc, #40]	; (402c3c <pmc_enable_periph_clk+0x50>)
  402c12:	f8d3 2108 	ldr.w	r2, [r3, #264]	; 0x108
  402c16:	2301      	movs	r3, #1
  402c18:	4083      	lsls	r3, r0
  402c1a:	4393      	bics	r3, r2
  402c1c:	d00b      	beq.n	402c36 <pmc_enable_periph_clk+0x4a>
			PMC->PMC_PCER1 = 1 << ul_id;
  402c1e:	2301      	movs	r3, #1
  402c20:	fa03 f000 	lsl.w	r0, r3, r0
  402c24:	4b05      	ldr	r3, [pc, #20]	; (402c3c <pmc_enable_periph_clk+0x50>)
  402c26:	f8c3 0100 	str.w	r0, [r3, #256]	; 0x100
	return 0;
  402c2a:	2000      	movs	r0, #0
  402c2c:	4770      	bx	lr
		return 1;
  402c2e:	2001      	movs	r0, #1
  402c30:	4770      	bx	lr
	return 0;
  402c32:	2000      	movs	r0, #0
  402c34:	4770      	bx	lr
  402c36:	2000      	movs	r0, #0
#endif /* defined(REG_PMC_PCR) && !SAMG55 */
}
  402c38:	4770      	bx	lr
  402c3a:	bf00      	nop
  402c3c:	400e0400 	.word	0x400e0400

00402c40 <Dummy_Handler>:

/**
 * \brief Default interrupt handler for unused IRQs.
 */
void Dummy_Handler(void)
{
  402c40:	e7fe      	b.n	402c40 <Dummy_Handler>
	...

00402c44 <Reset_Handler>:
/**
 * \brief This is the code that gets called on processor reset.
 * To initialize the device, and call the main() routine.
 */
void Reset_Handler(void)
{
  402c44:	b500      	push	{lr}
  402c46:	b083      	sub	sp, #12

	/* Initialize the relocate segment */
	pSrc = &_etext;
	pDest = &_srelocate;

	if (pSrc != pDest) {
  402c48:	4b1e      	ldr	r3, [pc, #120]	; (402cc4 <Reset_Handler+0x80>)
  402c4a:	4a1f      	ldr	r2, [pc, #124]	; (402cc8 <Reset_Handler+0x84>)
  402c4c:	429a      	cmp	r2, r3
  402c4e:	d009      	beq.n	402c64 <Reset_Handler+0x20>
  402c50:	4b1c      	ldr	r3, [pc, #112]	; (402cc4 <Reset_Handler+0x80>)
  402c52:	4a1d      	ldr	r2, [pc, #116]	; (402cc8 <Reset_Handler+0x84>)
  402c54:	e003      	b.n	402c5e <Reset_Handler+0x1a>
		for (; pDest < &_erelocate;) {
			*pDest++ = *pSrc++;
  402c56:	6811      	ldr	r1, [r2, #0]
  402c58:	6019      	str	r1, [r3, #0]
  402c5a:	3304      	adds	r3, #4
  402c5c:	3204      	adds	r2, #4
		for (; pDest < &_erelocate;) {
  402c5e:	491b      	ldr	r1, [pc, #108]	; (402ccc <Reset_Handler+0x88>)
  402c60:	428b      	cmp	r3, r1
  402c62:	d3f8      	bcc.n	402c56 <Reset_Handler+0x12>
			*pDest++ = *pSrc++;
  402c64:	4b1a      	ldr	r3, [pc, #104]	; (402cd0 <Reset_Handler+0x8c>)
  402c66:	e002      	b.n	402c6e <Reset_Handler+0x2a>
		}
	}

	/* Clear the zero segment */
	for (pDest = &_szero; pDest < &_ezero;) {
		*pDest++ = 0;
  402c68:	2200      	movs	r2, #0
  402c6a:	601a      	str	r2, [r3, #0]
  402c6c:	3304      	adds	r3, #4
	for (pDest = &_szero; pDest < &_ezero;) {
  402c6e:	4a19      	ldr	r2, [pc, #100]	; (402cd4 <Reset_Handler+0x90>)
  402c70:	4293      	cmp	r3, r2
  402c72:	d3f9      	bcc.n	402c68 <Reset_Handler+0x24>
	}

	/* Set the vector table base address */
	pSrc = (uint32_t *) & _sfixed;
	SCB->VTOR = ((uint32_t) pSrc & SCB_VTOR_TBLOFF_Msk);
  402c74:	4a18      	ldr	r2, [pc, #96]	; (402cd8 <Reset_Handler+0x94>)
  402c76:	4b19      	ldr	r3, [pc, #100]	; (402cdc <Reset_Handler+0x98>)
  402c78:	f023 037f 	bic.w	r3, r3, #127	; 0x7f
  402c7c:	6093      	str	r3, [r2, #8]
  __ASM volatile ("MRS %0, primask" : "=r" (result) :: "memory");
  402c7e:	f3ef 8310 	mrs	r3, PRIMASK
static volatile uint32_t cpu_irq_critical_section_counter;
static volatile bool     cpu_irq_prev_interrupt_state;

static inline irqflags_t cpu_irq_save(void)
{
	volatile irqflags_t flags = cpu_irq_is_enabled();
  402c82:	fab3 f383 	clz	r3, r3
  402c86:	095b      	lsrs	r3, r3, #5
  402c88:	9301      	str	r3, [sp, #4]
  __ASM volatile ("cpsid i" : : : "memory");
  402c8a:	b672      	cpsid	i
  \details Ensures the apparent order of the explicit memory operations before
           and after the instruction, without ensuring their completion.
 */
__STATIC_FORCEINLINE void __DMB(void)
{
  __ASM volatile ("dmb 0xF":::"memory");
  402c8c:	f3bf 8f5f 	dmb	sy
	cpu_irq_disable();
  402c90:	2200      	movs	r2, #0
  402c92:	4b13      	ldr	r3, [pc, #76]	; (402ce0 <Reset_Handler+0x9c>)
  402c94:	701a      	strb	r2, [r3, #0]
	return flags;
  402c96:	9901      	ldr	r1, [sp, #4]
 */
__always_inline static void fpu_enable(void)
{
	irqflags_t flags;
	flags = cpu_irq_save();
	REG_CPACR |=  (0xFu << 20);
  402c98:	4a12      	ldr	r2, [pc, #72]	; (402ce4 <Reset_Handler+0xa0>)
  402c9a:	6813      	ldr	r3, [r2, #0]
  402c9c:	f443 0370 	orr.w	r3, r3, #15728640	; 0xf00000
  402ca0:	6013      	str	r3, [r2, #0]
  __ASM volatile ("dsb 0xF":::"memory");
  402ca2:	f3bf 8f4f 	dsb	sy
  __ASM volatile ("isb 0xF":::"memory");
  402ca6:	f3bf 8f6f 	isb	sy
	return (flags);
}

static inline void cpu_irq_restore(irqflags_t flags)
{
	if (cpu_irq_is_enabled_flags(flags))
  402caa:	b129      	cbz	r1, 402cb8 <Reset_Handler+0x74>
		cpu_irq_enable();
  402cac:	2201      	movs	r2, #1
  402cae:	4b0c      	ldr	r3, [pc, #48]	; (402ce0 <Reset_Handler+0x9c>)
  402cb0:	701a      	strb	r2, [r3, #0]
  __ASM volatile ("dmb 0xF":::"memory");
  402cb2:	f3bf 8f5f 	dmb	sy
  __ASM volatile ("cpsie i" : : : "memory");
  402cb6:	b662      	cpsie	i
#if __FPU_USED
	fpu_enable();
#endif

	/* Initialize the C library */
	__libc_init_array();
  402cb8:	4b0b      	ldr	r3, [pc, #44]	; (402ce8 <Reset_Handler+0xa4>)
  402cba:	4798      	blx	r3

	/* Branch to main function */
	main();
  402cbc:	4b0b      	ldr	r3, [pc, #44]	; (402cec <Reset_Handler+0xa8>)
  402cbe:	4798      	blx	r3
  402cc0:	e7fe      	b.n	402cc0 <Reset_Handler+0x7c>
  402cc2:	bf00      	nop
  402cc4:	20000000 	.word	0x20000000
  402cc8:	00403560 	.word	0x00403560
  402ccc:	2000044c 	.word	0x2000044c
  402cd0:	2000044c 	.word	0x2000044c
  402cd4:	2000071c 	.word	0x2000071c
  402cd8:	e000ed00 	.word	0xe000ed00
  402cdc:	00400000 	.word	0x00400000
  402ce0:	20000004 	.word	0x20000004
  402ce4:	e000ed88 	.word	0xe000ed88
  402ce8:	00403075 	.word	0x00403075
  402cec:	00402ef9 	.word	0x00402ef9

00402cf0 <SystemCoreClockUpdate>:
}

void SystemCoreClockUpdate( void )
{
	/* Determine clock frequency according to clock register values */
	switch (PMC->PMC_MCKR & (uint32_t) PMC_MCKR_CSS_Msk) {
  402cf0:	4b3c      	ldr	r3, [pc, #240]	; (402de4 <SystemCoreClockUpdate+0xf4>)
  402cf2:	6b1b      	ldr	r3, [r3, #48]	; 0x30
  402cf4:	f003 0303 	and.w	r3, r3, #3
  402cf8:	2b01      	cmp	r3, #1
  402cfa:	d020      	beq.n	402d3e <SystemCoreClockUpdate+0x4e>
  402cfc:	b183      	cbz	r3, 402d20 <SystemCoreClockUpdate+0x30>
  402cfe:	2b02      	cmp	r3, #2
  402d00:	d039      	beq.n	402d76 <SystemCoreClockUpdate+0x86>

	default:
		break;
	}

	if ((PMC->PMC_MCKR & PMC_MCKR_PRES_Msk) == PMC_MCKR_PRES_CLK_3) {
  402d02:	4b38      	ldr	r3, [pc, #224]	; (402de4 <SystemCoreClockUpdate+0xf4>)
  402d04:	6b1b      	ldr	r3, [r3, #48]	; 0x30
  402d06:	f003 0370 	and.w	r3, r3, #112	; 0x70
  402d0a:	2b70      	cmp	r3, #112	; 0x70
  402d0c:	d062      	beq.n	402dd4 <SystemCoreClockUpdate+0xe4>
		SystemCoreClock /= 3U;
	} else {
		SystemCoreClock >>= ((PMC->PMC_MCKR & PMC_MCKR_PRES_Msk) >>
  402d0e:	4b35      	ldr	r3, [pc, #212]	; (402de4 <SystemCoreClockUpdate+0xf4>)
  402d10:	6b1a      	ldr	r2, [r3, #48]	; 0x30
  402d12:	f3c2 1202 	ubfx	r2, r2, #4, #3
  402d16:	4934      	ldr	r1, [pc, #208]	; (402de8 <SystemCoreClockUpdate+0xf8>)
  402d18:	680b      	ldr	r3, [r1, #0]
  402d1a:	40d3      	lsrs	r3, r2
  402d1c:	600b      	str	r3, [r1, #0]
  402d1e:	4770      	bx	lr
		if ( SUPC->SUPC_SR & SUPC_SR_OSCSEL ) {
  402d20:	4b32      	ldr	r3, [pc, #200]	; (402dec <SystemCoreClockUpdate+0xfc>)
  402d22:	695b      	ldr	r3, [r3, #20]
  402d24:	f013 0f80 	tst.w	r3, #128	; 0x80
  402d28:	d004      	beq.n	402d34 <SystemCoreClockUpdate+0x44>
			SystemCoreClock = CHIP_FREQ_XTAL_32K;
  402d2a:	f44f 4200 	mov.w	r2, #32768	; 0x8000
  402d2e:	4b2e      	ldr	r3, [pc, #184]	; (402de8 <SystemCoreClockUpdate+0xf8>)
  402d30:	601a      	str	r2, [r3, #0]
  402d32:	e7e6      	b.n	402d02 <SystemCoreClockUpdate+0x12>
			SystemCoreClock = CHIP_FREQ_SLCK_RC;
  402d34:	f44f 42fa 	mov.w	r2, #32000	; 0x7d00
  402d38:	4b2b      	ldr	r3, [pc, #172]	; (402de8 <SystemCoreClockUpdate+0xf8>)
  402d3a:	601a      	str	r2, [r3, #0]
  402d3c:	e7e1      	b.n	402d02 <SystemCoreClockUpdate+0x12>
		if ( PMC->CKGR_MOR & CKGR_MOR_MOSCSEL ) {
  402d3e:	4b29      	ldr	r3, [pc, #164]	; (402de4 <SystemCoreClockUpdate+0xf4>)
  402d40:	6a1b      	ldr	r3, [r3, #32]
  402d42:	f013 7f80 	tst.w	r3, #16777216	; 0x1000000
  402d46:	d003      	beq.n	402d50 <SystemCoreClockUpdate+0x60>
			SystemCoreClock = CHIP_FREQ_XTAL_12M;
  402d48:	4a29      	ldr	r2, [pc, #164]	; (402df0 <SystemCoreClockUpdate+0x100>)
  402d4a:	4b27      	ldr	r3, [pc, #156]	; (402de8 <SystemCoreClockUpdate+0xf8>)
  402d4c:	601a      	str	r2, [r3, #0]
  402d4e:	e7d8      	b.n	402d02 <SystemCoreClockUpdate+0x12>
			SystemCoreClock = CHIP_FREQ_MAINCK_RC_4MHZ;
  402d50:	4a28      	ldr	r2, [pc, #160]	; (402df4 <SystemCoreClockUpdate+0x104>)
  402d52:	4b25      	ldr	r3, [pc, #148]	; (402de8 <SystemCoreClockUpdate+0xf8>)
  402d54:	601a      	str	r2, [r3, #0]
			switch ( PMC->CKGR_MOR & CKGR_MOR_MOSCRCF_Msk ) {
  402d56:	4b23      	ldr	r3, [pc, #140]	; (402de4 <SystemCoreClockUpdate+0xf4>)
  402d58:	6a1b      	ldr	r3, [r3, #32]
  402d5a:	f003 0370 	and.w	r3, r3, #112	; 0x70
  402d5e:	2b10      	cmp	r3, #16
  402d60:	d005      	beq.n	402d6e <SystemCoreClockUpdate+0x7e>
  402d62:	2b20      	cmp	r3, #32
  402d64:	d1cd      	bne.n	402d02 <SystemCoreClockUpdate+0x12>
				SystemCoreClock *= 3U;
  402d66:	4a22      	ldr	r2, [pc, #136]	; (402df0 <SystemCoreClockUpdate+0x100>)
  402d68:	4b1f      	ldr	r3, [pc, #124]	; (402de8 <SystemCoreClockUpdate+0xf8>)
  402d6a:	601a      	str	r2, [r3, #0]
				break;
  402d6c:	e7c9      	b.n	402d02 <SystemCoreClockUpdate+0x12>
				SystemCoreClock *= 2U;
  402d6e:	4a22      	ldr	r2, [pc, #136]	; (402df8 <SystemCoreClockUpdate+0x108>)
  402d70:	4b1d      	ldr	r3, [pc, #116]	; (402de8 <SystemCoreClockUpdate+0xf8>)
  402d72:	601a      	str	r2, [r3, #0]
				break;
  402d74:	e7c5      	b.n	402d02 <SystemCoreClockUpdate+0x12>
		if ( PMC->CKGR_MOR & CKGR_MOR_MOSCSEL ) {
  402d76:	4b1b      	ldr	r3, [pc, #108]	; (402de4 <SystemCoreClockUpdate+0xf4>)
  402d78:	6a1b      	ldr	r3, [r3, #32]
  402d7a:	f013 7f80 	tst.w	r3, #16777216	; 0x1000000
  402d7e:	d016      	beq.n	402dae <SystemCoreClockUpdate+0xbe>
			SystemCoreClock = CHIP_FREQ_XTAL_12M ;
  402d80:	4a1b      	ldr	r2, [pc, #108]	; (402df0 <SystemCoreClockUpdate+0x100>)
  402d82:	4b19      	ldr	r3, [pc, #100]	; (402de8 <SystemCoreClockUpdate+0xf8>)
  402d84:	601a      	str	r2, [r3, #0]
		if ((uint32_t) (PMC->PMC_MCKR & (uint32_t) PMC_MCKR_CSS_Msk) == PMC_MCKR_CSS_PLLA_CLK)
  402d86:	4b17      	ldr	r3, [pc, #92]	; (402de4 <SystemCoreClockUpdate+0xf4>)
  402d88:	6b1b      	ldr	r3, [r3, #48]	; 0x30
  402d8a:	f003 0303 	and.w	r3, r3, #3
  402d8e:	2b02      	cmp	r3, #2
  402d90:	d1b7      	bne.n	402d02 <SystemCoreClockUpdate+0x12>
			SystemCoreClock *= ((((PMC->CKGR_PLLAR) & CKGR_PLLAR_MULA_Msk) >> CKGR_PLLAR_MULA_Pos) + 1U);
  402d92:	4814      	ldr	r0, [pc, #80]	; (402de4 <SystemCoreClockUpdate+0xf4>)
  402d94:	6a82      	ldr	r2, [r0, #40]	; 0x28
  402d96:	f3c2 420a 	ubfx	r2, r2, #16, #11
  402d9a:	4913      	ldr	r1, [pc, #76]	; (402de8 <SystemCoreClockUpdate+0xf8>)
  402d9c:	680b      	ldr	r3, [r1, #0]
  402d9e:	fb02 3303 	mla	r3, r2, r3, r3
			SystemCoreClock /= ((((PMC->CKGR_PLLAR) & CKGR_PLLAR_DIVA_Msk) >> CKGR_PLLAR_DIVA_Pos));
  402da2:	6a82      	ldr	r2, [r0, #40]	; 0x28
  402da4:	b2d2      	uxtb	r2, r2
  402da6:	fbb3 f3f2 	udiv	r3, r3, r2
  402daa:	600b      	str	r3, [r1, #0]
  402dac:	e7a9      	b.n	402d02 <SystemCoreClockUpdate+0x12>
			SystemCoreClock = CHIP_FREQ_MAINCK_RC_4MHZ;
  402dae:	4a11      	ldr	r2, [pc, #68]	; (402df4 <SystemCoreClockUpdate+0x104>)
  402db0:	4b0d      	ldr	r3, [pc, #52]	; (402de8 <SystemCoreClockUpdate+0xf8>)
  402db2:	601a      	str	r2, [r3, #0]
			switch ( PMC->CKGR_MOR & CKGR_MOR_MOSCRCF_Msk ) {
  402db4:	4b0b      	ldr	r3, [pc, #44]	; (402de4 <SystemCoreClockUpdate+0xf4>)
  402db6:	6a1b      	ldr	r3, [r3, #32]
  402db8:	f003 0370 	and.w	r3, r3, #112	; 0x70
  402dbc:	2b10      	cmp	r3, #16
  402dbe:	d005      	beq.n	402dcc <SystemCoreClockUpdate+0xdc>
  402dc0:	2b20      	cmp	r3, #32
  402dc2:	d1e0      	bne.n	402d86 <SystemCoreClockUpdate+0x96>
				SystemCoreClock *= 3U;
  402dc4:	4a0a      	ldr	r2, [pc, #40]	; (402df0 <SystemCoreClockUpdate+0x100>)
  402dc6:	4b08      	ldr	r3, [pc, #32]	; (402de8 <SystemCoreClockUpdate+0xf8>)
  402dc8:	601a      	str	r2, [r3, #0]
				break;
  402dca:	e7dc      	b.n	402d86 <SystemCoreClockUpdate+0x96>
				SystemCoreClock *= 2U;
  402dcc:	4a0a      	ldr	r2, [pc, #40]	; (402df8 <SystemCoreClockUpdate+0x108>)
  402dce:	4b06      	ldr	r3, [pc, #24]	; (402de8 <SystemCoreClockUpdate+0xf8>)
  402dd0:	601a      	str	r2, [r3, #0]
				break;
  402dd2:	e7d8      	b.n	402d86 <SystemCoreClockUpdate+0x96>
		SystemCoreClock /= 3U;
  402dd4:	4a04      	ldr	r2, [pc, #16]	; (402de8 <SystemCoreClockUpdate+0xf8>)
  402dd6:	6813      	ldr	r3, [r2, #0]
  402dd8:	4908      	ldr	r1, [pc, #32]	; (402dfc <SystemCoreClockUpdate+0x10c>)
  402dda:	fba1 1303 	umull	r1, r3, r1, r3
  402dde:	085b      	lsrs	r3, r3, #1
  402de0:	6013      	str	r3, [r2, #0]
  402de2:	4770      	bx	lr
  402de4:	400e0400 	.word	0x400e0400
  402de8:	20000008 	.word	0x20000008
  402dec:	400e1810 	.word	0x400e1810
  402df0:	00b71b00 	.word	0x00b71b00
  402df4:	003d0900 	.word	0x003d0900
  402df8:	007a1200 	.word	0x007a1200
  402dfc:	aaaaaaab 	.word	0xaaaaaaab

00402e00 <system_init_flash>:
 * Initialize flash.
 */
void system_init_flash( uint32_t ul_clk )
{
	/* Set FWS for embedded Flash access according to operating frequency */
	if ( ul_clk < CHIP_FREQ_FWS_0 ) {
  402e00:	4b14      	ldr	r3, [pc, #80]	; (402e54 <system_init_flash+0x54>)
  402e02:	4298      	cmp	r0, r3
  402e04:	d90f      	bls.n	402e26 <system_init_flash+0x26>
		EFC->EEFC_FMR = EEFC_FMR_FWS(0)|EEFC_FMR_CLOE;
	} else {
		if (ul_clk < CHIP_FREQ_FWS_1) {
  402e06:	4b14      	ldr	r3, [pc, #80]	; (402e58 <system_init_flash+0x58>)
  402e08:	4298      	cmp	r0, r3
  402e0a:	d911      	bls.n	402e30 <system_init_flash+0x30>
			EFC->EEFC_FMR = EEFC_FMR_FWS(1)|EEFC_FMR_CLOE;
		} else {
			if (ul_clk < CHIP_FREQ_FWS_2) {
  402e0c:	4b13      	ldr	r3, [pc, #76]	; (402e5c <system_init_flash+0x5c>)
  402e0e:	4298      	cmp	r0, r3
  402e10:	d912      	bls.n	402e38 <system_init_flash+0x38>
				EFC->EEFC_FMR = EEFC_FMR_FWS(2)|EEFC_FMR_CLOE;
			} else {
				if ( ul_clk < CHIP_FREQ_FWS_3 ) {
  402e12:	4b13      	ldr	r3, [pc, #76]	; (402e60 <system_init_flash+0x60>)
  402e14:	4298      	cmp	r0, r3
  402e16:	d913      	bls.n	402e40 <system_init_flash+0x40>
					EFC->EEFC_FMR = EEFC_FMR_FWS(3)|EEFC_FMR_CLOE;
				} else {
					if ( ul_clk < CHIP_FREQ_FWS_4 ) {
  402e18:	4b12      	ldr	r3, [pc, #72]	; (402e64 <system_init_flash+0x64>)
  402e1a:	4298      	cmp	r0, r3
  402e1c:	d914      	bls.n	402e48 <system_init_flash+0x48>
						EFC->EEFC_FMR = EEFC_FMR_FWS(4)|EEFC_FMR_CLOE;
					} else {
						EFC->EEFC_FMR = EEFC_FMR_FWS(5)|EEFC_FMR_CLOE;
  402e1e:	4a12      	ldr	r2, [pc, #72]	; (402e68 <system_init_flash+0x68>)
  402e20:	4b12      	ldr	r3, [pc, #72]	; (402e6c <system_init_flash+0x6c>)
  402e22:	601a      	str	r2, [r3, #0]
  402e24:	4770      	bx	lr
		EFC->EEFC_FMR = EEFC_FMR_FWS(0)|EEFC_FMR_CLOE;
  402e26:	f04f 6280 	mov.w	r2, #67108864	; 0x4000000
  402e2a:	4b10      	ldr	r3, [pc, #64]	; (402e6c <system_init_flash+0x6c>)
  402e2c:	601a      	str	r2, [r3, #0]
  402e2e:	4770      	bx	lr
			EFC->EEFC_FMR = EEFC_FMR_FWS(1)|EEFC_FMR_CLOE;
  402e30:	4a0f      	ldr	r2, [pc, #60]	; (402e70 <system_init_flash+0x70>)
  402e32:	4b0e      	ldr	r3, [pc, #56]	; (402e6c <system_init_flash+0x6c>)
  402e34:	601a      	str	r2, [r3, #0]
  402e36:	4770      	bx	lr
				EFC->EEFC_FMR = EEFC_FMR_FWS(2)|EEFC_FMR_CLOE;
  402e38:	4a0e      	ldr	r2, [pc, #56]	; (402e74 <system_init_flash+0x74>)
  402e3a:	4b0c      	ldr	r3, [pc, #48]	; (402e6c <system_init_flash+0x6c>)
  402e3c:	601a      	str	r2, [r3, #0]
  402e3e:	4770      	bx	lr
					EFC->EEFC_FMR = EEFC_FMR_FWS(3)|EEFC_FMR_CLOE;
  402e40:	4a0d      	ldr	r2, [pc, #52]	; (402e78 <system_init_flash+0x78>)
  402e42:	4b0a      	ldr	r3, [pc, #40]	; (402e6c <system_init_flash+0x6c>)
  402e44:	601a      	str	r2, [r3, #0]
  402e46:	4770      	bx	lr
						EFC->EEFC_FMR = EEFC_FMR_FWS(4)|EEFC_FMR_CLOE;
  402e48:	f04f 2204 	mov.w	r2, #67109888	; 0x4000400
  402e4c:	4b07      	ldr	r3, [pc, #28]	; (402e6c <system_init_flash+0x6c>)
  402e4e:	601a      	str	r2, [r3, #0]
  402e50:	4770      	bx	lr
  402e52:	bf00      	nop
  402e54:	01312cff 	.word	0x01312cff
  402e58:	026259ff 	.word	0x026259ff
  402e5c:	039386ff 	.word	0x039386ff
  402e60:	04c4b3ff 	.word	0x04c4b3ff
  402e64:	05f5e0ff 	.word	0x05f5e0ff
  402e68:	04000500 	.word	0x04000500
  402e6c:	400e0a00 	.word	0x400e0a00
  402e70:	04000100 	.word	0x04000100
  402e74:	04000200 	.word	0x04000200
  402e78:	04000300 	.word	0x04000300

00402e7c <prvInitialiseHeap>:
	while(true) {}
}


static void prvInitialiseHeap( )
{
  402e7c:	b500      	push	{lr}
  402e7e:	b089      	sub	sp, #36	; 0x24
       uint32_t ulHeapSize;
       uint8_t *pucHeapStart, *pucHeapEnd;

       pucHeapStart = ( uint8_t * ) ( ( ( ( uint32_t ) &mainHEAP_START ) + 7 ) & ~0x07ul );
  402e80:	4b10      	ldr	r3, [pc, #64]	; (402ec4 <prvInitialiseHeap+0x48>)
  402e82:	1dda      	adds	r2, r3, #7
  402e84:	f022 0207 	bic.w	r2, r2, #7
       pucHeapEnd = ( uint8_t * ) ( mainRAM_START + mainRAM_LENGTH );
       ulHeapSize = ( uint32_t ) ( ( uint32_t ) pucHeapEnd - ( uint32_t ) &mainHEAP_START );
  402e88:	f1c3 5300 	rsb	r3, r3, #536870912	; 0x20000000
  402e8c:	f503 3300 	add.w	r3, r3, #131072	; 0x20000
       ulHeapSize &= ~0x07ul;
  402e90:	f023 0307 	bic.w	r3, r3, #7
       ulHeapSize -= 1024;
  402e94:	f5a3 6380 	sub.w	r3, r3, #1024	; 0x400
       HeapRegion_t xHeapRegions[] = {
  402e98:	9200      	str	r2, [sp, #0]
  402e9a:	9301      	str	r3, [sp, #4]
  402e9c:	f04f 43c2 	mov.w	r3, #1627389952	; 0x61000000
  402ea0:	9302      	str	r3, [sp, #8]
  402ea2:	f44f 2300 	mov.w	r3, #524288	; 0x80000
  402ea6:	9303      	str	r3, [sp, #12]
  402ea8:	f04f 42c6 	mov.w	r2, #1660944384	; 0x63000000
  402eac:	9204      	str	r2, [sp, #16]
  402eae:	9305      	str	r3, [sp, #20]
  402eb0:	2300      	movs	r3, #0
  402eb2:	9306      	str	r3, [sp, #24]
  402eb4:	9307      	str	r3, [sp, #28]
              { ( unsigned char *) SRAM_BASE_ADDRESS, mainEXTERNAL_SRAM_SIZE },
              { ( unsigned char *) SRAM_BASE_ADDRESS_2ND, mainEXTERNAL_SRAM_SIZE },
              { NULL, 0 }
       };

       vPortDefineHeapRegions( xHeapRegions );
  402eb6:	4668      	mov	r0, sp
  402eb8:	4b03      	ldr	r3, [pc, #12]	; (402ec8 <prvInitialiseHeap+0x4c>)
  402eba:	4798      	blx	r3
}
  402ebc:	b009      	add	sp, #36	; 0x24
  402ebe:	f85d fb04 	ldr.w	pc, [sp], #4
  402ec2:	bf00      	nop
  402ec4:	20003720 	.word	0x20003720
  402ec8:	00400b49 	.word	0x00400b49

00402ecc <prvMiscInitialisation>:
static void prvMiscInitialisation( void )
{
  402ecc:	b510      	push	{r4, lr}
       /* Initialize the SAM system */
       sysclk_init();
  402ece:	4b06      	ldr	r3, [pc, #24]	; (402ee8 <prvMiscInitialisation+0x1c>)
  402ed0:	4798      	blx	r3
       board_init();
  402ed2:	4b06      	ldr	r3, [pc, #24]	; (402eec <prvMiscInitialisation+0x20>)
  402ed4:	4798      	blx	r3
       prvInitialiseHeap();
  402ed6:	4b06      	ldr	r3, [pc, #24]	; (402ef0 <prvMiscInitialisation+0x24>)
  402ed8:	4798      	blx	r3
       pmc_enable_periph_clk(ID_PIOA);
  402eda:	2009      	movs	r0, #9
  402edc:	4c05      	ldr	r4, [pc, #20]	; (402ef4 <prvMiscInitialisation+0x28>)
  402ede:	47a0      	blx	r4
       pmc_enable_periph_clk(ID_PIOB);
  402ee0:	200a      	movs	r0, #10
  402ee2:	47a0      	blx	r4
  402ee4:	bd10      	pop	{r4, pc}
  402ee6:	bf00      	nop
  402ee8:	00402a39 	.word	0x00402a39
  402eec:	00402aa1 	.word	0x00402aa1
  402ef0:	00402e7d 	.word	0x00402e7d
  402ef4:	00402bed 	.word	0x00402bed

00402ef8 <main>:
{
  402ef8:	e92d 41f0 	stmdb	sp!, {r4, r5, r6, r7, r8, lr}
  402efc:	b082      	sub	sp, #8
	prvMiscInitialisation();
  402efe:	4b2c      	ldr	r3, [pc, #176]	; (402fb0 <main+0xb8>)
  402f00:	4798      	blx	r3
	intitializeLEDDriver();
  402f02:	4b2c      	ldr	r3, [pc, #176]	; (402fb4 <main+0xbc>)
  402f04:	4798      	blx	r3
	initializeButtonDriver();
  402f06:	4b2c      	ldr	r3, [pc, #176]	; (402fb8 <main+0xc0>)
  402f08:	4798      	blx	r3
	initUART(EDBG_UART);
  402f0a:	4c2c      	ldr	r4, [pc, #176]	; (402fbc <main+0xc4>)
  402f0c:	4620      	mov	r0, r4
  402f0e:	4b2c      	ldr	r3, [pc, #176]	; (402fc0 <main+0xc8>)
  402f10:	4798      	blx	r3
	UARTPutStr(EDBG_UART, startText, 0);
  402f12:	2200      	movs	r2, #0
  402f14:	492b      	ldr	r1, [pc, #172]	; (402fc4 <main+0xcc>)
  402f16:	4620      	mov	r0, r4
  402f18:	4b2b      	ldr	r3, [pc, #172]	; (402fc8 <main+0xd0>)
  402f1a:	4798      	blx	r3
	theTXQ = xQueueCreate(20, sizeof(char[50]));
  402f1c:	2200      	movs	r2, #0
  402f1e:	2132      	movs	r1, #50	; 0x32
  402f20:	2014      	movs	r0, #20
  402f22:	4c2a      	ldr	r4, [pc, #168]	; (402fcc <main+0xd4>)
  402f24:	47a0      	blx	r4
  402f26:	4d2a      	ldr	r5, [pc, #168]	; (402fd0 <main+0xd8>)
  402f28:	6028      	str	r0, [r5, #0]
	theRXQ = xQueueCreate(20, sizeof(char));
  402f2a:	2200      	movs	r2, #0
  402f2c:	2101      	movs	r1, #1
  402f2e:	2014      	movs	r0, #20
  402f30:	47a0      	blx	r4
  402f32:	4f28      	ldr	r7, [pc, #160]	; (402fd4 <main+0xdc>)
  402f34:	6038      	str	r0, [r7, #0]
	theLEDQ = xQueueCreate(5, sizeof(int));
  402f36:	2200      	movs	r2, #0
  402f38:	2104      	movs	r1, #4
  402f3a:	2005      	movs	r0, #5
  402f3c:	47a0      	blx	r4
  402f3e:	f8df 80dc 	ldr.w	r8, [pc, #220]	; 40301c <main+0x124>
  402f42:	f8c8 0000 	str.w	r0, [r8]
	rxParams.theRXQ = theRXQ;
  402f46:	4e24      	ldr	r6, [pc, #144]	; (402fd8 <main+0xe0>)
  402f48:	683b      	ldr	r3, [r7, #0]
  402f4a:	6073      	str	r3, [r6, #4]
	rxParams.theTXQ = theTXQ;
  402f4c:	682b      	ldr	r3, [r5, #0]
  402f4e:	6033      	str	r3, [r6, #0]
	xTaskCreate(taskHeartBeat, "LED0 Heart Beat", configMINIMAL_STACK_SIZE, (void *) 0, heartbeatPriority, NULL);
  402f50:	2300      	movs	r3, #0
  402f52:	9301      	str	r3, [sp, #4]
  402f54:	2201      	movs	r2, #1
  402f56:	9200      	str	r2, [sp, #0]
  402f58:	2282      	movs	r2, #130	; 0x82
  402f5a:	4920      	ldr	r1, [pc, #128]	; (402fdc <main+0xe4>)
  402f5c:	4820      	ldr	r0, [pc, #128]	; (402fe0 <main+0xe8>)
  402f5e:	4c21      	ldr	r4, [pc, #132]	; (402fe4 <main+0xec>)
  402f60:	47a0      	blx	r4
	xTaskCreate(taskTX, "The TX Task", configMINIMAL_STACK_SIZE, (void *) theTXQ, txTaskPriority, &txHandle);
  402f62:	4b21      	ldr	r3, [pc, #132]	; (402fe8 <main+0xf0>)
  402f64:	9301      	str	r3, [sp, #4]
  402f66:	2703      	movs	r7, #3
  402f68:	9700      	str	r7, [sp, #0]
  402f6a:	682b      	ldr	r3, [r5, #0]
  402f6c:	2282      	movs	r2, #130	; 0x82
  402f6e:	491f      	ldr	r1, [pc, #124]	; (402fec <main+0xf4>)
  402f70:	481f      	ldr	r0, [pc, #124]	; (402ff0 <main+0xf8>)
  402f72:	47a0      	blx	r4
	xTaskCreate(taskRX, "The RX Task", configMINIMAL_STACK_SIZE, (void *) &rxParams, rxTaskPriority, &rxHandle);
  402f74:	4b1f      	ldr	r3, [pc, #124]	; (402ff4 <main+0xfc>)
  402f76:	9301      	str	r3, [sp, #4]
  402f78:	2304      	movs	r3, #4
  402f7a:	9300      	str	r3, [sp, #0]
  402f7c:	4633      	mov	r3, r6
  402f7e:	2282      	movs	r2, #130	; 0x82
  402f80:	491d      	ldr	r1, [pc, #116]	; (402ff8 <main+0x100>)
  402f82:	481e      	ldr	r0, [pc, #120]	; (402ffc <main+0x104>)
  402f84:	47a0      	blx	r4
	xTaskCreate(taskLED, "The LED Task", configMINIMAL_STACK_SIZE, (void *) theLEDQ, ledTaskPriority, &ledHandle);
  402f86:	f8d8 3000 	ldr.w	r3, [r8]
  402f8a:	4a1d      	ldr	r2, [pc, #116]	; (403000 <main+0x108>)
  402f8c:	9201      	str	r2, [sp, #4]
  402f8e:	2202      	movs	r2, #2
  402f90:	9200      	str	r2, [sp, #0]
  402f92:	2282      	movs	r2, #130	; 0x82
  402f94:	491b      	ldr	r1, [pc, #108]	; (403004 <main+0x10c>)
  402f96:	481c      	ldr	r0, [pc, #112]	; (403008 <main+0x110>)
  402f98:	47a0      	blx	r4
	xTaskCreate(buttonTask, "Button Task", configMINIMAL_STACK_SIZE, (void *) theTXQ, txTaskPriority, &buttonHandle);
  402f9a:	682b      	ldr	r3, [r5, #0]
  402f9c:	4a1b      	ldr	r2, [pc, #108]	; (40300c <main+0x114>)
  402f9e:	9201      	str	r2, [sp, #4]
  402fa0:	9700      	str	r7, [sp, #0]
  402fa2:	2282      	movs	r2, #130	; 0x82
  402fa4:	491a      	ldr	r1, [pc, #104]	; (403010 <main+0x118>)
  402fa6:	481b      	ldr	r0, [pc, #108]	; (403014 <main+0x11c>)
  402fa8:	47a0      	blx	r4
	vTaskStartScheduler();
  402faa:	4b1b      	ldr	r3, [pc, #108]	; (403018 <main+0x120>)
  402fac:	4798      	blx	r3
  402fae:	e7fe      	b.n	402fae <main+0xb6>
  402fb0:	00402ecd 	.word	0x00402ecd
  402fb4:	00402465 	.word	0x00402465
  402fb8:	00402605 	.word	0x00402605
  402fbc:	400e0600 	.word	0x400e0600
  402fc0:	00402951 	.word	0x00402951
  402fc4:	00403474 	.word	0x00403474
  402fc8:	004029c5 	.word	0x004029c5
  402fcc:	00400eed 	.word	0x00400eed
  402fd0:	200006ec 	.word	0x200006ec
  402fd4:	200006e4 	.word	0x200006e4
  402fd8:	200006dc 	.word	0x200006dc
  402fdc:	00403484 	.word	0x00403484
  402fe0:	00402825 	.word	0x00402825
  402fe4:	004017a1 	.word	0x004017a1
  402fe8:	20000694 	.word	0x20000694
  402fec:	00403494 	.word	0x00403494
  402ff0:	00402869 	.word	0x00402869
  402ff4:	20000690 	.word	0x20000690
  402ff8:	004034a0 	.word	0x004034a0
  402ffc:	00402895 	.word	0x00402895
  403000:	2000068c 	.word	0x2000068c
  403004:	004034ac 	.word	0x004034ac
  403008:	00402841 	.word	0x00402841
  40300c:	20000688 	.word	0x20000688
  403010:	004034bc 	.word	0x004034bc
  403014:	0040277d 	.word	0x0040277d
  403018:	00401815 	.word	0x00401815
  40301c:	200006e8 	.word	0x200006e8

00403020 <vAssertCalled>:
}

void vAssertCalled( const char *pcFile, uint32_t ulLine )
{
  403020:	b082      	sub	sp, #8
       volatile uint32_t ulBlockVariable = 0UL;
  403022:	2300      	movs	r3, #0
  403024:	9301      	str	r3, [sp, #4]
	__asm volatile
  403026:	f04f 0350 	mov.w	r3, #80	; 0x50
  40302a:	f383 8811 	msr	BASEPRI, r3
  40302e:	f3bf 8f6f 	isb	sy
  403032:	f3bf 8f4f 	dsb	sy
  403036:	e000      	b.n	40303a <vAssertCalled+0x1a>
       this function to be exited. */
       taskDISABLE_INTERRUPTS();
       {
              while( ulBlockVariable == 0UL )
              {
                     __asm volatile( "NOP" );
  403038:	bf00      	nop
              while( ulBlockVariable == 0UL )
  40303a:	9b01      	ldr	r3, [sp, #4]
  40303c:	2b00      	cmp	r3, #0
  40303e:	d0fb      	beq.n	403038 <vAssertCalled+0x18>
	__asm volatile
  403040:	2300      	movs	r3, #0
  403042:	f383 8811 	msr	BASEPRI, r3
              }
       }
       taskENABLE_INTERRUPTS();
}
  403046:	b002      	add	sp, #8
  403048:	4770      	bx	lr
	...

0040304c <vApplicationMallocFailedHook>:

void vApplicationMallocFailedHook( void )
{
  40304c:	b508      	push	{r3, lr}
       /* Called if a call to pvPortMalloc() fails because there is insufficient
       free memory available in the FreeRTOS heap.  pvPortMalloc() is called
       internally by FreeRTOS API functions that create tasks, queues, software
       timers, and semaphores.  The size of the FreeRTOS heap is set by the
       configTOTAL_HEAP_SIZE configuration constant in FreeRTOSConfig.h. */
       vAssertCalled( __FILE__, __LINE__ );
  40304e:	21a4      	movs	r1, #164	; 0xa4
  403050:	4801      	ldr	r0, [pc, #4]	; (403058 <vApplicationMallocFailedHook+0xc>)
  403052:	4b02      	ldr	r3, [pc, #8]	; (40305c <vApplicationMallocFailedHook+0x10>)
  403054:	4798      	blx	r3
  403056:	bd08      	pop	{r3, pc}
  403058:	00403528 	.word	0x00403528
  40305c:	00403021 	.word	0x00403021

00403060 <vApplicationStackOverflowHook>:
	__asm volatile
  403060:	f04f 0350 	mov.w	r3, #80	; 0x50
  403064:	f383 8811 	msr	BASEPRI, r3
  403068:	f3bf 8f6f 	isb	sy
  40306c:	f3bf 8f4f 	dsb	sy
  403070:	e7fe      	b.n	403070 <vApplicationStackOverflowHook+0x10>
	...

00403074 <__libc_init_array>:
  403074:	b570      	push	{r4, r5, r6, lr}
  403076:	4e0f      	ldr	r6, [pc, #60]	; (4030b4 <__libc_init_array+0x40>)
  403078:	4d0f      	ldr	r5, [pc, #60]	; (4030b8 <__libc_init_array+0x44>)
  40307a:	1b76      	subs	r6, r6, r5
  40307c:	10b6      	asrs	r6, r6, #2
  40307e:	bf18      	it	ne
  403080:	2400      	movne	r4, #0
  403082:	d005      	beq.n	403090 <__libc_init_array+0x1c>
  403084:	3401      	adds	r4, #1
  403086:	f855 3b04 	ldr.w	r3, [r5], #4
  40308a:	4798      	blx	r3
  40308c:	42a6      	cmp	r6, r4
  40308e:	d1f9      	bne.n	403084 <__libc_init_array+0x10>
  403090:	4e0a      	ldr	r6, [pc, #40]	; (4030bc <__libc_init_array+0x48>)
  403092:	4d0b      	ldr	r5, [pc, #44]	; (4030c0 <__libc_init_array+0x4c>)
  403094:	1b76      	subs	r6, r6, r5
  403096:	f000 fa51 	bl	40353c <_init>
  40309a:	10b6      	asrs	r6, r6, #2
  40309c:	bf18      	it	ne
  40309e:	2400      	movne	r4, #0
  4030a0:	d006      	beq.n	4030b0 <__libc_init_array+0x3c>
  4030a2:	3401      	adds	r4, #1
  4030a4:	f855 3b04 	ldr.w	r3, [r5], #4
  4030a8:	4798      	blx	r3
  4030aa:	42a6      	cmp	r6, r4
  4030ac:	d1f9      	bne.n	4030a2 <__libc_init_array+0x2e>
  4030ae:	bd70      	pop	{r4, r5, r6, pc}
  4030b0:	bd70      	pop	{r4, r5, r6, pc}
  4030b2:	bf00      	nop
  4030b4:	00403548 	.word	0x00403548
  4030b8:	00403548 	.word	0x00403548
  4030bc:	00403550 	.word	0x00403550
  4030c0:	00403548 	.word	0x00403548

004030c4 <memcpy>:
  4030c4:	4684      	mov	ip, r0
  4030c6:	ea41 0300 	orr.w	r3, r1, r0
  4030ca:	f013 0303 	ands.w	r3, r3, #3
  4030ce:	d16d      	bne.n	4031ac <memcpy+0xe8>
  4030d0:	3a40      	subs	r2, #64	; 0x40
  4030d2:	d341      	bcc.n	403158 <memcpy+0x94>
  4030d4:	f851 3b04 	ldr.w	r3, [r1], #4
  4030d8:	f840 3b04 	str.w	r3, [r0], #4
  4030dc:	f851 3b04 	ldr.w	r3, [r1], #4
  4030e0:	f840 3b04 	str.w	r3, [r0], #4
  4030e4:	f851 3b04 	ldr.w	r3, [r1], #4
  4030e8:	f840 3b04 	str.w	r3, [r0], #4
  4030ec:	f851 3b04 	ldr.w	r3, [r1], #4
  4030f0:	f840 3b04 	str.w	r3, [r0], #4
  4030f4:	f851 3b04 	ldr.w	r3, [r1], #4
  4030f8:	f840 3b04 	str.w	r3, [r0], #4
  4030fc:	f851 3b04 	ldr.w	r3, [r1], #4
  403100:	f840 3b04 	str.w	r3, [r0], #4
  403104:	f851 3b04 	ldr.w	r3, [r1], #4
  403108:	f840 3b04 	str.w	r3, [r0], #4
  40310c:	f851 3b04 	ldr.w	r3, [r1], #4
  403110:	f840 3b04 	str.w	r3, [r0], #4
  403114:	f851 3b04 	ldr.w	r3, [r1], #4
  403118:	f840 3b04 	str.w	r3, [r0], #4
  40311c:	f851 3b04 	ldr.w	r3, [r1], #4
  403120:	f840 3b04 	str.w	r3, [r0], #4
  403124:	f851 3b04 	ldr.w	r3, [r1], #4
  403128:	f840 3b04 	str.w	r3, [r0], #4
  40312c:	f851 3b04 	ldr.w	r3, [r1], #4
  403130:	f840 3b04 	str.w	r3, [r0], #4
  403134:	f851 3b04 	ldr.w	r3, [r1], #4
  403138:	f840 3b04 	str.w	r3, [r0], #4
  40313c:	f851 3b04 	ldr.w	r3, [r1], #4
  403140:	f840 3b04 	str.w	r3, [r0], #4
  403144:	f851 3b04 	ldr.w	r3, [r1], #4
  403148:	f840 3b04 	str.w	r3, [r0], #4
  40314c:	f851 3b04 	ldr.w	r3, [r1], #4
  403150:	f840 3b04 	str.w	r3, [r0], #4
  403154:	3a40      	subs	r2, #64	; 0x40
  403156:	d2bd      	bcs.n	4030d4 <memcpy+0x10>
  403158:	3230      	adds	r2, #48	; 0x30
  40315a:	d311      	bcc.n	403180 <memcpy+0xbc>
  40315c:	f851 3b04 	ldr.w	r3, [r1], #4
  403160:	f840 3b04 	str.w	r3, [r0], #4
  403164:	f851 3b04 	ldr.w	r3, [r1], #4
  403168:	f840 3b04 	str.w	r3, [r0], #4
  40316c:	f851 3b04 	ldr.w	r3, [r1], #4
  403170:	f840 3b04 	str.w	r3, [r0], #4
  403174:	f851 3b04 	ldr.w	r3, [r1], #4
  403178:	f840 3b04 	str.w	r3, [r0], #4
  40317c:	3a10      	subs	r2, #16
  40317e:	d2ed      	bcs.n	40315c <memcpy+0x98>
  403180:	320c      	adds	r2, #12
  403182:	d305      	bcc.n	403190 <memcpy+0xcc>
  403184:	f851 3b04 	ldr.w	r3, [r1], #4
  403188:	f840 3b04 	str.w	r3, [r0], #4
  40318c:	3a04      	subs	r2, #4
  40318e:	d2f9      	bcs.n	403184 <memcpy+0xc0>
  403190:	3204      	adds	r2, #4
  403192:	d008      	beq.n	4031a6 <memcpy+0xe2>
  403194:	07d2      	lsls	r2, r2, #31
  403196:	bf1c      	itt	ne
  403198:	f811 3b01 	ldrbne.w	r3, [r1], #1
  40319c:	f800 3b01 	strbne.w	r3, [r0], #1
  4031a0:	d301      	bcc.n	4031a6 <memcpy+0xe2>
  4031a2:	880b      	ldrh	r3, [r1, #0]
  4031a4:	8003      	strh	r3, [r0, #0]
  4031a6:	4660      	mov	r0, ip
  4031a8:	4770      	bx	lr
  4031aa:	bf00      	nop
  4031ac:	2a08      	cmp	r2, #8
  4031ae:	d313      	bcc.n	4031d8 <memcpy+0x114>
  4031b0:	078b      	lsls	r3, r1, #30
  4031b2:	d08d      	beq.n	4030d0 <memcpy+0xc>
  4031b4:	f010 0303 	ands.w	r3, r0, #3
  4031b8:	d08a      	beq.n	4030d0 <memcpy+0xc>
  4031ba:	f1c3 0304 	rsb	r3, r3, #4
  4031be:	1ad2      	subs	r2, r2, r3
  4031c0:	07db      	lsls	r3, r3, #31
  4031c2:	bf1c      	itt	ne
  4031c4:	f811 3b01 	ldrbne.w	r3, [r1], #1
  4031c8:	f800 3b01 	strbne.w	r3, [r0], #1
  4031cc:	d380      	bcc.n	4030d0 <memcpy+0xc>
  4031ce:	f831 3b02 	ldrh.w	r3, [r1], #2
  4031d2:	f820 3b02 	strh.w	r3, [r0], #2
  4031d6:	e77b      	b.n	4030d0 <memcpy+0xc>
  4031d8:	3a04      	subs	r2, #4
  4031da:	d3d9      	bcc.n	403190 <memcpy+0xcc>
  4031dc:	3a01      	subs	r2, #1
  4031de:	f811 3b01 	ldrb.w	r3, [r1], #1
  4031e2:	f800 3b01 	strb.w	r3, [r0], #1
  4031e6:	d2f9      	bcs.n	4031dc <memcpy+0x118>
  4031e8:	780b      	ldrb	r3, [r1, #0]
  4031ea:	7003      	strb	r3, [r0, #0]
  4031ec:	784b      	ldrb	r3, [r1, #1]
  4031ee:	7043      	strb	r3, [r0, #1]
  4031f0:	788b      	ldrb	r3, [r1, #2]
  4031f2:	7083      	strb	r3, [r0, #2]
  4031f4:	4660      	mov	r0, ip
  4031f6:	4770      	bx	lr

004031f8 <memset>:
  4031f8:	b470      	push	{r4, r5, r6}
  4031fa:	0786      	lsls	r6, r0, #30
  4031fc:	d046      	beq.n	40328c <memset+0x94>
  4031fe:	1e54      	subs	r4, r2, #1
  403200:	2a00      	cmp	r2, #0
  403202:	d041      	beq.n	403288 <memset+0x90>
  403204:	b2ca      	uxtb	r2, r1
  403206:	4603      	mov	r3, r0
  403208:	e002      	b.n	403210 <memset+0x18>
  40320a:	f114 34ff 	adds.w	r4, r4, #4294967295
  40320e:	d33b      	bcc.n	403288 <memset+0x90>
  403210:	f803 2b01 	strb.w	r2, [r3], #1
  403214:	079d      	lsls	r5, r3, #30
  403216:	d1f8      	bne.n	40320a <memset+0x12>
  403218:	2c03      	cmp	r4, #3
  40321a:	d92e      	bls.n	40327a <memset+0x82>
  40321c:	b2cd      	uxtb	r5, r1
  40321e:	ea45 2505 	orr.w	r5, r5, r5, lsl #8
  403222:	2c0f      	cmp	r4, #15
  403224:	ea45 4505 	orr.w	r5, r5, r5, lsl #16
  403228:	d919      	bls.n	40325e <memset+0x66>
  40322a:	f103 0210 	add.w	r2, r3, #16
  40322e:	4626      	mov	r6, r4
  403230:	3e10      	subs	r6, #16
  403232:	2e0f      	cmp	r6, #15
  403234:	f842 5c10 	str.w	r5, [r2, #-16]
  403238:	f842 5c0c 	str.w	r5, [r2, #-12]
  40323c:	f842 5c08 	str.w	r5, [r2, #-8]
  403240:	f842 5c04 	str.w	r5, [r2, #-4]
  403244:	f102 0210 	add.w	r2, r2, #16
  403248:	d8f2      	bhi.n	403230 <memset+0x38>
  40324a:	f1a4 0210 	sub.w	r2, r4, #16
  40324e:	f022 020f 	bic.w	r2, r2, #15
  403252:	f004 040f 	and.w	r4, r4, #15
  403256:	3210      	adds	r2, #16
  403258:	2c03      	cmp	r4, #3
  40325a:	4413      	add	r3, r2
  40325c:	d90d      	bls.n	40327a <memset+0x82>
  40325e:	461e      	mov	r6, r3
  403260:	4622      	mov	r2, r4
  403262:	3a04      	subs	r2, #4
  403264:	2a03      	cmp	r2, #3
  403266:	f846 5b04 	str.w	r5, [r6], #4
  40326a:	d8fa      	bhi.n	403262 <memset+0x6a>
  40326c:	1f22      	subs	r2, r4, #4
  40326e:	f022 0203 	bic.w	r2, r2, #3
  403272:	3204      	adds	r2, #4
  403274:	4413      	add	r3, r2
  403276:	f004 0403 	and.w	r4, r4, #3
  40327a:	b12c      	cbz	r4, 403288 <memset+0x90>
  40327c:	b2c9      	uxtb	r1, r1
  40327e:	441c      	add	r4, r3
  403280:	f803 1b01 	strb.w	r1, [r3], #1
  403284:	429c      	cmp	r4, r3
  403286:	d1fb      	bne.n	403280 <memset+0x88>
  403288:	bc70      	pop	{r4, r5, r6}
  40328a:	4770      	bx	lr
  40328c:	4614      	mov	r4, r2
  40328e:	4603      	mov	r3, r0
  403290:	e7c2      	b.n	403218 <memset+0x20>
  403292:	bf00      	nop

00403294 <register_fini>:
  403294:	4b02      	ldr	r3, [pc, #8]	; (4032a0 <register_fini+0xc>)
  403296:	b113      	cbz	r3, 40329e <register_fini+0xa>
  403298:	4802      	ldr	r0, [pc, #8]	; (4032a4 <register_fini+0x10>)
  40329a:	f000 b805 	b.w	4032a8 <atexit>
  40329e:	4770      	bx	lr
  4032a0:	00000000 	.word	0x00000000
  4032a4:	004032b5 	.word	0x004032b5

004032a8 <atexit>:
  4032a8:	2300      	movs	r3, #0
  4032aa:	4601      	mov	r1, r0
  4032ac:	461a      	mov	r2, r3
  4032ae:	4618      	mov	r0, r3
  4032b0:	f000 b81e 	b.w	4032f0 <__register_exitproc>

004032b4 <__libc_fini_array>:
  4032b4:	b538      	push	{r3, r4, r5, lr}
  4032b6:	4c0a      	ldr	r4, [pc, #40]	; (4032e0 <__libc_fini_array+0x2c>)
  4032b8:	4d0a      	ldr	r5, [pc, #40]	; (4032e4 <__libc_fini_array+0x30>)
  4032ba:	1b64      	subs	r4, r4, r5
  4032bc:	10a4      	asrs	r4, r4, #2
  4032be:	d00a      	beq.n	4032d6 <__libc_fini_array+0x22>
  4032c0:	f104 4380 	add.w	r3, r4, #1073741824	; 0x40000000
  4032c4:	3b01      	subs	r3, #1
  4032c6:	eb05 0583 	add.w	r5, r5, r3, lsl #2
  4032ca:	3c01      	subs	r4, #1
  4032cc:	f855 3904 	ldr.w	r3, [r5], #-4
  4032d0:	4798      	blx	r3
  4032d2:	2c00      	cmp	r4, #0
  4032d4:	d1f9      	bne.n	4032ca <__libc_fini_array+0x16>
  4032d6:	e8bd 4038 	ldmia.w	sp!, {r3, r4, r5, lr}
  4032da:	f000 b939 	b.w	403550 <_fini>
  4032de:	bf00      	nop
  4032e0:	00403560 	.word	0x00403560
  4032e4:	0040355c 	.word	0x0040355c

004032e8 <__retarget_lock_acquire_recursive>:
  4032e8:	4770      	bx	lr
  4032ea:	bf00      	nop

004032ec <__retarget_lock_release_recursive>:
  4032ec:	4770      	bx	lr
  4032ee:	bf00      	nop

004032f0 <__register_exitproc>:
  4032f0:	e92d 43f8 	stmdb	sp!, {r3, r4, r5, r6, r7, r8, r9, lr}
  4032f4:	4d2c      	ldr	r5, [pc, #176]	; (4033a8 <__register_exitproc+0xb8>)
  4032f6:	4606      	mov	r6, r0
  4032f8:	6828      	ldr	r0, [r5, #0]
  4032fa:	4698      	mov	r8, r3
  4032fc:	460f      	mov	r7, r1
  4032fe:	4691      	mov	r9, r2
  403300:	f7ff fff2 	bl	4032e8 <__retarget_lock_acquire_recursive>
  403304:	4b29      	ldr	r3, [pc, #164]	; (4033ac <__register_exitproc+0xbc>)
  403306:	681c      	ldr	r4, [r3, #0]
  403308:	f8d4 3148 	ldr.w	r3, [r4, #328]	; 0x148
  40330c:	2b00      	cmp	r3, #0
  40330e:	d03e      	beq.n	40338e <__register_exitproc+0x9e>
  403310:	685a      	ldr	r2, [r3, #4]
  403312:	2a1f      	cmp	r2, #31
  403314:	dc1c      	bgt.n	403350 <__register_exitproc+0x60>
  403316:	f102 0e01 	add.w	lr, r2, #1
  40331a:	b176      	cbz	r6, 40333a <__register_exitproc+0x4a>
  40331c:	eb03 0182 	add.w	r1, r3, r2, lsl #2
  403320:	2401      	movs	r4, #1
  403322:	f8c1 9088 	str.w	r9, [r1, #136]	; 0x88
  403326:	f8d3 0188 	ldr.w	r0, [r3, #392]	; 0x188
  40332a:	4094      	lsls	r4, r2
  40332c:	4320      	orrs	r0, r4
  40332e:	2e02      	cmp	r6, #2
  403330:	f8c3 0188 	str.w	r0, [r3, #392]	; 0x188
  403334:	f8c1 8108 	str.w	r8, [r1, #264]	; 0x108
  403338:	d023      	beq.n	403382 <__register_exitproc+0x92>
  40333a:	3202      	adds	r2, #2
  40333c:	f8c3 e004 	str.w	lr, [r3, #4]
  403340:	6828      	ldr	r0, [r5, #0]
  403342:	f843 7022 	str.w	r7, [r3, r2, lsl #2]
  403346:	f7ff ffd1 	bl	4032ec <__retarget_lock_release_recursive>
  40334a:	2000      	movs	r0, #0
  40334c:	e8bd 83f8 	ldmia.w	sp!, {r3, r4, r5, r6, r7, r8, r9, pc}
  403350:	4b17      	ldr	r3, [pc, #92]	; (4033b0 <__register_exitproc+0xc0>)
  403352:	b30b      	cbz	r3, 403398 <__register_exitproc+0xa8>
  403354:	f44f 70c8 	mov.w	r0, #400	; 0x190
  403358:	f3af 8000 	nop.w
  40335c:	4603      	mov	r3, r0
  40335e:	b1d8      	cbz	r0, 403398 <__register_exitproc+0xa8>
  403360:	f8d4 2148 	ldr.w	r2, [r4, #328]	; 0x148
  403364:	6002      	str	r2, [r0, #0]
  403366:	2100      	movs	r1, #0
  403368:	6041      	str	r1, [r0, #4]
  40336a:	460a      	mov	r2, r1
  40336c:	f8c4 0148 	str.w	r0, [r4, #328]	; 0x148
  403370:	f04f 0e01 	mov.w	lr, #1
  403374:	f8c0 1188 	str.w	r1, [r0, #392]	; 0x188
  403378:	f8c0 118c 	str.w	r1, [r0, #396]	; 0x18c
  40337c:	2e00      	cmp	r6, #0
  40337e:	d0dc      	beq.n	40333a <__register_exitproc+0x4a>
  403380:	e7cc      	b.n	40331c <__register_exitproc+0x2c>
  403382:	f8d3 118c 	ldr.w	r1, [r3, #396]	; 0x18c
  403386:	430c      	orrs	r4, r1
  403388:	f8c3 418c 	str.w	r4, [r3, #396]	; 0x18c
  40338c:	e7d5      	b.n	40333a <__register_exitproc+0x4a>
  40338e:	f504 73a6 	add.w	r3, r4, #332	; 0x14c
  403392:	f8c4 3148 	str.w	r3, [r4, #328]	; 0x148
  403396:	e7bb      	b.n	403310 <__register_exitproc+0x20>
  403398:	6828      	ldr	r0, [r5, #0]
  40339a:	f7ff ffa7 	bl	4032ec <__retarget_lock_release_recursive>
  40339e:	f04f 30ff 	mov.w	r0, #4294967295
  4033a2:	e8bd 83f8 	ldmia.w	sp!, {r3, r4, r5, r6, r7, r8, r9, pc}
  4033a6:	bf00      	nop
  4033a8:	20000448 	.word	0x20000448
  4033ac:	00403538 	.word	0x00403538
  4033b0:	00000000 	.word	0x00000000
  4033b4:	732f2e2e 	.word	0x732f2e2e
  4033b8:	462f6372 	.word	0x462f6372
  4033bc:	52656572 	.word	0x52656572
  4033c0:	2f534f54 	.word	0x2f534f54
  4033c4:	74726f70 	.word	0x74726f70
  4033c8:	656c6261 	.word	0x656c6261
  4033cc:	4343472f 	.word	0x4343472f
  4033d0:	4d52412f 	.word	0x4d52412f
  4033d4:	344d435f 	.word	0x344d435f
  4033d8:	6f702f46 	.word	0x6f702f46
  4033dc:	632e7472 	.word	0x632e7472
  4033e0:	00000000 	.word	0x00000000
  4033e4:	732f2e2e 	.word	0x732f2e2e
  4033e8:	462f6372 	.word	0x462f6372
  4033ec:	52656572 	.word	0x52656572
  4033f0:	2f534f54 	.word	0x2f534f54
  4033f4:	74726f70 	.word	0x74726f70
  4033f8:	656c6261 	.word	0x656c6261
  4033fc:	6d654d2f 	.word	0x6d654d2f
  403400:	676e614d 	.word	0x676e614d
  403404:	6165682f 	.word	0x6165682f
  403408:	2e355f70 	.word	0x2e355f70
  40340c:	00000063 	.word	0x00000063
  403410:	732f2e2e 	.word	0x732f2e2e
  403414:	462f6372 	.word	0x462f6372
  403418:	52656572 	.word	0x52656572
  40341c:	2f534f54 	.word	0x2f534f54
  403420:	75657571 	.word	0x75657571
  403424:	00632e65 	.word	0x00632e65
  403428:	732f2e2e 	.word	0x732f2e2e
  40342c:	462f6372 	.word	0x462f6372
  403430:	52656572 	.word	0x52656572
  403434:	2f534f54 	.word	0x2f534f54
  403438:	6b736174 	.word	0x6b736174
  40343c:	00632e73 	.word	0x00632e73
  403440:	454c4449 	.word	0x454c4449
  403444:	00000000 	.word	0x00000000
  403448:	51726d54 	.word	0x51726d54
  40344c:	00000000 	.word	0x00000000
  403450:	732f2e2e 	.word	0x732f2e2e
  403454:	462f6372 	.word	0x462f6372
  403458:	52656572 	.word	0x52656572
  40345c:	2f534f54 	.word	0x2f534f54
  403460:	656d6974 	.word	0x656d6974
  403464:	632e7372 	.word	0x632e7372
  403468:	00000000 	.word	0x00000000
  40346c:	20726d54 	.word	0x20726d54
  403470:	00637653 	.word	0x00637653
  403474:	73696854 	.word	0x73696854
  403478:	20736920 	.word	0x20736920
  40347c:	3662614c 	.word	0x3662614c
  403480:	00000a0d 	.word	0x00000a0d
  403484:	3044454c 	.word	0x3044454c
  403488:	61654820 	.word	0x61654820
  40348c:	42207472 	.word	0x42207472
  403490:	00746165 	.word	0x00746165
  403494:	20656854 	.word	0x20656854
  403498:	54205854 	.word	0x54205854
  40349c:	006b7361 	.word	0x006b7361
  4034a0:	20656854 	.word	0x20656854
  4034a4:	54205852 	.word	0x54205852
  4034a8:	006b7361 	.word	0x006b7361
  4034ac:	20656854 	.word	0x20656854
  4034b0:	2044454c 	.word	0x2044454c
  4034b4:	6b736154 	.word	0x6b736154
  4034b8:	00000000 	.word	0x00000000
  4034bc:	74747542 	.word	0x74747542
  4034c0:	54206e6f 	.word	0x54206e6f
  4034c4:	006b7361 	.word	0x006b7361
  4034c8:	68430a0d 	.word	0x68430a0d
  4034cc:	0a0d6461 	.word	0x0a0d6461
  4034d0:	00000000 	.word	0x00000000
  4034d4:	614c0a0d 	.word	0x614c0a0d
  4034d8:	35302062 	.word	0x35302062
  4034dc:	49209620 	.word	0x49209620
  4034e0:	7265746e 	.word	0x7265746e
  4034e4:	74707572 	.word	0x74707572
  4034e8:	6e692073 	.word	0x6e692073
  4034ec:	65724620 	.word	0x65724620
  4034f0:	4f545265 	.word	0x4f545265
  4034f4:	000a0d53 	.word	0x000a0d53
  4034f8:	53430a0d 	.word	0x53430a0d
  4034fc:	34332054 	.word	0x34332054
  403500:	20962037 	.word	0x20962037
  403504:	534f5452 	.word	0x534f5452
  403508:	00000a0d 	.word	0x00000a0d
  40350c:	65480a0d 	.word	0x65480a0d
  403510:	206f6c6c 	.word	0x206f6c6c
  403514:	65657246 	.word	0x65657246
  403518:	534f5452 	.word	0x534f5452
  40351c:	726f5720 	.word	0x726f5720
  403520:	0a0d646c 	.word	0x0a0d646c
  403524:	00000000 	.word	0x00000000
  403528:	732f2e2e 	.word	0x732f2e2e
  40352c:	6d2f6372 	.word	0x6d2f6372
  403530:	2e6e6961 	.word	0x2e6e6961
  403534:	00000063 	.word	0x00000063

00403538 <_global_impure_ptr>:
  403538:	20000020                                 .. 

0040353c <_init>:
  40353c:	b5f8      	push	{r3, r4, r5, r6, r7, lr}
  40353e:	bf00      	nop
  403540:	bcf8      	pop	{r3, r4, r5, r6, r7}
  403542:	bc08      	pop	{r3}
  403544:	469e      	mov	lr, r3
  403546:	4770      	bx	lr

00403548 <__init_array_start>:
  403548:	00403295 	.word	0x00403295

0040354c <__frame_dummy_init_array_entry>:
  40354c:	0040011d                                ..@.

00403550 <_fini>:
  403550:	b5f8      	push	{r3, r4, r5, r6, r7, lr}
  403552:	bf00      	nop
  403554:	bcf8      	pop	{r3, r4, r5, r6, r7}
  403556:	bc08      	pop	{r3}
  403558:	469e      	mov	lr, r3
  40355a:	4770      	bx	lr

0040355c <__fini_array_start>:
  40355c:	004000f9 	.word	0x004000f9
